/*
 * Copyright (c) 2018 Fuzhou Rockchip Electronics Co., Ltd
 *
 * SPDX-License-Identifier:	GPL-2.0
 * date: 2018-07-13
 */
	.arch armv7-a
	.eabi_attribute 20, 1
	.eabi_attribute 21, 1
	.eabi_attribute 23, 3
	.eabi_attribute 24, 1
	.eabi_attribute 25, 1
	.eabi_attribute 26, 2
	.eabi_attribute 30, 4
	.eabi_attribute 34, 0
	.eabi_attribute 18, 2
	.file	"rk_sftl.c"
	.text
.Ltext0:
	.cfi_sections	.debug_frame
	.global	__aeabi_uidiv
	.section	.text.l2p_addr_tran.isra.0,"ax",%progbits
	.align	1
	.syntax unified
	.thumb
	.thumb_func
	.fpu softvfp
	.type	l2p_addr_tran.isra.0, %function
l2p_addr_tran.isra.0:
.LFB352:
	.file 1 "drivers/rkflash/rksftl/sftl_flash.c"
	.loc 1 58 0
	.cfi_startproc
	@ args = 0, pretend = 0, frame = 0
	@ frame_needed = 0, uses_anonymous_args = 0
.LVL0:
	push	{r3, r4, r5, r6, r7, r8, r10, lr}
	.cfi_def_cfa_offset 32
	.cfi_offset 3, -32
	.cfi_offset 4, -28
	.cfi_offset 5, -24
	.cfi_offset 6, -20
	.cfi_offset 7, -16
	.cfi_offset 8, -12
	.cfi_offset 10, -8
	.cfi_offset 14, -4
	.loc 1 74 0
	lsrs	r7, r0, #10
	.loc 1 66 0
	ldr	r3, .L3
	.loc 1 58 0
	mov	r8, r1
	mov	r6, r0
	.loc 1 75 0
	uxth	r0, r7
	.loc 1 58 0
	mov	r10, r2
	.loc 1 76 0
	uxth	r7, r7
	.loc 1 66 0
	ldrh	r4, [r3, #8]
.LVL1:
	.loc 1 78 0
	ubfx	r6, r6, #0, #10
	.loc 1 67 0
	ldrh	r5, [r3, #10]
.LVL2:
	.loc 1 68 0
	ldrh	r3, [r3, #14]
	cmp	r3, #4
	.loc 1 69 0
	itt	eq
	lsreq	r4, r4, #1
.LVL3:
	.loc 1 70 0
	lsleq	r5, r5, #1
.LVL4:
	.loc 1 75 0
	mov	r1, r4
.LVL5:
	.loc 1 70 0
	it	eq
	uxtheq	r5, r5
.LVL6:
	.loc 1 75 0
	bl	__aeabi_uidiv
.LVL7:
	uxth	r0, r0
.LVL8:
	.loc 1 76 0
	mls	r4, r0, r4, r7
.LVL9:
	.loc 1 78 0
	mla	r4, r5, r4, r6
	str	r4, [r8]
	.loc 1 79 0
	str	r0, [r10]
	.loc 1 82 0
	movs	r0, #0
.LVL10:
	pop	{r3, r4, r5, r6, r7, r8, r10, pc}
.LVL11:
.L4:
	.align	2
.L3:
	.word	.LANCHOR0
	.cfi_endproc
.LFE352:
	.size	l2p_addr_tran.isra.0, .-l2p_addr_tran.isra.0
	.section	.text.ftl_set_blk_mode.part.6,"ax",%progbits
	.align	1
	.syntax unified
	.thumb
	.thumb_func
	.fpu softvfp
	.type	ftl_set_blk_mode.part.6, %function
ftl_set_blk_mode.part.6:
.LFB358:
	.file 2 "drivers/rkflash/rksftl/sftl_sys.c"
	.loc 2 1395 0
	.cfi_startproc
	@ args = 0, pretend = 0, frame = 0
	@ frame_needed = 0, uses_anonymous_args = 0
	@ link register save eliminated.
.LVL12:
	.loc 2 1398 0
	ldr	r3, .L6
	lsrs	r1, r0, #5
	and	r0, r0, #31
.LVL13:
	ldr	r2, [r3]
	movs	r3, #1
	lsl	r0, r3, r0
	ldr	r3, [r2, r1, lsl #2]
	orrs	r3, r3, r0
	str	r3, [r2, r1, lsl #2]
	bx	lr
.L7:
	.align	2
.L6:
	.word	.LANCHOR1
	.cfi_endproc
.LFE358:
	.size	ftl_set_blk_mode.part.6, .-ftl_set_blk_mode.part.6
	.section	.text.Ftl_log2,"ax",%progbits
	.align	1
	.global	Ftl_log2
	.syntax unified
	.thumb
	.thumb_func
	.fpu softvfp
	.type	Ftl_log2, %function
Ftl_log2:
.LFB205:
	.file 3 "drivers/rkflash/rksftl/sftl_plat.c"
	.loc 3 128 0
	.cfi_startproc
	@ args = 0, pretend = 0, frame = 0
	@ frame_needed = 0, uses_anonymous_args = 0
	@ link register save eliminated.
.LVL14:
	.loc 3 132 0
	movs	r1, #0
	.loc 3 130 0
	movs	r2, #1
.LVL15:
.L9:
	.loc 3 132 0 discriminator 1
	cmp	r2, r0
	uxth	r3, r1
.LVL16:
	add	r1, r1, #1
	bls	.L10
.LVL17:
	.loc 3 134 0
	subs	r0, r3, #1
.LVL18:
	.loc 3 136 0
	uxth	r0, r0
	bx	lr
.LVL19:
.L10:
	.loc 3 133 0 discriminator 3
	lsls	r2, r2, #1
.LVL20:
	b	.L9
	.cfi_endproc
.LFE205:
	.size	Ftl_log2, .-Ftl_log2
	.section	.text.FtlPrintInfo,"ax",%progbits
	.align	1
	.global	FtlPrintInfo
	.syntax unified
	.thumb
	.thumb_func
	.fpu softvfp
	.type	FtlPrintInfo, %function
FtlPrintInfo:
.LFB206:
	.loc 3 160 0
	.cfi_startproc
	@ args = 0, pretend = 0, frame = 0
	@ frame_needed = 0, uses_anonymous_args = 0
	@ link register save eliminated.
.LVL21:
	bx	lr
	.cfi_endproc
.LFE206:
	.size	FtlPrintInfo, .-FtlPrintInfo
	.section	.text.FtlSysBlkNumInit,"ax",%progbits
	.align	1
	.global	FtlSysBlkNumInit
	.syntax unified
	.thumb
	.thumb_func
	.fpu softvfp
	.type	FtlSysBlkNumInit, %function
FtlSysBlkNumInit:
.LFB207:
	.loc 3 166 0
	.cfi_startproc
	@ args = 0, pretend = 0, frame = 0
	@ frame_needed = 0, uses_anonymous_args = 0
	@ link register save eliminated.
.LVL22:
	.loc 3 169 0
	ldr	r3, .L13
	cmp	r0, #24
	it	cc
	movcc	r0, #24
.LVL23:
	.loc 3 170 0
	ldr	r2, .L13+4
	.loc 3 169 0
	str	r0, [r3]
	.loc 3 170 0
	ldr	r3, .L13+8
	ldrh	r3, [r3]
	muls	r3, r0, r3
	str	r3, [r2]
	.loc 3 171 0
	ldr	r2, .L13+12
	ldrh	r2, [r2]
	subs	r0, r2, r0
.LVL24:
	ldr	r2, .L13+16
	strh	r0, [r2]	@ movhi
	.loc 3 175 0
	movs	r0, #0
	.loc 3 172 0
	ldr	r2, .L13+20
	ldr	r2, [r2]
	subs	r3, r2, r3
	ldr	r2, .L13+24
	str	r3, [r2]
	.loc 3 175 0
	bx	lr
.L14:
	.align	2
.L13:
	.word	.LANCHOR2
	.word	.LANCHOR4
	.word	.LANCHOR3
	.word	.LANCHOR6
	.word	.LANCHOR5
	.word	.LANCHOR8
	.word	.LANCHOR7
	.cfi_endproc
.LFE207:
	.size	FtlSysBlkNumInit, .-FtlSysBlkNumInit
	.global	__aeabi_idiv
	.section	.text.FtlConstantsInit,"ax",%progbits
	.align	1
	.global	FtlConstantsInit
	.syntax unified
	.thumb
	.thumb_func
	.fpu softvfp
	.type	FtlConstantsInit, %function
FtlConstantsInit:
.LFB208:
	.loc 3 184 0
	.cfi_startproc
	@ args = 0, pretend = 0, frame = 0
	@ frame_needed = 0, uses_anonymous_args = 0
.LVL25:
	.loc 3 189 0
	ldrh	r1, [r0]
	ldr	r2, .L25
	.loc 3 184 0
	push	{r4, r5, r6, r7, r8, r10, fp, lr}
	.cfi_def_cfa_offset 32
	.cfi_offset 4, -32
	.cfi_offset 5, -28
	.cfi_offset 6, -24
	.cfi_offset 7, -20
	.cfi_offset 8, -16
	.cfi_offset 10, -12
	.cfi_offset 11, -8
	.cfi_offset 14, -4
	.loc 3 184 0
	mov	r7, r0
	.loc 3 190 0
	ldrh	r5, [r0, #2]
	.loc 3 189 0
	strh	r1, [r2]	@ movhi
	.loc 3 190 0
	ldr	r2, .L25+4
	.loc 3 191 0
	ldrh	r0, [r0, #4]
.LVL26:
	.loc 3 190 0
	strh	r5, [r2]	@ movhi
	.loc 3 191 0
	ldr	r2, .L25+8
	strh	r0, [r2]	@ movhi
	.loc 3 192 0
	ldrh	r2, [r7, #14]
	cmp	r2, #4
	bne	.L16
	.loc 3 193 0
	ldrh	r2, [r7, #6]
	ldr	r4, .L25+12
	lsrs	r2, r2, #1
	strh	r2, [r4]	@ movhi
	.loc 3 194 0
	movs	r4, #8
	ldr	r2, .L25+16
	strh	r4, [r2]	@ movhi
.L16:
	.loc 3 198 0 discriminator 3
	ldr	r4, .L25+20
	.loc 3 184 0 discriminator 3
	movs	r2, #0
.L17:
.LVL27:
	.loc 3 198 0 discriminator 3
	strb	r2, [r2, r4]
	.loc 3 197 0 discriminator 3
	adds	r2, r2, #1
.LVL28:
	cmp	r2, #32
	bne	.L17
	.loc 3 199 0
	ldr	r2, .L25+24
.LVL29:
	.loc 3 201 0
	cmp	r1, #1
	.loc 3 199 0
	mov	r4, #5
	.loc 3 205 0
	smulbb	r5, r5, r0
	.loc 3 200 0
	mov	r6, #0
	.loc 3 199 0
	strh	r4, [r2]	@ movhi
	.loc 3 202 0
	it	eq
	strheq	r1, [r2]	@ movhi
	.loc 3 203 0
	mov	r1, #640
	ldr	r2, .L25+28
	.loc 3 205 0
	uxth	r5, r5
	.loc 3 200 0
	ldr	r4, .L25+32
	.loc 3 203 0
	strh	r1, [r2]	@ movhi
	.loc 3 205 0
	ldr	r2, .L25+36
	.loc 3 200 0
	strh	r6, [r4]	@ movhi
	.loc 3 211 0
	ldr	r6, .L25+40
	.loc 3 205 0
	strh	r5, [r2]	@ movhi
	.loc 3 206 0
	ldr	r2, .L25+12
	ldrh	r4, [r2]
	ldr	r2, .L25+44
	smulbb	r0, r0, r4
	uxth	r0, r0
	strh	r0, [r2]	@ movhi
	.loc 3 207 0
	bl	Ftl_log2
.LVL30:
	ldr	r2, .L25+48
	.loc 3 208 0
	ldrh	r8, [r7, #12]
	ldr	r3, .L25+52
	.loc 3 207 0
	strh	r0, [r2]	@ movhi
	.loc 3 209 0
	ldr	r2, .L25+56
	.loc 3 210 0
	smulbb	r1, r5, r8
	.loc 3 208 0
	strh	r8, [r3]	@ movhi
	.loc 3 209 0
	strh	r8, [r2]	@ movhi
	.loc 3 210 0
	ldr	r2, .L25+60
	strh	r1, [r2]	@ movhi
	.loc 3 211 0
	ldr	r2, .L25+16
	ldrh	fp, [r2]
	mov	r0, fp
	bl	Ftl_log2
.LVL31:
	.loc 3 213 0
	lsl	r2, fp, #9
	ldr	r1, .L25+64
	.loc 3 215 0
	ldr	r3, .L25+68
	.loc 3 211 0
	mov	r10, r0
	.loc 3 213 0
	uxth	r2, r2
	.loc 3 211 0
	strh	r0, [r6]	@ movhi
	.loc 3 219 0
	mov	r0, #5120
	.loc 3 213 0
	strh	r2, [r1]	@ movhi
	.loc 3 214 0
	lsrs	r2, r2, #8
	ldr	r1, .L25+72
	strh	r2, [r1]	@ movhi
	.loc 3 219 0
	mul	r1, r8, fp
	.loc 3 215 0
	ldrh	r2, [r7, #20]
	ldr	r7, .L25+52
.LVL32:
	strh	r2, [r3]	@ movhi
	.loc 3 217 0
	mul	r3, r4, r5
	ldr	r2, .L25+76
	.loc 3 224 0
	lsls	r4, r4, #6
	.loc 3 217 0
	str	r3, [r2]
	.loc 3 218 0
	mul	r3, fp, r3
	ldr	r2, .L25+80
	mul	r3, r8, r3
	ldr	r8, .L25+116
	asrs	r3, r3, #11
	str	r3, [r2]
	.loc 3 219 0
	bl	__aeabi_idiv
.LVL33:
	uxth	r0, r0
	.loc 3 222 0
	ldr	r2, .L25+84
	.loc 3 227 0
	mov	r1, r5
	.loc 3 220 0
	cmp	r0, #4
	.loc 3 221 0
	itet	ls
	movls	r3, #4
	.loc 3 219 0
	strhhi	r0, [r8]	@ movhi
	.loc 3 221 0
	strhls	r3, [r8]	@ movhi
	.loc 3 222 0
	mov	r3, #640
	asr	r3, r3, r10
	.loc 3 224 0
	add	r10, r10, #9
	asr	r4, r4, r10
	.loc 3 225 0
	ldr	r10, .L25+120
	.loc 3 222 0
	adds	r3, r3, #2
	.loc 3 227 0
	ldrh	r0, [r8]
	.loc 3 222 0
	strh	r3, [r2]	@ movhi
	.loc 3 224 0
	ldr	r3, .L25+88
	strh	r4, [r3]	@ movhi
	uxth	r4, r4
	.loc 3 225 0
	mul	r3, r5, r4
	.loc 3 227 0
	adds	r4, r4, #8
	.loc 3 225 0
	str	r3, [r10]
	.loc 3 227 0
	bl	__aeabi_uidiv
.LVL34:
	uxtah	r0, r4, r0
	ldr	r4, .L25+92
	.loc 3 228 0
	cmp	r5, #1
	.loc 3 229 0
	it	eq
	addeq	r0, r0, #4
	str	r0, [r4]
	.loc 3 232 0
	ldrh	r0, [r4]
	bl	FtlSysBlkNumInit
.LVL35:
	.loc 3 233 0
	ldr	r2, [r4]
	.loc 3 237 0
	movs	r0, #0
	.loc 3 233 0
	ldr	r3, .L25+96
	str	r2, [r3]
	.loc 3 235 0
	ldr	r3, .L25+100
	ldr	r2, [r3]
	ldrh	r3, [r7]
	lsls	r2, r2, #2
	muls	r3, r2, r3
	ldrh	r2, [r6]
	adds	r2, r2, #9
	lsrs	r3, r3, r2
	ldr	r2, .L25+104
	adds	r3, r3, #2
	strh	r3, [r2]	@ movhi
	.loc 3 236 0
	movs	r2, #32
	ldr	r3, .L25+108
	strh	r2, [r3]	@ movhi
	.loc 3 237 0
	ldr	r3, .L25+112
	str	r0, [r3]
	.loc 3 238 0
	ldrh	r3, [r8]
	adds	r3, r3, #3
	strh	r3, [r8]	@ movhi
	.loc 3 239 0
	ldr	r3, [r10]
	adds	r3, r3, #3
	str	r3, [r10]
	.loc 3 264 0
	pop	{r4, r5, r6, r7, r8, r10, fp, pc}
.L26:
	.align	2
.L25:
	.word	.LANCHOR9
	.word	.LANCHOR10
	.word	.LANCHOR11
	.word	.LANCHOR6
	.word	.LANCHOR12
	.word	.LANCHOR13
	.word	.LANCHOR14
	.word	.LANCHOR16
	.word	.LANCHOR15
	.word	.LANCHOR3
	.word	.LANCHOR22
	.word	.LANCHOR17
	.word	.LANCHOR18
	.word	.LANCHOR19
	.word	.LANCHOR20
	.word	.LANCHOR21
	.word	.LANCHOR23
	.word	.LANCHOR25
	.word	.LANCHOR24
	.word	.LANCHOR8
	.word	.LANCHOR26
	.word	.LANCHOR28
	.word	.LANCHOR29
	.word	.LANCHOR2
	.word	.LANCHOR31
	.word	.LANCHOR7
	.word	.LANCHOR32
	.word	.LANCHOR33
	.word	.LANCHOR34
	.word	.LANCHOR27
	.word	.LANCHOR30
	.cfi_endproc
.LFE208:
	.size	FtlConstantsInit, .-FtlConstantsInit
	.section	.text.IsBlkInVendorPart,"ax",%progbits
	.align	1
	.global	IsBlkInVendorPart
	.syntax unified
	.thumb
	.thumb_func
	.fpu softvfp
	.type	IsBlkInVendorPart, %function
IsBlkInVendorPart:
.LFB211:
	.loc 3 514 0
	.cfi_startproc
	@ args = 0, pretend = 0, frame = 0
	@ frame_needed = 0, uses_anonymous_args = 0
	@ link register save eliminated.
.LVL36:
	.loc 3 517 0
	ldr	r3, .L34
	ldrh	r3, [r3]
	cbz	r3, .L33
.LBB185:
.LBB186:
	.loc 3 519 0
	ldr	r3, .L34+4
	.loc 3 518 0
	ldr	r2, .L34+8
	.loc 3 519 0
	ldr	r3, [r3]
	ldrh	r2, [r2]
	add	r2, r3, r2, lsl #1
.L29:
	.loc 3 518 0
	cmp	r3, r2
	bne	.L30
.L33:
.LBE186:
.LBE185:
	.loc 3 524 0
	movs	r0, #0
.LVL37:
	bx	lr
.LVL38:
.L30:
.LBB188:
.LBB187:
	.loc 3 519 0
	ldrh	r1, [r3], #2
	cmp	r0, r1
	bne	.L29
	.loc 3 520 0
	movs	r0, #1
.LVL39:
.LBE187:
.LBE188:
	.loc 3 525 0
	bx	lr
.L35:
	.align	2
.L34:
	.word	.LANCHOR35
	.word	.LANCHOR36
	.word	.LANCHOR27
	.cfi_endproc
.LFE211:
	.size	IsBlkInVendorPart, .-IsBlkInVendorPart
	.section	.text.FtlCacheWriteBack,"ax",%progbits
	.align	1
	.global	FtlCacheWriteBack
	.syntax unified
	.thumb
	.thumb_func
	.fpu softvfp
	.type	FtlCacheWriteBack, %function
FtlCacheWriteBack:
.LFB219:
	.loc 3 952 0
	.cfi_startproc
	@ args = 0, pretend = 0, frame = 0
	@ frame_needed = 0, uses_anonymous_args = 0
	@ link register save eliminated.
	.loc 3 954 0
	movs	r0, #0
	bx	lr
	.cfi_endproc
.LFE219:
	.size	FtlCacheWriteBack, .-FtlCacheWriteBack
	.section	.text.sftl_get_density,"ax",%progbits
	.align	1
	.global	sftl_get_density
	.syntax unified
	.thumb
	.thumb_func
	.fpu softvfp
	.type	sftl_get_density, %function
sftl_get_density:
.LFB224:
	.loc 3 1178 0
	.cfi_startproc
	@ args = 0, pretend = 0, frame = 0
	@ frame_needed = 0, uses_anonymous_args = 0
	@ link register save eliminated.
	.loc 3 1180 0
	ldr	r3, .L38
	ldr	r0, [r3]
	bx	lr
.L39:
	.align	2
.L38:
	.word	.LANCHOR34
	.cfi_endproc
.LFE224:
	.size	sftl_get_density, .-sftl_get_density
	.global	__aeabi_uidivmod
	.section	.text.FtlBbmMapBadBlock,"ax",%progbits
	.align	1
	.global	FtlBbmMapBadBlock
	.syntax unified
	.thumb
	.thumb_func
	.fpu softvfp
	.type	FtlBbmMapBadBlock, %function
FtlBbmMapBadBlock:
.LFB225:
	.file 4 "drivers/rkflash/rksftl/sftl_bbm.c"
	.loc 4 5 0
	.cfi_startproc
	@ args = 0, pretend = 0, frame = 0
	@ frame_needed = 0, uses_anonymous_args = 0
.LVL40:
	.loc 4 10 0
	ldr	r3, .L41
	.loc 4 5 0
	push	{r0, r1, r2, r4, r5, r6, r7, lr}
	.cfi_def_cfa_offset 32
	.cfi_offset 4, -20
	.cfi_offset 5, -16
	.cfi_offset 6, -12
	.cfi_offset 7, -8
	.cfi_offset 14, -4
	.loc 4 5 0
	mov	r5, r0
	.loc 4 10 0
	ldrh	r4, [r3]
	mov	r1, r4
	bl	__aeabi_uidiv
.LVL41:
	mov	r1, r4
	.loc 4 13 0
	ldr	r4, .L41+4
	.loc 4 10 0
	uxth	r6, r0
.LVL42:
	mov	r0, r5
	bl	__aeabi_uidivmod
.LVL43:
	.loc 4 13 0
	add	r2, r4, r6, lsl #2
	uxth	r3, r1
.LVL44:
	.loc 4 15 0
	ldr	r2, [r2, #28]
	lsrs	r1, r3, #5
	and	r7, r3, #31
	movs	r0, #1
	lsls	r0, r0, r7
	ldr	r7, [r2, r1, lsl #2]
	orrs	r0, r0, r7
	str	r0, [r2, r1, lsl #2]
	.loc 4 16 0
	mov	r2, r6
	str	r0, [sp]
	mov	r1, r5
	ldr	r0, .L41+8
	bl	printf
.LVL45:
	.loc 4 17 0
	ldrh	r3, [r4, #6]
	.loc 4 19 0
	movs	r0, #0
	.loc 4 17 0
	adds	r3, r3, #1
	strh	r3, [r4, #6]	@ movhi
	.loc 4 19 0
	add	sp, sp, #12
	.cfi_def_cfa_offset 20
	@ sp needed
	pop	{r4, r5, r6, r7, pc}
.LVL46:
.L42:
	.align	2
.L41:
	.word	.LANCHOR17
	.word	.LANCHOR37
	.word	.LC0
	.cfi_endproc
.LFE225:
	.size	FtlBbmMapBadBlock, .-FtlBbmMapBadBlock
	.section	.text.FtlBbmIsBadBlock,"ax",%progbits
	.align	1
	.global	FtlBbmIsBadBlock
	.syntax unified
	.thumb
	.thumb_func
	.fpu softvfp
	.type	FtlBbmIsBadBlock, %function
FtlBbmIsBadBlock:
.LFB226:
	.loc 4 24 0
	.cfi_startproc
	@ args = 0, pretend = 0, frame = 0
	@ frame_needed = 0, uses_anonymous_args = 0
.LVL47:
	.loc 4 30 0
	ldr	r3, .L44
	.loc 4 24 0
	push	{r4, r5, r6, lr}
	.cfi_def_cfa_offset 16
	.cfi_offset 4, -16
	.cfi_offset 5, -12
	.cfi_offset 6, -8
	.cfi_offset 14, -4
	.loc 4 24 0
	mov	r6, r0
	.loc 4 30 0
	ldrh	r5, [r3]
.LVL48:
	.loc 4 31 0
	mov	r1, r5
	bl	__aeabi_uidivmod
.LVL49:
	.loc 4 30 0
	mov	r0, r6
	.loc 4 31 0
	uxth	r4, r1
.LVL50:
	.loc 4 30 0
	mov	r1, r5
	bl	__aeabi_uidiv
.LVL51:
	.loc 4 33 0
	ldr	r3, .L44+4
	.loc 4 30 0
	uxth	r0, r0
	.loc 4 34 0
	lsrs	r2, r4, #5
	and	r4, r4, #31
.LVL52:
	.loc 4 33 0
	add	r0, r3, r0, lsl #2
	.loc 4 34 0
	ldr	r3, [r0, #28]
	ldr	r0, [r3, r2, lsl #2]
	lsrs	r0, r0, r4
	.loc 4 36 0
	and	r0, r0, #1
	pop	{r4, r5, r6, pc}
.LVL53:
.L45:
	.align	2
.L44:
	.word	.LANCHOR17
	.word	.LANCHOR37
	.cfi_endproc
.LFE226:
	.size	FtlBbmIsBadBlock, .-FtlBbmIsBadBlock
	.section	.text.FtlBbtInfoPrint,"ax",%progbits
	.align	1
	.global	FtlBbtInfoPrint
	.syntax unified
	.thumb
	.thumb_func
	.fpu softvfp
	.type	FtlBbtInfoPrint, %function
FtlBbtInfoPrint:
.LFB227:
	.loc 4 39 0
	.cfi_startproc
	@ args = 0, pretend = 0, frame = 0
	@ frame_needed = 0, uses_anonymous_args = 0
	@ link register save eliminated.
	bx	lr
	.cfi_endproc
.LFE227:
	.size	FtlBbtInfoPrint, .-FtlBbtInfoPrint
	.section	.text.FtlBbtCalcTotleCnt,"ax",%progbits
	.align	1
	.global	FtlBbtCalcTotleCnt
	.syntax unified
	.thumb
	.thumb_func
	.fpu softvfp
	.type	FtlBbtCalcTotleCnt, %function
FtlBbtCalcTotleCnt:
.LFB231:
	.loc 4 157 0
	.cfi_startproc
	@ args = 0, pretend = 0, frame = 0
	@ frame_needed = 0, uses_anonymous_args = 0
.LVL54:
	.loc 4 160 0
	ldr	r3, .L54
	ldr	r2, .L54+4
	.loc 4 157 0
	push	{r4, r5, r6, lr}
	.cfi_def_cfa_offset 16
	.cfi_offset 4, -16
	.cfi_offset 5, -12
	.cfi_offset 6, -8
	.cfi_offset 14, -4
	.loc 4 160 0
	movs	r5, #0
	ldrh	r3, [r3]
	.loc 4 159 0
	mov	r4, r5
	.loc 4 160 0
	ldrh	r6, [r2]
	muls	r6, r3, r6
.LVL55:
.L48:
	uxth	r0, r5
.LVL56:
	.loc 4 160 0 is_stmt 0 discriminator 1
	cmp	r0, r6
	blt	.L50
	.loc 4 169 0 is_stmt 1
	mov	r0, r4
.LVL57:
	pop	{r4, r5, r6, pc}
.LVL58:
.L50:
	.loc 4 162 0
	bl	FtlBbmIsBadBlock
.LVL59:
	cbz	r0, .L49
	.loc 4 164 0
	adds	r4, r4, #1
.LVL60:
	uxth	r4, r4
.LVL61:
.L49:
	adds	r5, r5, #1
.LVL62:
	b	.L48
.L55:
	.align	2
.L54:
	.word	.LANCHOR17
	.word	.LANCHOR10
	.cfi_endproc
.LFE231:
	.size	FtlBbtCalcTotleCnt, .-FtlBbtCalcTotleCnt
	.section	.text.V2P_block,"ax",%progbits
	.align	1
	.global	V2P_block
	.syntax unified
	.thumb
	.thumb_func
	.fpu softvfp
	.type	V2P_block, %function
V2P_block:
.LFB235:
	.loc 2 5 0
	.cfi_startproc
	@ args = 0, pretend = 0, frame = 0
	@ frame_needed = 0, uses_anonymous_args = 0
.LVL63:
	push	{r3, r4, r5, r6, r7, lr}
	.cfi_def_cfa_offset 24
	.cfi_offset 3, -24
	.cfi_offset 4, -20
	.cfi_offset 5, -16
	.cfi_offset 6, -12
	.cfi_offset 7, -8
	.cfi_offset 14, -4
	.loc 2 5 0
	mov	r5, r1
	.loc 2 8 0
	ldr	r3, .L57
	.loc 2 5 0
	mov	r7, r0
	.loc 2 8 0
	ldrh	r6, [r3]
.LVL64:
	mov	r1, r6
.LVL65:
	bl	__aeabi_uidiv
.LVL66:
	ldr	r3, .L57+4
	smulbb	r5, r6, r5
	mov	r1, r6
	ldrh	r4, [r3]
	smulbb	r4, r4, r0
	mov	r0, r7
	bl	__aeabi_uidivmod
.LVL67:
	adds	r0, r5, r1
	add	r0, r0, r4
	.loc 2 10 0
	uxth	r0, r0
	pop	{r3, r4, r5, r6, r7, pc}
.L58:
	.align	2
.L57:
	.word	.LANCHOR11
	.word	.LANCHOR17
	.cfi_endproc
.LFE235:
	.size	V2P_block, .-V2P_block
	.section	.text.P2V_plane,"ax",%progbits
	.align	1
	.global	P2V_plane
	.syntax unified
	.thumb
	.thumb_func
	.fpu softvfp
	.type	P2V_plane, %function
P2V_plane:
.LFB236:
	.loc 2 13 0
	.cfi_startproc
	@ args = 0, pretend = 0, frame = 0
	@ frame_needed = 0, uses_anonymous_args = 0
.LVL68:
	.loc 2 16 0
	ldr	r3, .L60
	.loc 2 13 0
	push	{r4, r5, r6, lr}
	.cfi_def_cfa_offset 16
	.cfi_offset 4, -16
	.cfi_offset 5, -12
	.cfi_offset 6, -8
	.cfi_offset 14, -4
	.loc 2 13 0
	mov	r6, r0
	.loc 2 16 0
	ldrh	r5, [r3]
.LVL69:
	ldr	r3, .L60+4
	ldrh	r1, [r3]
	bl	__aeabi_uidiv
.LVL70:
	smulbb	r4, r0, r5
	mov	r1, r5
	mov	r0, r6
	bl	__aeabi_uidivmod
.LVL71:
	add	r1, r1, r4
	.loc 2 18 0
	uxth	r0, r1
	pop	{r4, r5, r6, pc}
.L61:
	.align	2
.L60:
	.word	.LANCHOR11
	.word	.LANCHOR17
	.cfi_endproc
.LFE236:
	.size	P2V_plane, .-P2V_plane
	.section	.text.P2V_block_in_plane,"ax",%progbits
	.align	1
	.global	P2V_block_in_plane
	.syntax unified
	.thumb
	.thumb_func
	.fpu softvfp
	.type	P2V_block_in_plane, %function
P2V_block_in_plane:
.LFB237:
	.loc 2 21 0
	.cfi_startproc
	@ args = 0, pretend = 0, frame = 0
	@ frame_needed = 0, uses_anonymous_args = 0
.LVL72:
	push	{r3, lr}
	.cfi_def_cfa_offset 8
	.cfi_offset 3, -8
	.cfi_offset 14, -4
	.loc 2 24 0
	ldr	r3, .L63
	ldrh	r1, [r3]
	bl	__aeabi_uidivmod
.LVL73:
	.loc 2 25 0
	ldr	r3, .L63+4
	.loc 2 24 0
	uxth	r0, r1
.LVL74:
	.loc 2 25 0
	ldrh	r1, [r3]
	bl	__aeabi_uidiv
.LVL75:
	.loc 2 27 0
	uxth	r0, r0
	pop	{r3, pc}
.L64:
	.align	2
.L63:
	.word	.LANCHOR17
	.word	.LANCHOR11
	.cfi_endproc
.LFE237:
	.size	P2V_block_in_plane, .-P2V_block_in_plane
	.section	.text.ftl_cmp_data_ver,"ax",%progbits
	.align	1
	.global	ftl_cmp_data_ver
	.syntax unified
	.thumb
	.thumb_func
	.fpu softvfp
	.type	ftl_cmp_data_ver, %function
ftl_cmp_data_ver:
.LFB238:
	.loc 2 31 0
	.cfi_startproc
	@ args = 0, pretend = 0, frame = 0
	@ frame_needed = 0, uses_anonymous_args = 0
	@ link register save eliminated.
.LVL76:
	.loc 2 34 0
	cmp	r0, r1
	bls	.L66
	.loc 2 36 0
	subs	r0, r0, r1
.LVL77:
	cmp	r0, #-2147483648
	ite	hi
	movhi	r0, #0
	movls	r0, #1
	bx	lr
.LVL78:
.L66:
	.loc 2 40 0
	subs	r0, r1, r0
.LVL79:
	cmp	r0, #-2147483648
	ite	ls
	movls	r0, #0
	movhi	r0, #1
.LVL80:
	.loc 2 44 0
	bx	lr
	.cfi_endproc
.LFE238:
	.size	ftl_cmp_data_ver, .-ftl_cmp_data_ver
	.section	.text.FtlFreeSysBlkQueueEmpty,"ax",%progbits
	.align	1
	.global	FtlFreeSysBlkQueueEmpty
	.syntax unified
	.thumb
	.thumb_func
	.fpu softvfp
	.type	FtlFreeSysBlkQueueEmpty, %function
FtlFreeSysBlkQueueEmpty:
.LFB241:
	.loc 2 88 0
	.cfi_startproc
	@ args = 0, pretend = 0, frame = 0
	@ frame_needed = 0, uses_anonymous_args = 0
	@ link register save eliminated.
	.loc 2 89 0
	ldr	r3, .L69
	ldrh	r0, [r3, #6]
	.loc 2 90 0
	clz	r0, r0
	lsrs	r0, r0, #5
	bx	lr
.L70:
	.align	2
.L69:
	.word	.LANCHOR38
	.cfi_endproc
.LFE241:
	.size	FtlFreeSysBlkQueueEmpty, .-FtlFreeSysBlkQueueEmpty
	.section	.text.FtlFreeSysBlkQueueFull,"ax",%progbits
	.align	1
	.global	FtlFreeSysBlkQueueFull
	.syntax unified
	.thumb
	.thumb_func
	.fpu softvfp
	.type	FtlFreeSysBlkQueueFull, %function
FtlFreeSysBlkQueueFull:
.LFB242:
	.loc 2 93 0
	.cfi_startproc
	@ args = 0, pretend = 0, frame = 0
	@ frame_needed = 0, uses_anonymous_args = 0
	@ link register save eliminated.
	.loc 2 94 0
	ldr	r3, .L72
	ldrh	r0, [r3, #6]
	.loc 2 95 0
	sub	r3, r0, #1024
	rsbs	r0, r3, #0
	adcs	r0, r0, r3
	bx	lr
.L73:
	.align	2
.L72:
	.word	.LANCHOR38
	.cfi_endproc
.LFE242:
	.size	FtlFreeSysBlkQueueFull, .-FtlFreeSysBlkQueueFull
	.section	.text.FtlFreeSysBLkSort,"ax",%progbits
	.align	1
	.global	FtlFreeSysBLkSort
	.syntax unified
	.thumb
	.thumb_func
	.fpu softvfp
	.type	FtlFreeSysBLkSort, %function
FtlFreeSysBLkSort:
.LFB244:
	.loc 2 118 0
	.cfi_startproc
	@ args = 0, pretend = 0, frame = 0
	@ frame_needed = 0, uses_anonymous_args = 0
.LVL81:
	.loc 2 123 0
	ldr	r3, .L83
	.loc 2 118 0
	push	{r4, r5, r6, lr}
	.cfi_def_cfa_offset 16
	.cfi_offset 4, -16
	.cfi_offset 5, -12
	.cfi_offset 6, -8
	.cfi_offset 14, -4
	.loc 2 123 0
	ldrh	r2, [r3, #6]
	cbz	r2, .L74
	.loc 2 119 0
	ldr	r2, .L83+4
	movs	r6, #0
	ldrh	r1, [r3, #2]
	mov	r5, r6
	ldrh	r4, [r2, #28]
	ldrh	r2, [r3, #4]
	and	r4, r4, #31
.L76:
.LVL82:
	.loc 2 124 0 discriminator 1
	uxth	r0, r6
	adds	r6, r6, #1
.LVL83:
	cmp	r4, r0
	bgt	.L77
	cbz	r5, .L74
	strh	r1, [r3, #2]	@ movhi
	strh	r2, [r3, #4]	@ movhi
.LVL84:
.L74:
	pop	{r4, r5, r6, pc}
.LVL85:
.L77:
	.loc 2 125 0 discriminator 3
	adds	r0, r1, #4
.LVL86:
	.loc 2 126 0 discriminator 3
	adds	r1, r1, #1
	.loc 2 125 0 discriminator 3
	ldrh	r5, [r3, r0, lsl #1]
.LVL87:
	.loc 2 127 0 discriminator 3
	adds	r0, r2, #4
	.loc 2 126 0 discriminator 3
	ubfx	r1, r1, #0, #10
	.loc 2 127 0 discriminator 3
	strh	r5, [r3, r0, lsl #1]	@ movhi
.LVL88:
	movs	r5, #1
.LVL89:
	.loc 2 128 0 discriminator 3
	add	r2, r2, r5
	ubfx	r2, r2, #0, #10
	b	.L76
.L84:
	.align	2
.L83:
	.word	.LANCHOR38
	.word	.LANCHOR39
	.cfi_endproc
.LFE244:
	.size	FtlFreeSysBLkSort, .-FtlFreeSysBLkSort
	.section	.text.IsInFreeQueue,"ax",%progbits
	.align	1
	.global	IsInFreeQueue
	.syntax unified
	.thumb
	.thumb_func
	.fpu softvfp
	.type	IsInFreeQueue, %function
IsInFreeQueue:
.LFB245:
	.loc 2 163 0
	.cfi_startproc
	@ args = 0, pretend = 0, frame = 0
	@ frame_needed = 0, uses_anonymous_args = 0
.LVL90:
.LBB189:
.LBB190:
	.loc 2 94 0
	ldr	r3, .L91
.LBE190:
.LBE189:
	.loc 2 163 0
	push	{r4, r5, lr}
	.cfi_def_cfa_offset 12
	.cfi_offset 4, -12
	.cfi_offset 5, -8
	.cfi_offset 14, -4
.LBB192:
.LBB191:
	.loc 2 94 0
	ldrh	r4, [r3, #6]
.LBE191:
.LBE192:
	.loc 2 168 0
	cmp	r4, #1024
	beq	.L89
	.loc 2 171 0
	ldrh	r5, [r3, #2]
	movs	r1, #0
.L87:
.LVL91:
	.loc 2 170 0 discriminator 1
	cmp	r1, r4
	bcc	.L88
.LVL92:
.L89:
	.loc 2 164 0
	movs	r0, #0
.LVL93:
	pop	{r4, r5, pc}
.LVL94:
.L88:
	.loc 2 171 0
	adds	r2, r1, r5
	ubfx	r2, r2, #0, #10
	adds	r2, r2, #4
	ldrh	r2, [r3, r2, lsl #1]
	cmp	r2, r0
	beq	.L90
	.loc 2 170 0 discriminator 2
	adds	r1, r1, #1
.LVL95:
	b	.L87
.L90:
	.loc 2 172 0
	movs	r0, #1
.LVL96:
	.loc 2 178 0
	pop	{r4, r5, pc}
.L92:
	.align	2
.L91:
	.word	.LANCHOR38
	.cfi_endproc
.LFE245:
	.size	IsInFreeQueue, .-IsInFreeQueue
	.section	.text.insert_data_list,"ax",%progbits
	.align	1
	.global	insert_data_list
	.syntax unified
	.thumb
	.thumb_func
	.fpu softvfp
	.type	insert_data_list, %function
insert_data_list:
.LFB249:
	.loc 2 249 0
	.cfi_startproc
	@ args = 0, pretend = 0, frame = 16
	@ frame_needed = 0, uses_anonymous_args = 0
.LVL97:
	push	{r0, r1, r2, r3, r4, r5, r6, r7, r8, r10, fp, lr}
	.cfi_def_cfa_offset 48
	.cfi_offset 4, -32
	.cfi_offset 5, -28
	.cfi_offset 6, -24
	.cfi_offset 7, -20
	.cfi_offset 8, -16
	.cfi_offset 10, -12
	.cfi_offset 11, -8
	.cfi_offset 14, -4
	.loc 2 260 0
	ldr	r3, .L109
	ldrh	lr, [r3]
	cmp	lr, r0
	bls	.L95
	.loc 2 265 0
	ldr	r3, .L109+4
	movs	r5, #6
	ldr	r4, [r3]
	mul	r3, r5, r0
	str	r3, [sp, #4]
	adds	r1, r4, r3
.LVL98:
	.loc 2 266 0
	ldr	r2, [sp, #4]
	movw	r3, #65535
	strh	r3, [r1, #2]	@ movhi
	strh	r3, [r4, r2]	@ movhi
	.loc 2 268 0
	ldr	r3, .L109+8
	ldr	ip, [r3]
	cmp	ip, #0
	bne	.L96
.LVL99:
.L108:
	.loc 2 317 0
	str	r1, [r3]
.LVL100:
.L95:
	.loc 2 323 0
	movs	r0, #0
.LVL101:
	add	sp, sp, #16
	.cfi_remember_state
	.cfi_def_cfa_offset 32
	@ sp needed
	pop	{r4, r5, r6, r7, r8, r10, fp, pc}
.LVL102:
.L96:
	.cfi_restore_state
	.loc 2 273 0
	ldr	r3, .L109+12
	lsls	r2, r0, #1
	ldr	r3, [r3]
	str	r3, [sp, #8]
	ldrh	r6, [r3, r0, lsl #1]
.LVL103:
	.loc 2 274 0
	ldrh	r3, [r1, #4]
.LVL104:
	.loc 2 275 0
	cbz	r3, .L106
	.loc 2 274 0
	mul	fp, r3, r6
.L97:
.LVL105:
	.loc 2 279 0
	sub	r3, ip, r4
	asrs	r6, r3, #1
.LVL106:
	ldr	r3, .L109+16
	muls	r3, r6, r3
	.loc 2 294 0
	ldr	r6, .L109+20
	ldr	r8, [r6]
	.loc 2 256 0
	movs	r6, #0
	.loc 2 279 0
	uxth	r3, r3
.LVL107:
	.loc 2 294 0
	add	r2, r8, r2
	str	r2, [sp, #12]
	mov	r2, ip
.LVL108:
.L104:
	.loc 2 281 0
	adds	r6, r6, #1
.LVL109:
	uxth	r6, r6
.LVL110:
	.loc 2 282 0
	cmp	lr, r6
	bcc	.L95
	.loc 2 285 0
	cmp	r3, r0
	beq	.L95
	.loc 2 288 0
	ldr	r7, [sp, #8]
	lsl	r10, r3, #1
	ldrh	r7, [r7, r3, lsl #1]
	mov	r5, r7
.LVL111:
	.loc 2 289 0
	ldrh	r7, [r2, #4]
.LVL112:
	.loc 2 290 0
	cbz	r7, .L107
	.loc 2 289 0
	muls	r7, r5, r7
.LVL113:
.L99:
	.loc 2 293 0
	cmp	fp, r7
	bne	.L100
	.loc 2 294 0
	ldr	r5, [sp, #12]
.LVL114:
	ldrh	r10, [r8, r10]
	ldrh	r7, [r5]
.LVL115:
	cmp	r10, r7
	bcc	.L102
.L101:
	.loc 2 312 0
	ldr	r5, [sp, #4]
	.loc 2 315 0
	cmp	r2, ip
	.loc 2 312 0
	strh	r3, [r4, r5]	@ movhi
.LVL116:
	.loc 2 313 0
	ldrh	r3, [r2, #2]
.LVL117:
	strh	r3, [r1, #2]	@ movhi
	.loc 2 315 0
	bne	.L105
	.loc 2 316 0
	strh	r0, [r2, #2]	@ movhi
	.loc 2 317 0
	ldr	r3, .L109+8
	b	.L108
.LVL118:
.L106:
	.loc 2 276 0
	mov	fp, #-1
	b	.L97
.LVL119:
.L107:
	.loc 2 291 0
	mov	r7, #-1
.LVL120:
	b	.L99
.LVL121:
.L100:
	.loc 2 298 0
	bcc	.L101
.LVL122:
.L102:
	.loc 2 301 0
	ldrh	r7, [r2]
	movw	r5, #65535
	cmp	r7, r5
	bne	.L103
	.loc 2 302 0
	strh	r3, [r1, #2]	@ movhi
.LVL123:
	.loc 2 303 0
	strh	r0, [r2]	@ movhi
	.loc 2 304 0
	ldr	r3, .L109+24
.LVL124:
	b	.L108
.LVL125:
.L103:
	.loc 2 309 0
	movs	r3, #6
.LVL126:
	mla	r2, r3, r7, r4
.LVL127:
	.loc 2 281 0
	mov	r3, r7
	b	.L104
.LVL128:
.L105:
	.loc 2 319 0
	ldrh	r1, [r2, #2]
.LVL129:
	movs	r3, #6
	muls	r3, r1, r3
	strh	r0, [r4, r3]	@ movhi
.LVL130:
	.loc 2 320 0
	strh	r0, [r2, #2]	@ movhi
	b	.L95
.L110:
	.align	2
.L109:
	.word	.LANCHOR5
	.word	.LANCHOR40
	.word	.LANCHOR41
	.word	.LANCHOR42
	.word	-1431655765
	.word	.LANCHOR43
	.word	.LANCHOR44
	.cfi_endproc
.LFE249:
	.size	insert_data_list, .-insert_data_list
	.section	.text.INSERT_DATA_LIST,"ax",%progbits
	.align	1
	.global	INSERT_DATA_LIST
	.syntax unified
	.thumb
	.thumb_func
	.fpu softvfp
	.type	INSERT_DATA_LIST, %function
INSERT_DATA_LIST:
.LFB248:
	.loc 2 218 0
	.cfi_startproc
	@ args = 0, pretend = 0, frame = 0
	@ frame_needed = 0, uses_anonymous_args = 0
.LVL131:
	push	{r3, lr}
	.cfi_def_cfa_offset 8
	.cfi_offset 3, -8
	.cfi_offset 14, -4
	.loc 2 219 0
	bl	insert_data_list
.LVL132:
	.loc 2 220 0
	ldr	r2, .L113
	ldrh	r3, [r2]
	adds	r3, r3, #1
	uxth	r3, r3
	strh	r3, [r2]	@ movhi
	.loc 2 221 0
	ldr	r2, .L113+4
	ldrh	r2, [r2]
	cmp	r2, r3
	bcs	.L111
.LVL133:
.LBB195:
.LBB196:
	movs	r2, #221
	ldr	r1, .L113+8
	ldr	r0, .L113+12
.LBE196:
.LBE195:
	.loc 2 222 0
	pop	{r3, lr}
	.cfi_remember_state
	.cfi_restore 14
	.cfi_restore 3
	.cfi_def_cfa_offset 0
.LBB198:
.LBB197:
	.loc 2 221 0
	b	printf
.LVL134:
.L111:
	.cfi_restore_state
	pop	{r3, pc}
.L114:
	.align	2
.L113:
	.word	.LANCHOR45
	.word	.LANCHOR5
	.word	.LANCHOR46
	.word	.LC1
.LBE197:
.LBE198:
	.cfi_endproc
.LFE248:
	.size	INSERT_DATA_LIST, .-INSERT_DATA_LIST
	.section	.text.insert_free_list,"ax",%progbits
	.align	1
	.global	insert_free_list
	.syntax unified
	.thumb
	.thumb_func
	.fpu softvfp
	.type	insert_free_list, %function
insert_free_list:
.LFB250:
	.loc 2 326 0
	.cfi_startproc
	@ args = 0, pretend = 0, frame = 0
	@ frame_needed = 0, uses_anonymous_args = 0
.LVL135:
	.loc 2 332 0
	movw	r1, #65535
	.loc 2 326 0
	push	{r4, r5, r6, r7, r8, r10, fp, lr}
	.cfi_def_cfa_offset 32
	.cfi_offset 4, -32
	.cfi_offset 5, -28
	.cfi_offset 6, -24
	.cfi_offset 7, -20
	.cfi_offset 8, -16
	.cfi_offset 10, -12
	.cfi_offset 11, -8
	.cfi_offset 14, -4
	.loc 2 332 0
	cmp	r0, r1
	beq	.L116
	.loc 2 335 0
	ldr	r3, .L122
	mov	r10, #6
	mul	r7, r10, r0
	ldr	r4, [r3]
	.loc 2 338 0
	ldr	r3, .L122+4
	.loc 2 335 0
	adds	r5, r4, r7
.LVL136:
	.loc 2 338 0
	ldr	r6, [r3]
	mov	lr, r3
	.loc 2 336 0
	strh	r1, [r5, #2]	@ movhi
	strh	r1, [r4, r7]	@ movhi
	.loc 2 338 0
	cbnz	r6, .L117
	.loc 2 339 0
	str	r5, [r3]
.LVL137:
.L116:
	.loc 2 372 0
	movs	r0, #0
.LVL138:
	pop	{r4, r5, r6, r7, r8, r10, fp, pc}
.LVL139:
.L117:
	.loc 2 343 0
	ldr	r3, .L122+8
	.loc 2 345 0
	subs	r2, r6, r4
	.loc 2 352 0
	mov	fp, r1
	.loc 2 343 0
	ldr	ip, [r3]
	.loc 2 345 0
	asrs	r3, r2, #1
	ldr	r2, .L122+12
	.loc 2 343 0
	ldrh	r8, [ip, r0, lsl #1]
.LVL140:
	.loc 2 345 0
	muls	r2, r3, r2
	mov	r3, r6
	uxth	r2, r2
.LVL141:
.L120:
	.loc 2 349 0
	ldrh	r1, [ip, r2, lsl #1]
	cmp	r1, r8
	bcs	.L118
	.loc 2 352 0
	ldrh	r1, [r3]
	cmp	r1, fp
	bne	.L119
	.loc 2 353 0
	strh	r2, [r5, #2]	@ movhi
.LVL142:
	.loc 2 354 0
	strh	r0, [r3]	@ movhi
	.loc 2 355 0
	b	.L116
.LVL143:
.L119:
	.loc 2 358 0
	mla	r3, r10, r1, r4
.LVL144:
	.loc 2 348 0
	mov	r2, r1
.LVL145:
	b	.L120
.LVL146:
.L118:
	.loc 2 361 0
	ldrh	r1, [r3, #2]
	.loc 2 364 0
	cmp	r3, r6
	.loc 2 361 0
	strh	r1, [r5, #2]	@ movhi
.LVL147:
	.loc 2 368 0
	it	ne
	ldrhne	r1, [r3, #2]
	.loc 2 362 0
	strh	r2, [r4, r7]	@ movhi
	.loc 2 368 0
	iteet	ne
	movne	r2, #6
.LVL148:
	.loc 2 365 0
	strheq	r0, [r3, #2]	@ movhi
	.loc 2 366 0
	streq	r5, [lr]
	.loc 2 368 0
	mulne	r2, r2, r1
	itt	ne
	strhne	r0, [r4, r2]	@ movhi
.LVL149:
	.loc 2 369 0
	strhne	r0, [r3, #2]	@ movhi
	b	.L116
.L123:
	.align	2
.L122:
	.word	.LANCHOR40
	.word	.LANCHOR47
	.word	.LANCHOR43
	.word	-1431655765
	.cfi_endproc
.LFE250:
	.size	insert_free_list, .-insert_free_list
	.section	.text.INSERT_FREE_LIST,"ax",%progbits
	.align	1
	.global	INSERT_FREE_LIST
	.syntax unified
	.thumb
	.thumb_func
	.fpu softvfp
	.type	INSERT_FREE_LIST, %function
INSERT_FREE_LIST:
.LFB247:
	.loc 2 211 0
	.cfi_startproc
	@ args = 0, pretend = 0, frame = 0
	@ frame_needed = 0, uses_anonymous_args = 0
.LVL150:
	push	{r3, lr}
	.cfi_def_cfa_offset 8
	.cfi_offset 3, -8
	.cfi_offset 14, -4
	.loc 2 212 0
	bl	insert_free_list
.LVL151:
	.loc 2 213 0
	ldr	r2, .L126
	ldrh	r3, [r2]
	adds	r3, r3, #1
	uxth	r3, r3
	strh	r3, [r2]	@ movhi
	.loc 2 214 0
	ldr	r2, .L126+4
	ldrh	r2, [r2]
	cmp	r2, r3
	bcs	.L124
.LVL152:
.LBB201:
.LBB202:
	movs	r2, #214
	ldr	r1, .L126+8
	ldr	r0, .L126+12
.LBE202:
.LBE201:
	.loc 2 215 0
	pop	{r3, lr}
	.cfi_remember_state
	.cfi_restore 14
	.cfi_restore 3
	.cfi_def_cfa_offset 0
.LBB204:
.LBB203:
	.loc 2 214 0
	b	printf
.LVL153:
.L124:
	.cfi_restore_state
	pop	{r3, pc}
.L127:
	.align	2
.L126:
	.word	.LANCHOR48
	.word	.LANCHOR5
	.word	.LANCHOR49
	.word	.LC1
.LBE203:
.LBE204:
	.cfi_endproc
.LFE247:
	.size	INSERT_FREE_LIST, .-INSERT_FREE_LIST
	.section	.text.List_remove_node,"ax",%progbits
	.align	1
	.global	List_remove_node
	.syntax unified
	.thumb
	.thumb_func
	.fpu softvfp
	.type	List_remove_node, %function
List_remove_node:
.LFB251:
	.loc 2 375 0
	.cfi_startproc
	@ args = 0, pretend = 0, frame = 0
	@ frame_needed = 0, uses_anonymous_args = 0
.LVL154:
	push	{r4, r5, r6, r7, r8, lr}
	.cfi_def_cfa_offset 24
	.cfi_offset 4, -24
	.cfi_offset 5, -20
	.cfi_offset 6, -16
	.cfi_offset 7, -12
	.cfi_offset 8, -8
	.cfi_offset 14, -4
	.loc 2 378 0
	movs	r6, #6
	ldr	r5, .L134
	muls	r6, r1, r6
	.loc 2 379 0
	movw	r3, #65535
	.loc 2 375 0
	mov	r8, r0
	.loc 2 378 0
	ldr	r7, [r5]
	adds	r4, r7, r6
.LVL155:
	.loc 2 379 0
	ldrh	r2, [r4, #2]
	cmp	r2, r3
	bne	.L129
	.loc 2 379 0 is_stmt 0 discriminator 1
	ldr	r3, [r0]
	cmp	r4, r3
	beq	.L129
	.loc 2 379 0 discriminator 2
	movw	r2, #379
	ldr	r1, .L134+4
.LVL156:
	ldr	r0, .L134+8
.LVL157:
	bl	printf
.LVL158:
.L129:
	.loc 2 381 0 is_stmt 1
	ldr	r3, [r8]
	movw	r1, #65535
	cmp	r4, r3
	ldrh	r3, [r7, r6]
	bne	.L130
	.loc 2 382 0
	cmp	r3, r1
	.loc 2 385 0
	ittee	ne
	ldrne	r0, [r5]
	movne	r2, #6
	.loc 2 383 0
	moveq	r3, #0
	streq	r3, [r8]
	.loc 2 385 0
	ittt	ne
	mlane	r3, r2, r3, r0
	strne	r3, [r8]
	.loc 2 386 0
	strhne	r1, [r3, #2]	@ movhi
.L132:
	.loc 2 399 0
	movw	r3, #65535
	.loc 2 401 0
	movs	r0, #0
	.loc 2 399 0
	strh	r3, [r7, r6]	@ movhi
	strh	r3, [r4, #2]	@ movhi
	.loc 2 401 0
	pop	{r4, r5, r6, r7, r8, pc}
.LVL159:
.L130:
	.loc 2 388 0
	cmp	r3, r1
	ldrh	r1, [r4, #2]
	bne	.L133
	.loc 2 389 0
	cmp	r1, r3
	beq	.L132
.LVL160:
	.loc 2 391 0
	movs	r2, #6
	ldr	r0, [r5]
	muls	r1, r2, r1
.LVL161:
	strh	r3, [r0, r1]	@ movhi
	b	.L132
.LVL162:
.L133:
	.loc 2 394 0
	ldr	r0, [r5]
.LVL163:
	.loc 2 395 0
	movs	r2, #6
	mla	r5, r2, r3, r0
	strh	r1, [r5, #2]	@ movhi
.LVL164:
	.loc 2 396 0
	ldrh	r1, [r4, #2]
	.loc 2 397 0
	muls	r2, r1, r2
	strh	r3, [r0, r2]	@ movhi
	b	.L132
.L135:
	.align	2
.L134:
	.word	.LANCHOR40
	.word	.LANCHOR50
	.word	.LC1
	.cfi_endproc
.LFE251:
	.size	List_remove_node, .-List_remove_node
	.section	.text.List_pop_index_node,"ax",%progbits
	.align	1
	.global	List_pop_index_node
	.syntax unified
	.thumb
	.thumb_func
	.fpu softvfp
	.type	List_pop_index_node, %function
List_pop_index_node:
.LFB252:
	.loc 2 404 0
	.cfi_startproc
	@ args = 0, pretend = 0, frame = 0
	@ frame_needed = 0, uses_anonymous_args = 0
.LVL165:
	.loc 2 408 0
	ldr	r3, [r0]
	.loc 2 404 0
	push	{r4, r5, r6, lr}
	.cfi_def_cfa_offset 16
	.cfi_offset 4, -16
	.cfi_offset 5, -12
	.cfi_offset 6, -8
	.cfi_offset 14, -4
	.loc 2 408 0
	cbz	r3, .L142
	.loc 2 413 0
	ldr	r2, .L143
	.loc 2 412 0
	movw	r5, #65535
	.loc 2 413 0
	movs	r6, #6
	ldr	r2, [r2]
.L138:
.LVL166:
	.loc 2 412 0
	cbnz	r1, .L139
.L141:
	.loc 2 416 0
	ldr	r4, .L143+4
	subs	r3, r3, r2
.LVL167:
	asrs	r3, r3, #1
	muls	r4, r3, r4
.LVL168:
	.loc 2 417 0
	uxth	r1, r4
.LVL169:
	bl	List_remove_node
.LVL170:
	uxth	r0, r4
	.loc 2 419 0
	pop	{r4, r5, r6, pc}
.LVL171:
.L139:
	.loc 2 412 0 discriminator 1
	ldrh	r4, [r3]
	cmp	r4, r5
	beq	.L141
	.loc 2 414 0
	subs	r1, r1, #1
.LVL172:
	.loc 2 413 0
	mla	r3, r6, r4, r2
.LVL173:
	.loc 2 414 0
	uxth	r1, r1
.LVL174:
	b	.L138
.LVL175:
.L142:
	.loc 2 409 0
	movw	r0, #65535
.LVL176:
	.loc 2 420 0
	pop	{r4, r5, r6, pc}
.L144:
	.align	2
.L143:
	.word	.LANCHOR40
	.word	-1431655765
	.cfi_endproc
.LFE252:
	.size	List_pop_index_node, .-List_pop_index_node
	.section	.text.List_pop_head_node,"ax",%progbits
	.align	1
	.global	List_pop_head_node
	.syntax unified
	.thumb
	.thumb_func
	.fpu softvfp
	.type	List_pop_head_node, %function
List_pop_head_node:
.LFB253:
	.loc 2 423 0
	.cfi_startproc
	@ args = 0, pretend = 0, frame = 0
	@ frame_needed = 0, uses_anonymous_args = 0
	@ link register save eliminated.
.LVL177:
	.loc 2 424 0
	movs	r1, #0
	b	List_pop_index_node
.LVL178:
	.cfi_endproc
.LFE253:
	.size	List_pop_head_node, .-List_pop_head_node
	.section	.text.List_get_gc_head_node,"ax",%progbits
	.align	1
	.global	List_get_gc_head_node
	.syntax unified
	.thumb
	.thumb_func
	.fpu softvfp
	.type	List_get_gc_head_node, %function
List_get_gc_head_node:
.LFB254:
	.loc 2 428 0
	.cfi_startproc
	@ args = 0, pretend = 0, frame = 0
	@ frame_needed = 0, uses_anonymous_args = 0
.LVL179:
	.loc 2 432 0
	ldr	r3, .L152
	.loc 2 428 0
	push	{r4, lr}
	.cfi_def_cfa_offset 8
	.cfi_offset 4, -8
	.cfi_offset 14, -4
	.loc 2 432 0
	ldr	r3, [r3]
	cbz	r3, .L151
	.loc 2 437 0
	ldr	r2, .L152+4
	movs	r4, #6
	ldr	r1, [r2]
	.loc 2 436 0
	movw	r2, #65535
.L148:
.LVL180:
	cbz	r0, .L149
	.loc 2 436 0 is_stmt 0 discriminator 1
	ldrh	r3, [r3]
.LVL181:
	cmp	r3, r2
	bne	.L150
.L151:
	.loc 2 433 0 is_stmt 1
	movw	r0, #65535
.LVL182:
	pop	{r4, pc}
.LVL183:
.L150:
	.loc 2 438 0
	subs	r0, r0, #1
.LVL184:
	.loc 2 437 0
	mla	r3, r4, r3, r1
.LVL185:
	.loc 2 438 0
	uxth	r0, r0
.LVL186:
	b	.L148
.L149:
.LVL187:
	.loc 2 442 0
	ldr	r0, .L152+8
.LVL188:
	subs	r3, r3, r1
.LVL189:
	asrs	r3, r3, #1
	muls	r3, r0, r3
	uxth	r0, r3
	.loc 2 445 0
	pop	{r4, pc}
.L153:
	.align	2
.L152:
	.word	.LANCHOR41
	.word	.LANCHOR40
	.word	-1431655765
	.cfi_endproc
.LFE254:
	.size	List_get_gc_head_node, .-List_get_gc_head_node
	.section	.text.List_update_data_list,"ax",%progbits
	.align	1
	.global	List_update_data_list
	.syntax unified
	.thumb
	.thumb_func
	.fpu softvfp
	.type	List_update_data_list, %function
List_update_data_list:
.LFB255:
	.loc 2 448 0
	.cfi_startproc
	@ args = 0, pretend = 0, frame = 0
	@ frame_needed = 0, uses_anonymous_args = 0
.LVL190:
	.loc 2 457 0
	ldr	r3, .L165
	.loc 2 448 0
	push	{r4, r5, r6, r7, r8, r10, fp, lr}
	.cfi_def_cfa_offset 32
	.cfi_offset 4, -32
	.cfi_offset 5, -28
	.cfi_offset 6, -24
	.cfi_offset 7, -20
	.cfi_offset 8, -16
	.cfi_offset 10, -12
	.cfi_offset 11, -8
	.cfi_offset 14, -4
	.loc 2 448 0
	mov	r4, r0
	.loc 2 457 0
	ldrh	r3, [r3]
	cmp	r3, r0
	beq	.L156
	.loc 2 457 0 is_stmt 0 discriminator 1
	ldr	r3, .L165+4
	ldrh	r3, [r3]
	cmp	r3, r0
	beq	.L156
	.loc 2 457 0 discriminator 2
	ldr	r3, .L165+8
	ldrh	r3, [r3]
	cmp	r3, r0
	beq	.L156
.LVL191:
.LBB207:
.LBB208:
	.loc 2 460 0 is_stmt 1
	ldr	r7, .L165+12
	movs	r6, #6
	.loc 2 462 0
	ldr	r3, .L165+16
	.loc 2 460 0
	muls	r6, r0, r6
	ldr	fp, [r7]
	.loc 2 462 0
	ldr	r3, [r3]
	.loc 2 460 0
	add	r10, fp, r6
.LVL192:
	.loc 2 462 0
	cmp	r10, r3
	beq	.L156
	.loc 2 465 0
	ldr	r3, .L165+20
	.loc 2 466 0
	ldrh	r5, [r10, #4]
	.loc 2 465 0
	ldr	r2, [r3]
	mov	r8, r3
	ldrh	r2, [r2, r0, lsl #1]
.LVL193:
	.loc 2 467 0
	cmp	r5, #0
	beq	.L163
	.loc 2 466 0
	muls	r5, r2, r5
.LVL194:
.L158:
	.loc 2 470 0
	ldrh	r3, [r10, #2]
	movw	r2, #65535
.LVL195:
	cmp	r3, r2
	bne	.L159
	ldrh	r2, [fp, r6]
	cmp	r2, r3
	bne	.L159
	mov	r2, #470
	ldr	r1, .L165+24
	ldr	r0, .L165+28
.LVL196:
	bl	printf
.LVL197:
.L159:
	.loc 2 471 0
	ldrh	r3, [r10, #2]
	movw	r2, #65535
	cmp	r3, r2
	bne	.L160
	ldrh	r2, [fp, r6]
	cmp	r2, r3
	beq	.L156
.L160:
	.loc 2 473 0
	movs	r2, #6
	muls	r2, r3, r2
.LVL198:
	.loc 2 474 0
	ldr	r3, .L165+32
	asrs	r1, r2, #1
	muls	r3, r1, r3
	.loc 2 475 0
	ldr	r1, [r8]
	ldrh	r0, [r1, r3, lsl #1]
.LVL199:
	.loc 2 476 0
	ldr	r1, [r7]
	add	r2, r2, r1
.LVL200:
	ldrh	r3, [r2, #4]
.LVL201:
	.loc 2 477 0
	cbz	r3, .L164
	.loc 2 476 0
	muls	r3, r0, r3
.LVL202:
.L161:
	.loc 2 480 0
	cmp	r5, r3
	bcs	.L156
	.loc 2 481 0
	ldr	r5, .L165+36
.LVL203:
	mov	r1, r4
	ldr	r0, .L165+16
.LVL204:
	bl	List_remove_node
.LVL205:
	ldrh	r3, [r5]
	cbnz	r3, .L162
	movw	r2, #481
	ldr	r1, .L165+24
	ldr	r0, .L165+28
	bl	printf
.LVL206:
.L162:
	ldrh	r3, [r5]
	.loc 2 482 0
	mov	r0, r4
	.loc 2 481 0
	subs	r3, r3, #1
	strh	r3, [r5]	@ movhi
	.loc 2 482 0
	bl	INSERT_DATA_LIST
.LVL207:
.L156:
.LBE208:
.LBE207:
	.loc 2 485 0
	movs	r0, #0
	pop	{r4, r5, r6, r7, r8, r10, fp, pc}
.LVL208:
.L163:
.LBB210:
.LBB209:
	.loc 2 468 0
	mov	r5, #-1
.LVL209:
	b	.L158
.LVL210:
.L164:
	.loc 2 478 0
	mov	r3, #-1
.LVL211:
	b	.L161
.L166:
	.align	2
.L165:
	.word	.LANCHOR51
	.word	.LANCHOR52
	.word	.LANCHOR53
	.word	.LANCHOR40
	.word	.LANCHOR41
	.word	.LANCHOR42
	.word	.LANCHOR54
	.word	.LC1
	.word	-1431655765
	.word	.LANCHOR45
.LBE209:
.LBE210:
	.cfi_endproc
.LFE255:
	.size	List_update_data_list, .-List_update_data_list
	.section	.text.select_l2p_ram_region,"ax",%progbits
	.align	1
	.global	select_l2p_ram_region
	.syntax unified
	.thumb
	.thumb_func
	.fpu softvfp
	.type	select_l2p_ram_region, %function
select_l2p_ram_region:
.LFB263:
	.loc 2 749 0
	.cfi_startproc
	@ args = 0, pretend = 0, frame = 0
	@ frame_needed = 0, uses_anonymous_args = 0
.LVL212:
	push	{r3, r4, r5, r6, r7, lr}
	.cfi_def_cfa_offset 24
	.cfi_offset 3, -24
	.cfi_offset 4, -20
	.cfi_offset 5, -16
	.cfi_offset 6, -12
	.cfi_offset 7, -8
	.cfi_offset 14, -4
	.loc 2 754 0
	movs	r1, #0
	ldr	r3, .L177
	.loc 2 755 0
	movs	r0, #12
	movw	r5, #65535
	.loc 2 754 0
	ldrh	r2, [r3]
	.loc 2 755 0
	ldr	r3, .L177+4
	ldr	r3, [r3]
.LVL213:
.L168:
	uxth	r4, r1
.LVL214:
	.loc 2 754 0 discriminator 1
	cmp	r4, r2
	bcc	.L170
	mov	r4, r2
.LVL215:
	movs	r1, #0
.LVL216:
	mov	r6, #-2147483648
	.loc 2 765 0
	movs	r7, #12
.L171:
	uxth	r5, r1
.LVL217:
	.loc 2 764 0 discriminator 1
	cmp	r5, r2
	bcc	.L173
	.loc 2 773 0
	cmp	r4, r2
	bcc	.L169
	.loc 2 779 0
	ldr	r1, .L177+8
	mov	r4, r2
	mov	r0, #-1
	ldrh	r7, [r1]
	movs	r1, #0
.LVL218:
.L174:
	uxth	r5, r1
.LVL219:
	.loc 2 778 0 discriminator 1
	cmp	r5, r2
	bcc	.L176
	.loc 2 784 0
	cmp	r4, r2
	bcc	.L169
	.loc 2 784 0 is_stmt 0 discriminator 1
	mov	r2, #784
	ldr	r1, .L177+12
	ldr	r0, .L177+16
.LVL220:
	bl	printf
.LVL221:
	b	.L169
.LVL222:
.L170:
	adds	r1, r1, #1
	.loc 2 755 0 is_stmt 1
	mla	r6, r0, r1, r3
	ldrh	r6, [r6, #-12]
	cmp	r6, r5
	bne	.L168
.LVL223:
.L169:
	.loc 2 786 0
	mov	r0, r4
	pop	{r3, r4, r5, r6, r7, pc}
.LVL224:
.L173:
	.loc 2 765 0
	mla	r0, r7, r1, r3
	ldr	r0, [r0, #4]
	cmp	r0, #0
	blt	.L172
	.loc 2 766 0
	cmp	r6, r0
	itt	hi
	movhi	r6, r0
.LVL225:
	movhi	r4, r5
.L172:
.LVL226:
	adds	r1, r1, #1
.LVL227:
	b	.L171
.LVL228:
.L176:
	.loc 2 779 0
	ldr	r6, [r3, #4]
	cmp	r0, r6
	bls	.L175
	.loc 2 779 0 is_stmt 0 discriminator 1
	ldrh	ip, [r3]
	cmp	ip, r7
	itt	ne
	movne	r0, r6
.LVL229:
	movne	r4, r5
.LVL230:
.L175:
	adds	r1, r1, #1
.LVL231:
	adds	r3, r3, #12
	b	.L174
.L178:
	.align	2
.L177:
	.word	.LANCHOR33
	.word	.LANCHOR55
	.word	.LANCHOR56
	.word	.LANCHOR57
	.word	.LC1
	.cfi_endproc
.LFE263:
	.size	select_l2p_ram_region, .-select_l2p_ram_region
	.section	.text.FtlUpdateVaildLpn,"ax",%progbits
	.align	1
	.global	FtlUpdateVaildLpn
	.syntax unified
	.thumb
	.thumb_func
	.fpu softvfp
	.type	FtlUpdateVaildLpn, %function
FtlUpdateVaildLpn:
.LFB269:
	.loc 2 931 0 is_stmt 1
	.cfi_startproc
	@ args = 0, pretend = 0, frame = 0
	@ frame_needed = 0, uses_anonymous_args = 0
.LVL232:
	.loc 2 934 0
	ldr	r2, .L189
	.loc 2 931 0
	push	{r4, r5, r6, lr}
	.cfi_def_cfa_offset 16
	.cfi_offset 4, -16
	.cfi_offset 5, -12
	.cfi_offset 6, -8
	.cfi_offset 14, -4
	mov	r1, r2
	.loc 2 934 0
	ldrh	r3, [r2]
	cmp	r3, #4
	bhi	.L180
	.loc 2 934 0 is_stmt 0 discriminator 1
	cbnz	r0, .L180
	.loc 2 934 0
	adds	r3, r3, #1
	strh	r3, [r2]	@ movhi
	.loc 2 943 0 is_stmt 1
	pop	{r4, r5, r6, pc}
.L180:
	.loc 2 935 0
	movs	r3, #0
.LBB213:
.LBB214:
	.loc 2 937 0
	ldr	r0, .L189+4
.LVL233:
.LBE214:
.LBE213:
	.loc 2 935 0
	strh	r3, [r1]	@ movhi
.LBB218:
.LBB215:
	.loc 2 939 0
	movw	r6, #65535
	ldr	r1, .L189+8
	ldrh	r4, [r0]
	mov	r0, r3
.LBE215:
.LBE218:
	.loc 2 936 0
	ldr	r2, .L189+12
.LBB219:
.LBB216:
	.loc 2 939 0
	ldr	r1, [r1]
.LBE216:
.LBE219:
	.loc 2 936 0
	str	r3, [r2]
.LVL234:
	add	r4, r1, r4, lsl #1
.L181:
.LBB220:
.LBB217:
	.loc 2 937 0
	cmp	r1, r4
	bne	.L183
	cbz	r3, .L179
	str	r0, [r2]
.L179:
	pop	{r4, r5, r6, pc}
.L183:
	.loc 2 939 0
	ldrh	r5, [r1], #2
	cmp	r5, r6
	.loc 2 940 0
	itt	ne
	addne	r0, r0, r5
	movne	r3, #1
	b	.L181
.L190:
	.align	2
.L189:
	.word	.LANCHOR58
	.word	.LANCHOR5
	.word	.LANCHOR42
	.word	.LANCHOR59
.LBE217:
.LBE220:
	.cfi_endproc
.LFE269:
	.size	FtlUpdateVaildLpn, .-FtlUpdateVaildLpn
	.section	.text.ftl_set_blk_mode,"ax",%progbits
	.align	1
	.global	ftl_set_blk_mode
	.syntax unified
	.thumb
	.thumb_func
	.fpu softvfp
	.type	ftl_set_blk_mode, %function
ftl_set_blk_mode:
.LFB275:
	.loc 2 1396 0
	.cfi_startproc
	@ args = 0, pretend = 0, frame = 0
	@ frame_needed = 0, uses_anonymous_args = 0
	@ link register save eliminated.
.LVL235:
	.loc 2 1396 0
	mov	r3, r0
	.loc 2 1397 0
	cbz	r1, .L192
	b	ftl_set_blk_mode.part.6
.LVL236:
.L192:
	.loc 2 1400 0
	ldr	r2, .L193
	lsrs	r0, r0, #5
.LVL237:
	and	r3, r3, #31
	ldr	r1, [r2]
.LVL238:
	movs	r2, #1
	lsl	r3, r2, r3
	ldr	r2, [r1, r0, lsl #2]
	bic	r2, r2, r3
	str	r2, [r1, r0, lsl #2]
	bx	lr
.L194:
	.align	2
.L193:
	.word	.LANCHOR1
	.cfi_endproc
.LFE275:
	.size	ftl_set_blk_mode, .-ftl_set_blk_mode
	.section	.text.ftl_get_blk_mode,"ax",%progbits
	.align	1
	.global	ftl_get_blk_mode
	.syntax unified
	.thumb
	.thumb_func
	.fpu softvfp
	.type	ftl_get_blk_mode, %function
ftl_get_blk_mode:
.LFB276:
	.loc 2 1404 0
	.cfi_startproc
	@ args = 0, pretend = 0, frame = 0
	@ frame_needed = 0, uses_anonymous_args = 0
	@ link register save eliminated.
.LVL239:
	.loc 2 1405 0
	ldr	r3, .L196
	lsrs	r2, r0, #5
	and	r0, r0, #31
.LVL240:
	ldr	r3, [r3]
	ldr	r3, [r3, r2, lsl #2]
	lsr	r0, r3, r0
	.loc 2 1406 0
	and	r0, r0, #1
	bx	lr
.L197:
	.align	2
.L196:
	.word	.LANCHOR1
	.cfi_endproc
.LFE276:
	.size	ftl_get_blk_mode, .-ftl_get_blk_mode
	.section	.text.ftl_sb_update_avl_pages,"ax",%progbits
	.align	1
	.global	ftl_sb_update_avl_pages
	.syntax unified
	.thumb
	.thumb_func
	.fpu softvfp
	.type	ftl_sb_update_avl_pages, %function
ftl_sb_update_avl_pages:
.LFB282:
	.loc 2 1657 0
	.cfi_startproc
	@ args = 0, pretend = 0, frame = 0
	@ frame_needed = 0, uses_anonymous_args = 0
.LVL241:
	.loc 2 1659 0
	movs	r3, #0
	.loc 2 1657 0
	push	{r4, r5, r6, lr}
	.cfi_def_cfa_offset 16
	.cfi_offset 4, -16
	.cfi_offset 5, -12
	.cfi_offset 6, -8
	.cfi_offset 14, -4
	.loc 2 1659 0
	strh	r3, [r0, #4]	@ movhi
.LVL242:
	.loc 2 1662 0
	movw	r6, #65535
	.loc 2 1660 0
	ldr	r3, .L205
	ldrh	r4, [r3]
	add	r3, r0, r2, lsl #1
	adds	r3, r3, #14
.LVL243:
.L199:
	.loc 2 1660 0 is_stmt 0 discriminator 1
	cmp	r2, r4
	bcc	.L201
	.loc 2 1671 0 is_stmt 1
	ldr	r3, .L205+4
	add	r5, r0, #16
	.loc 2 1669 0
	movw	r6, #65535
	ldrh	r3, [r3]
	subs	r3, r3, #1
	subs	r1, r3, r1
.LVL244:
	.loc 2 1671 0
	movs	r3, #0
	uxth	r1, r1
.LVL245:
.L202:
	.loc 2 1667 0 discriminator 1
	uxth	r2, r3
	cmp	r4, r2
	bhi	.L204
	.loc 2 1674 0
	pop	{r4, r5, r6, pc}
.LVL246:
.L201:
	.loc 2 1662 0
	ldrh	r5, [r3, #2]!
	.loc 2 1660 0
	adds	r2, r2, #1
.LVL247:
	uxth	r2, r2
.LVL248:
	.loc 2 1662 0
	cmp	r5, r6
	.loc 2 1664 0
	ittt	ne
	ldrhne	r5, [r0, #4]
	addne	r5, r5, #1
	strhne	r5, [r0, #4]	@ movhi
	b	.L199
.LVL249:
.L204:
	.loc 2 1669 0
	ldrh	r2, [r5], #2
	adds	r3, r3, #1
.LVL250:
	cmp	r2, r6
	.loc 2 1671 0
	ittt	ne
	ldrhne	r2, [r0, #4]
	addne	r2, r2, r1
	strhne	r2, [r0, #4]	@ movhi
	b	.L202
.L206:
	.align	2
.L205:
	.word	.LANCHOR3
	.word	.LANCHOR19
	.cfi_endproc
.LFE282:
	.size	ftl_sb_update_avl_pages, .-ftl_sb_update_avl_pages
	.section	.text.FtlSlcSuperblockCheck,"ax",%progbits
	.align	1
	.global	FtlSlcSuperblockCheck
	.syntax unified
	.thumb
	.thumb_func
	.fpu softvfp
	.type	FtlSlcSuperblockCheck, %function
FtlSlcSuperblockCheck:
.LFB285:
	.loc 2 2062 0
	.cfi_startproc
	@ args = 0, pretend = 0, frame = 0
	@ frame_needed = 0, uses_anonymous_args = 0
.LVL251:
	.loc 2 2065 0
	ldrh	r3, [r0, #4]
	.loc 2 2062 0
	push	{r4, r5, lr}
	.cfi_def_cfa_offset 12
	.cfi_offset 4, -12
	.cfi_offset 5, -8
	.cfi_offset 14, -4
	.loc 2 2065 0
	cbz	r3, .L207
	.loc 2 2067 0
	ldrh	r2, [r0]
	movw	r3, #65535
	cmp	r2, r3
	beq	.L207
.LVL252:
.LBB223:
.LBB224:
	.loc 2 2069 0
	ldrb	r2, [r0, #6]	@ zero_extendqisi2
	.loc 2 2074 0
	movs	r5, #0
	.loc 2 2069 0
	adds	r2, r2, #8
	ldrh	r1, [r0, r2, lsl #1]
.LVL253:
	.loc 2 2072 0
	ldr	r2, .L213
	ldrh	r4, [r2]
	.loc 2 2070 0
	mov	r2, r3
.L210:
	cmp	r1, r2
	beq	.L212
.LVL254:
.L207:
	pop	{r4, r5, pc}
.LVL255:
.L212:
	.loc 2 2071 0
	ldrb	r3, [r0, #6]	@ zero_extendqisi2
	adds	r3, r3, #1
	uxtb	r3, r3
	.loc 2 2072 0
	cmp	r3, r4
	.loc 2 2071 0
	strb	r3, [r0, #6]
	.loc 2 2073 0
	itttt	eq
	ldrheq	r3, [r0, #2]
	.loc 2 2074 0
	strbeq	r5, [r0, #6]
	.loc 2 2073 0
	addeq	r3, r3, #1
	strheq	r3, [r0, #2]	@ movhi
	.loc 2 2076 0
	ldrb	r3, [r0, #6]	@ zero_extendqisi2
	adds	r3, r3, #8
	ldrh	r1, [r0, r3, lsl #1]
.LVL256:
	b	.L210
.L214:
	.align	2
.L213:
	.word	.LANCHOR3
.LBE224:
.LBE223:
	.cfi_endproc
.LFE285:
	.size	FtlSlcSuperblockCheck, .-FtlSlcSuperblockCheck
	.section	.text.make_superblock,"ax",%progbits
	.align	1
	.global	make_superblock
	.syntax unified
	.thumb
	.thumb_func
	.fpu softvfp
	.type	make_superblock, %function
make_superblock:
.LFB287:
	.loc 2 2094 0
	.cfi_startproc
	@ args = 0, pretend = 0, frame = 0
	@ frame_needed = 0, uses_anonymous_args = 0
.LVL257:
	.loc 2 2097 0
	ldr	r3, .L220
	ldrh	r2, [r0]
	.loc 2 2094 0
	push	{r4, r5, r6, r7, r8, r10, fp, lr}
	.cfi_def_cfa_offset 32
	.cfi_offset 4, -32
	.cfi_offset 5, -28
	.cfi_offset 6, -24
	.cfi_offset 7, -20
	.cfi_offset 8, -16
	.cfi_offset 10, -12
	.cfi_offset 11, -8
	.cfi_offset 14, -4
	.loc 2 2094 0
	mov	r4, r0
	.loc 2 2097 0
	ldrh	r3, [r3]
	cmp	r2, r3
	bcc	.L216
	.loc 2 2097 0 is_stmt 0 discriminator 1
	movw	r2, #2097
	ldr	r1, .L220+4
	ldr	r0, .L220+8
.LVL258:
	bl	printf
.LVL259:
.L216:
	.loc 2 2100 0 is_stmt 1
	ldr	r3, .L220+12
	add	r6, r4, #16
	.loc 2 2101 0
	ldr	r10, .L220+20
	.loc 2 2102 0
	movw	r7, #65535
	.loc 2 2098 0
	movs	r5, #0
	.loc 2 2100 0
	ldrh	r8, [r3]
	.loc 2 2098 0
	strh	r5, [r4, #4]	@ movhi
	.loc 2 2099 0
	strb	r5, [r4, #7]
.LVL260:
.L217:
	.loc 2 2100 0 discriminator 1
	uxth	r3, r5
	cmp	r8, r3
	bhi	.L219
	.loc 2 2110 0
	ldr	r2, .L220+16
	.loc 2 2113 0
	movs	r0, #0
	.loc 2 2110 0
	ldrb	r3, [r4, #7]	@ zero_extendqisi2
	ldrh	r2, [r2]
	smulbb	r3, r3, r2
	strh	r3, [r4, #4]	@ movhi
	.loc 2 2111 0
	movs	r3, #1
	strb	r3, [r4, #9]
	.loc 2 2113 0
	pop	{r4, r5, r6, r7, r8, r10, fp, pc}
.LVL261:
.L219:
	.loc 2 2101 0
	ldrh	r1, [r4]
	ldrb	r0, [r10, r5]	@ zero_extendqisi2
	bl	V2P_block
.LVL262:
	.loc 2 2102 0
	strh	r7, [r6]	@ movhi
	.loc 2 2101 0
	mov	fp, r0
.LVL263:
	.loc 2 2103 0
	bl	FtlBbmIsBadBlock
.LVL264:
	cbnz	r0, .L218
	.loc 2 2104 0
	strh	fp, [r6]	@ movhi
	.loc 2 2105 0
	ldrb	r3, [r4, #7]	@ zero_extendqisi2
	adds	r3, r3, #1
	strb	r3, [r4, #7]
.L218:
.LVL265:
	adds	r5, r5, #1
.LVL266:
	adds	r6, r6, #2
	b	.L217
.L221:
	.align	2
.L220:
	.word	.LANCHOR5
	.word	.LANCHOR60
	.word	.LC1
	.word	.LANCHOR3
	.word	.LANCHOR19
	.word	.LANCHOR13
	.cfi_endproc
.LFE287:
	.size	make_superblock, .-make_superblock
	.section	.text.update_multiplier_value,"ax",%progbits
	.align	1
	.global	update_multiplier_value
	.syntax unified
	.thumb
	.thumb_func
	.fpu softvfp
	.type	update_multiplier_value, %function
update_multiplier_value:
.LFB296:
	.loc 2 2454 0
	.cfi_startproc
	@ args = 0, pretend = 0, frame = 0
	@ frame_needed = 0, uses_anonymous_args = 0
.LVL267:
	push	{r3, r4, r5, r6, r7, r8, r10, lr}
	.cfi_def_cfa_offset 32
	.cfi_offset 3, -32
	.cfi_offset 4, -28
	.cfi_offset 5, -24
	.cfi_offset 6, -20
	.cfi_offset 7, -16
	.cfi_offset 8, -12
	.cfi_offset 10, -8
	.cfi_offset 14, -4
	.loc 2 2458 0
	movs	r5, #0
	ldr	r3, .L228
	.loc 2 2454 0
	mov	r6, r0
	.loc 2 2456 0
	mov	r4, r5
	.loc 2 2459 0
	ldr	r10, .L228+12
	.loc 2 2458 0
	ldrh	r7, [r3]
	.loc 2 2461 0
	ldr	r3, .L228+4
	ldrh	r8, [r3]
.LVL268:
.L223:
	.loc 2 2458 0 discriminator 1
	uxth	r3, r5
	cmp	r7, r3
	bhi	.L225
	.loc 2 2463 0
	cbz	r4, .L227
	.loc 2 2464 0
	mov	r1, r4
	mov	r0, #32768
	bl	__aeabi_idiv
.LVL269:
.L226:
	.loc 2 2465 0
	ldr	r3, .L228+8
	movs	r2, #6
	ldr	r3, [r3]
	mla	r6, r2, r6, r3
	strh	r0, [r6, #4]	@ movhi
	.loc 2 2467 0
	movs	r0, #0
.LVL270:
	pop	{r3, r4, r5, r6, r7, r8, r10, pc}
.LVL271:
.L225:
	.loc 2 2459 0
	mov	r1, r6
	ldrb	r0, [r10, r5]	@ zero_extendqisi2
	bl	V2P_block
.LVL272:
	.loc 2 2460 0
	bl	FtlBbmIsBadBlock
.LVL273:
	cbnz	r0, .L224
	.loc 2 2461 0
	add	r4, r4, r8
.LVL274:
	uxth	r4, r4
.LVL275:
.L224:
	adds	r5, r5, #1
.LVL276:
	b	.L223
.LVL277:
.L227:
	mov	r0, r4
	b	.L226
.L229:
	.align	2
.L228:
	.word	.LANCHOR3
	.word	.LANCHOR19
	.word	.LANCHOR40
	.word	.LANCHOR13
	.cfi_endproc
.LFE296:
	.size	update_multiplier_value, .-update_multiplier_value
	.section	.text.GetFreeBlockMinEraseCount,"ax",%progbits
	.align	1
	.global	GetFreeBlockMinEraseCount
	.syntax unified
	.thumb
	.thumb_func
	.fpu softvfp
	.type	GetFreeBlockMinEraseCount, %function
GetFreeBlockMinEraseCount:
.LFB297:
	.loc 2 2470 0
	.cfi_startproc
	@ args = 0, pretend = 0, frame = 0
	@ frame_needed = 0, uses_anonymous_args = 0
	@ link register save eliminated.
.LVL278:
	.loc 2 2473 0
	ldr	r3, .L233
	ldr	r0, [r3]
	cbz	r0, .L231
	.loc 2 2474 0
	ldr	r3, .L233+4
	ldr	r3, [r3]
	subs	r0, r0, r3
	ldr	r3, .L233+8
	asrs	r0, r0, #1
	muls	r0, r3, r0
	ldr	r3, .L233+12
	ldr	r3, [r3]
	uxth	r0, r0
	ldrh	r0, [r3, r0, lsl #1]
.LVL279:
.L231:
	.loc 2 2476 0
	bx	lr
.L234:
	.align	2
.L233:
	.word	.LANCHOR47
	.word	.LANCHOR40
	.word	-1431655765
	.word	.LANCHOR43
	.cfi_endproc
.LFE297:
	.size	GetFreeBlockMinEraseCount, .-GetFreeBlockMinEraseCount
	.section	.text.GetFreeBlockMaxEraseCount,"ax",%progbits
	.align	1
	.global	GetFreeBlockMaxEraseCount
	.syntax unified
	.thumb
	.thumb_func
	.fpu softvfp
	.type	GetFreeBlockMaxEraseCount, %function
GetFreeBlockMaxEraseCount:
.LFB298:
	.loc 2 2479 0
	.cfi_startproc
	@ args = 0, pretend = 0, frame = 0
	@ frame_needed = 0, uses_anonymous_args = 0
.LVL280:
	.loc 2 2484 0
	ldr	r3, .L243
	.loc 2 2479 0
	push	{r4, r5, r6, lr}
	.cfi_def_cfa_offset 16
	.cfi_offset 4, -16
	.cfi_offset 5, -12
	.cfi_offset 6, -8
	.cfi_offset 14, -4
	.loc 2 2484 0
	ldr	r3, [r3]
	cbz	r3, .L241
	.loc 2 2485 0
	ldr	r2, .L243+4
	.loc 2 2489 0
	movs	r5, #6
	movw	r6, #65535
	.loc 2 2485 0
	ldrh	r2, [r2]
	rsb	r2, r2, r2, lsl #3
	asrs	r2, r2, #3
	cmp	r0, r2
	.loc 2 2486 0
	it	gt
	uxthgt	r0, r2
.LVL281:
	.loc 2 2487 0
	ldr	r2, .L243+8
	ldr	r1, [r2]
	ldr	r2, .L243+12
	subs	r3, r3, r1
	asrs	r3, r3, #1
	muls	r3, r2, r3
	.loc 2 2488 0
	movs	r2, #0
	.loc 2 2487 0
	uxth	r3, r3
.LVL282:
.L238:
	.loc 2 2488 0 discriminator 1
	uxth	r4, r2
	cmp	r0, r4
	bls	.L240
	.loc 2 2489 0
	mul	r4, r5, r3
	adds	r2, r2, #1
.LVL283:
	ldrh	r4, [r1, r4]
	cmp	r4, r6
	bne	.L242
.L240:
	.loc 2 2493 0
	ldr	r2, .L243+16
	ldr	r2, [r2]
	ldrh	r0, [r2, r3, lsl #1]
.LVL284:
	pop	{r4, r5, r6, pc}
.LVL285:
.L242:
	mov	r3, r4
.LVL286:
	b	.L238
.L241:
	.loc 2 2480 0
	mov	r0, r3
.LVL287:
	.loc 2 2496 0
	pop	{r4, r5, r6, pc}
.L244:
	.align	2
.L243:
	.word	.LANCHOR47
	.word	.LANCHOR48
	.word	.LANCHOR40
	.word	-1431655765
	.word	.LANCHOR43
	.cfi_endproc
.LFE298:
	.size	GetFreeBlockMaxEraseCount, .-GetFreeBlockMaxEraseCount
	.section	.text.FtlPrintInfo2buf,"ax",%progbits
	.align	1
	.global	FtlPrintInfo2buf
	.syntax unified
	.thumb
	.thumb_func
	.fpu softvfp
	.type	FtlPrintInfo2buf, %function
FtlPrintInfo2buf:
.LFB203:
	.loc 3 12 0
	.cfi_startproc
	@ args = 0, pretend = 0, frame = 0
	@ frame_needed = 0, uses_anonymous_args = 0
.LVL288:
	push	{r0, r1, r2, r3, r4, r5, r6, r7, r8, r10, fp, lr}
	.cfi_def_cfa_offset 48
	.cfi_offset 4, -32
	.cfi_offset 5, -28
	.cfi_offset 6, -24
	.cfi_offset 7, -20
	.cfi_offset 8, -16
	.cfi_offset 10, -12
	.cfi_offset 11, -8
	.cfi_offset 14, -4
	.loc 3 12 0
	mov	r8, r0
.LVL289:
	.loc 3 16 0
	ldr	r1, .L257
	bl	sprintf
.LVL290:
	.loc 3 17 0
	ldr	r3, .L257+4
	.loc 3 16 0
	add	r5, r8, r0
.LVL291:
	.loc 3 17 0
	ldr	r1, .L257+8
	mov	r0, r5
	.loc 3 31 0
	ldr	r4, .L257+12
	.loc 3 17 0
	ldr	r2, [r3]
	bl	sprintf
.LVL292:
	add	r5, r5, r0
.LVL293:
	.loc 3 18 0
	ldr	r1, .L257+16
	mov	r0, r5
	.loc 3 32 0
	ldr	r10, .L257+352
	.loc 3 18 0
	bl	sprintf
.LVL294:
	.loc 3 19 0
	ldr	r3, .L257+20
	.loc 3 18 0
	add	r5, r5, r0
.LVL295:
	.loc 3 19 0
	ldr	r1, .L257+24
	mov	r0, r5
	.loc 3 39 0
	ldr	r6, .L257+28
	.loc 3 19 0
	ldr	r2, [r3]
	bl	sprintf
.LVL296:
	.loc 3 20 0
	ldr	r3, .L257+32
	.loc 3 19 0
	add	r5, r5, r0
.LVL297:
	.loc 3 20 0
	ldr	r1, .L257+36
	mov	r0, r5
	.loc 3 67 0
	ldr	r7, .L257+40
	.loc 3 20 0
	ldr	r2, [r3]
	bl	sprintf
.LVL298:
	.loc 3 21 0
	ldr	r3, .L257+44
	.loc 3 20 0
	add	r5, r5, r0
.LVL299:
	.loc 3 21 0
	ldr	r1, .L257+48
	mov	r0, r5
	.loc 3 72 0
	ldr	fp, .L257+356
	.loc 3 21 0
	ldr	r2, [r3]
	bl	sprintf
.LVL300:
	.loc 3 22 0
	ldr	r3, .L257+52
	.loc 3 21 0
	add	r5, r5, r0
.LVL301:
	.loc 3 22 0
	ldr	r1, .L257+56
	mov	r0, r5
	ldr	r2, [r3]
	bl	sprintf
.LVL302:
	.loc 3 23 0
	ldr	r3, .L257+60
	.loc 3 22 0
	add	r5, r5, r0
.LVL303:
	.loc 3 23 0
	ldr	r1, .L257+64
	mov	r0, r5
	ldr	r2, [r3]
	bl	sprintf
.LVL304:
	.loc 3 24 0
	ldr	r3, .L257+68
	.loc 3 23 0
	add	r5, r5, r0
.LVL305:
	.loc 3 24 0
	ldr	r1, .L257+72
	mov	r0, r5
	ldr	r2, [r3]
	bl	sprintf
.LVL306:
	.loc 3 25 0
	ldr	r3, .L257+76
	.loc 3 24 0
	add	r5, r5, r0
.LVL307:
	.loc 3 25 0
	ldr	r1, .L257+80
	mov	r0, r5
	ldr	r2, [r3]
	bl	sprintf
.LVL308:
	.loc 3 26 0
	ldr	r3, .L257+84
	.loc 3 25 0
	add	r5, r5, r0
.LVL309:
	.loc 3 26 0
	ldr	r1, .L257+88
	mov	r0, r5
	ldr	r2, [r3]
	bl	sprintf
.LVL310:
	.loc 3 27 0
	ldr	r3, .L257+92
	.loc 3 26 0
	add	r5, r5, r0
.LVL311:
	.loc 3 27 0
	ldr	r1, .L257+96
	mov	r0, r5
	ldr	r2, [r3]
	lsrs	r2, r2, #11
	bl	sprintf
.LVL312:
	.loc 3 28 0
	ldr	r3, .L257+100
	.loc 3 27 0
	add	r5, r5, r0
.LVL313:
	.loc 3 28 0
	ldr	r1, .L257+104
	mov	r0, r5
	ldr	r2, [r3]
	lsrs	r2, r2, #11
	bl	sprintf
.LVL314:
	.loc 3 29 0
	ldr	r3, .L257+108
	.loc 3 28 0
	add	r5, r5, r0
.LVL315:
	.loc 3 29 0
	ldr	r1, .L257+112
	mov	r0, r5
	ldr	r2, [r3]
	bl	sprintf
.LVL316:
	.loc 3 30 0
	ldr	r3, .L257+116
	.loc 3 29 0
	add	r5, r5, r0
.LVL317:
	.loc 3 30 0
	ldr	r1, .L257+120
	mov	r0, r5
	ldr	r2, [r3]
	bl	sprintf
.LVL318:
	add	r5, r5, r0
.LVL319:
	.loc 3 31 0
	ldrh	r2, [r4, #6]
	ldr	r1, .L257+124
	mov	r0, r5
	bl	sprintf
.LVL320:
	add	r5, r5, r0
.LVL321:
	.loc 3 32 0
	ldrh	r2, [r10]
	ldr	r1, .L257+128
	mov	r0, r5
	bl	sprintf
.LVL322:
	.loc 3 33 0
	ldr	r3, .L257+132
	.loc 3 32 0
	add	r5, r5, r0
.LVL323:
	.loc 3 33 0
	ldr	r1, .L257+136
	mov	r0, r5
	ldr	r2, [r3]
	bl	sprintf
.LVL324:
	.loc 3 34 0
	ldr	r3, .L257+140
	.loc 3 33 0
	add	r5, r5, r0
.LVL325:
	.loc 3 34 0
	ldr	r1, .L257+144
	mov	r0, r5
	ldr	r2, [r3]
	bl	sprintf
.LVL326:
	.loc 3 35 0
	ldr	r3, .L257+148
	.loc 3 34 0
	add	r5, r5, r0
.LVL327:
	.loc 3 35 0
	ldr	r1, .L257+152
	mov	r0, r5
	ldr	r2, [r3]
	bl	sprintf
.LVL328:
	.loc 3 36 0
	ldr	r3, .L257+156
	.loc 3 35 0
	add	r5, r5, r0
.LVL329:
	.loc 3 36 0
	ldr	r1, .L257+160
	mov	r0, r5
	ldr	r2, [r3]
	bl	sprintf
.LVL330:
	.loc 3 37 0
	ldr	r3, .L257+164
	.loc 3 36 0
	add	r5, r5, r0
.LVL331:
	.loc 3 37 0
	ldr	r1, .L257+168
	mov	r0, r5
	ldr	r2, [r3]
	bl	sprintf
.LVL332:
	.loc 3 38 0
	ldr	r3, .L257+172
	.loc 3 37 0
	add	r5, r5, r0
.LVL333:
	.loc 3 38 0
	ldr	r1, .L257+176
	mov	r0, r5
	ldr	r2, [r3]
	bl	sprintf
.LVL334:
	add	r5, r5, r0
.LVL335:
	.loc 3 39 0
	ldrh	r2, [r6, #30]
	ldr	r1, .L257+180
	mov	r0, r5
	bl	sprintf
.LVL336:
	add	r5, r5, r0
.LVL337:
	.loc 3 40 0
	ldrh	r2, [r6, #28]
	ldr	r1, .L257+184
	mov	r0, r5
	bl	sprintf
.LVL338:
	.loc 3 41 0
	ldr	r3, .L257+188
	.loc 3 40 0
	add	r5, r5, r0
.LVL339:
	.loc 3 41 0
	ldr	r1, .L257+192
	mov	r0, r5
	.loc 3 55 0
	ldr	r6, .L257+196
	.loc 3 41 0
	ldr	r2, [r3]
	bl	sprintf
.LVL340:
	.loc 3 42 0
	ldr	r3, .L257+200
	.loc 3 41 0
	add	r5, r5, r0
.LVL341:
	.loc 3 42 0
	ldr	r1, .L257+204
	mov	r0, r5
	ldr	r2, [r3]
	bl	sprintf
.LVL342:
	.loc 3 43 0
	ldr	r3, .L257+208
	.loc 3 42 0
	add	r5, r5, r0
.LVL343:
	.loc 3 43 0
	ldr	r1, .L257+212
	mov	r0, r5
	ldr	r2, [r3]
	bl	sprintf
.LVL344:
	.loc 3 44 0
	ldr	r3, .L257+216
	.loc 3 43 0
	add	r5, r5, r0
.LVL345:
	.loc 3 44 0
	ldr	r1, .L257+220
	mov	r0, r5
	ldrh	r2, [r3, #6]
	bl	sprintf
.LVL346:
	.loc 3 45 0
	ldr	r3, .L257+224
	.loc 3 44 0
	add	r5, r5, r0
.LVL347:
	.loc 3 45 0
	ldr	r1, .L257+228
	mov	r0, r5
	ldrh	r2, [r3]
	bl	sprintf
.LVL348:
	.loc 3 46 0
	ldr	r3, .L257+232
	.loc 3 45 0
	add	r5, r5, r0
.LVL349:
	.loc 3 46 0
	ldr	r1, .L257+236
	mov	r0, r5
	ldrh	r2, [r3]
	bl	sprintf
.LVL350:
	.loc 3 47 0
	ldr	r3, .L257+240
	.loc 3 46 0
	add	r5, r5, r0
.LVL351:
	.loc 3 47 0
	ldr	r1, .L257+244
	mov	r0, r5
	ldr	r2, [r3]
	bl	sprintf
.LVL352:
	.loc 3 48 0
	ldr	r3, .L257+248
	.loc 3 47 0
	add	r5, r5, r0
.LVL353:
	.loc 3 48 0
	ldr	r1, .L257+252
	mov	r0, r5
	ldrh	r2, [r3]
	bl	sprintf
.LVL354:
	.loc 3 49 0
	ldrh	r2, [r4]
	.loc 3 48 0
	add	r5, r5, r0
.LVL355:
	.loc 3 50 0
	ldr	r4, .L257+256
	.loc 3 49 0
	mov	r0, r5
	ldr	r1, .L257+260
	bl	sprintf
.LVL356:
	add	r5, r5, r0
.LVL357:
	.loc 3 50 0
	ldrh	r2, [r4, #2]
	ldr	r1, .L257+264
	mov	r0, r5
	bl	sprintf
.LVL358:
	add	r5, r5, r0
.LVL359:
	.loc 3 51 0
	ldrb	r2, [r4, #6]	@ zero_extendqisi2
	ldr	r1, .L257+268
	mov	r0, r5
	bl	sprintf
.LVL360:
	add	r5, r5, r0
.LVL361:
	.loc 3 52 0
	ldrh	r2, [r4]
	ldr	r1, .L257+272
	mov	r0, r5
	bl	sprintf
.LVL362:
	add	r5, r5, r0
.LVL363:
	.loc 3 53 0
	ldrb	r2, [r4, #8]	@ zero_extendqisi2
	ldr	r1, .L257+276
	mov	r0, r5
	bl	sprintf
.LVL364:
	add	r5, r5, r0
.LVL365:
	.loc 3 54 0
	ldrh	r2, [r4, #4]
	ldr	r1, .L257+280
	mov	r0, r5
	bl	sprintf
.LVL366:
	.loc 3 55 0
	ldr	r3, [r6]
	.loc 3 54 0
	add	r5, r5, r0
.LVL367:
	.loc 3 55 0
	ldrh	r2, [r4]
	mov	r0, r5
	.loc 3 56 0
	ldr	r4, .L257+284
	.loc 3 55 0
	ldr	r1, .L257+288
	ldrh	r2, [r3, r2, lsl #1]
	bl	sprintf
.LVL368:
	add	r5, r5, r0
.LVL369:
	.loc 3 56 0
	ldrh	r2, [r4, #2]
	ldr	r1, .L257+292
	mov	r0, r5
	bl	sprintf
.LVL370:
	add	r5, r5, r0
.LVL371:
	.loc 3 57 0
	ldrb	r2, [r4, #6]	@ zero_extendqisi2
	ldr	r1, .L257+296
	mov	r0, r5
	bl	sprintf
.LVL372:
	add	r5, r5, r0
.LVL373:
	.loc 3 58 0
	ldrh	r2, [r4]
	ldr	r1, .L257+300
	mov	r0, r5
	bl	sprintf
.LVL374:
	add	r5, r5, r0
.LVL375:
	.loc 3 59 0
	ldrb	r2, [r4, #8]	@ zero_extendqisi2
	ldr	r1, .L257+304
	mov	r0, r5
	bl	sprintf
.LVL376:
	add	r5, r5, r0
.LVL377:
	.loc 3 60 0
	ldrh	r2, [r4, #4]
	ldr	r1, .L257+308
	mov	r0, r5
	bl	sprintf
.LVL378:
	.loc 3 61 0
	ldr	r3, [r6]
	.loc 3 60 0
	add	r5, r5, r0
.LVL379:
	.loc 3 61 0
	ldrh	r2, [r4]
	mov	r0, r5
	.loc 3 62 0
	ldr	r4, .L257+312
	.loc 3 61 0
	ldr	r1, .L257+316
	ldrh	r2, [r3, r2, lsl #1]
	bl	sprintf
.LVL380:
	add	r5, r5, r0
.LVL381:
	.loc 3 62 0
	ldrh	r2, [r4, #2]
	ldr	r1, .L257+320
	mov	r0, r5
	bl	sprintf
.LVL382:
	add	r5, r5, r0
.LVL383:
	.loc 3 63 0
	ldrb	r2, [r4, #6]	@ zero_extendqisi2
	ldr	r1, .L257+324
	mov	r0, r5
	bl	sprintf
.LVL384:
	add	r5, r5, r0
.LVL385:
	.loc 3 64 0
	ldrh	r2, [r4]
	ldr	r1, .L257+328
	mov	r0, r5
	bl	sprintf
.LVL386:
	add	r5, r5, r0
.LVL387:
	.loc 3 65 0
	ldrb	r2, [r4, #8]	@ zero_extendqisi2
	ldr	r1, .L257+332
	mov	r0, r5
	bl	sprintf
.LVL388:
	add	r5, r5, r0
.LVL389:
	.loc 3 66 0
	ldrh	r2, [r4, #4]
	ldr	r1, .L257+336
	mov	r0, r5
	bl	sprintf
.LVL390:
	add	r5, r5, r0
.LVL391:
	.loc 3 67 0
	ldrh	r2, [r7, #2]
	ldr	r1, .L257+340
	mov	r0, r5
	bl	sprintf
.LVL392:
	add	r5, r5, r0
.LVL393:
	.loc 3 68 0
	ldrb	r2, [r7, #6]	@ zero_extendqisi2
	ldr	r1, .L257+344
	mov	r0, r5
	bl	sprintf
.LVL394:
	add	r5, r5, r0
.LVL395:
	.loc 3 69 0
	ldrh	r2, [r7]
	ldr	r1, .L257+348
	mov	r0, r5
	b	.L258
.L259:
	.align	2
.L257:
	.word	.LC2
	.word	.LANCHOR26
	.word	.LC3
	.word	.LANCHOR37
	.word	.LC4
	.word	.LANCHOR61
	.word	.LC5
	.word	.LANCHOR39
	.word	.LANCHOR59
	.word	.LC6
	.word	.LANCHOR80
	.word	.LANCHOR62
	.word	.LC7
	.word	.LANCHOR63
	.word	.LC8
	.word	.LANCHOR64
	.word	.LC9
	.word	.LANCHOR65
	.word	.LC10
	.word	.LANCHOR66
	.word	.LC11
	.word	.LANCHOR67
	.word	.LC12
	.word	.LANCHOR68
	.word	.LC13
	.word	.LANCHOR69
	.word	.LC14
	.word	.LANCHOR70
	.word	.LC15
	.word	.LANCHOR71
	.word	.LC16
	.word	.LC17
	.word	.LC18
	.word	.LANCHOR72
	.word	.LC19
	.word	.LANCHOR73
	.word	.LC20
	.word	.LANCHOR74
	.word	.LC21
	.word	.LANCHOR75
	.word	.LC22
	.word	.LANCHOR76
	.word	.LC23
	.word	.LANCHOR77
	.word	.LC24
	.word	.LC25
	.word	.LC26
	.word	.LANCHOR34
	.word	.LC27
	.word	.LANCHOR42
	.word	.LANCHOR31
	.word	.LC28
	.word	.LANCHOR2
	.word	.LC29
	.word	.LANCHOR38
	.word	.LC30
	.word	.LANCHOR5
	.word	.LC31
	.word	.LANCHOR78
	.word	.LC32
	.word	.LANCHOR7
	.word	.LC33
	.word	.LANCHOR79
	.word	.LC34
	.word	.LANCHOR51
	.word	.LC35
	.word	.LC36
	.word	.LC37
	.word	.LC38
	.word	.LC39
	.word	.LC40
	.word	.LANCHOR52
	.word	.LC41
	.word	.LC42
	.word	.LC43
	.word	.LC44
	.word	.LC45
	.word	.LC46
	.word	.LANCHOR53
	.word	.LC47
	.word	.LC48
	.word	.LC49
	.word	.LC50
	.word	.LC51
	.word	.LC52
	.word	.LC53
	.word	.LC54
	.word	.LC55
	.word	.LANCHOR48
	.word	.LANCHOR81
.L258:
	bl	sprintf
.LVL396:
	add	r5, r5, r0
.LVL397:
	.loc 3 70 0
	ldrb	r2, [r7, #8]	@ zero_extendqisi2
	ldr	r1, .L260
	mov	r0, r5
	bl	sprintf
.LVL398:
	add	r5, r5, r0
.LVL399:
	.loc 3 71 0
	ldrh	r2, [r7, #4]
	ldr	r1, .L260+4
	mov	r0, r5
	bl	sprintf
.LVL400:
	.loc 3 72 0
	ldr	r3, [fp, #76]
	.loc 3 71 0
	add	r5, r5, r0
.LVL401:
	.loc 3 72 0
	ldr	r1, .L260+8
	mov	r0, r5
	str	r3, [sp]
	ldr	r3, [fp, #84]
	ldr	r2, [fp, #80]
	bl	sprintf
.LVL402:
	adds	r4, r5, r0
.LVL403:
	.loc 3 73 0
	ldr	r2, [fp, #72]
	ldr	r1, .L260+12
	mov	r0, r4
	bl	sprintf
.LVL404:
	add	r4, r4, r0
.LVL405:
	.loc 3 74 0
	ldr	r2, [fp, #96]
	ldr	r1, .L260+16
	mov	r0, r4
	bl	sprintf
.LVL406:
	.loc 3 75 0
	ldr	r3, .L260+20
	.loc 3 74 0
	add	r4, r4, r0
.LVL407:
	.loc 3 75 0
	ldr	r1, .L260+24
	mov	r0, r4
	ldrh	r2, [r3]
	bl	sprintf
.LVL408:
	.loc 3 76 0
	ldr	r3, .L260+28
	.loc 3 75 0
	add	r4, r4, r0
.LVL409:
	.loc 3 76 0
	ldr	r1, .L260+32
	mov	r0, r4
	ldrh	r2, [r3]
	bl	sprintf
.LVL410:
	.loc 3 77 0
	ldr	r3, .L260+36
	.loc 3 76 0
	add	r4, r4, r0
.LVL411:
	.loc 3 77 0
	ldr	r1, .L260+40
	mov	r0, r4
	ldr	r2, [r3]
	bl	sprintf
.LVL412:
	.loc 3 78 0
	ldr	r3, .L260+44
	.loc 3 77 0
	add	r4, r4, r0
.LVL413:
	.loc 3 78 0
	ldr	r1, .L260+48
	mov	r0, r4
	ldrh	r2, [r3]
	bl	sprintf
.LVL414:
	add	r4, r4, r0
.LVL415:
	.loc 3 79 0
	bl	GetFreeBlockMinEraseCount
.LVL416:
	ldr	r1, .L260+52
	mov	r2, r0
	mov	r0, r4
	bl	sprintf
.LVL417:
	add	r4, r4, r0
.LVL418:
	.loc 3 80 0
	ldrh	r0, [r10]
	bl	GetFreeBlockMaxEraseCount
.LVL419:
	ldr	r1, .L260+56
	mov	r2, r0
	mov	r0, r4
	bl	sprintf
.LVL420:
	.loc 3 81 0
	ldr	r3, .L260+60
	.loc 3 80 0
	add	r4, r4, r0
.LVL421:
	.loc 3 81 0
	ldr	r3, [r3]
	cmp	r3, #1
	beq	.L246
.L251:
	.loc 3 104 0
	sub	r0, r4, r8
	.loc 3 105 0
	add	sp, sp, #16
	.cfi_remember_state
	.cfi_def_cfa_offset 32
	@ sp needed
	pop	{r4, r5, r6, r7, r8, r10, fp, pc}
.LVL422:
.L246:
	.cfi_restore_state
	.loc 3 84 0
	ldrh	r3, [r7]
	movw	r2, #65535
	cmp	r3, r2
	beq	.L248
	.loc 3 85 0
	ldr	r2, [r6]
	mov	r0, r4
	ldr	r1, .L260+64
	ldrh	r2, [r2, r3, lsl #1]
	bl	sprintf
.LVL423:
	add	r4, r4, r0
.LVL424:
.L248:
.LBB225:
	.loc 3 87 0
	movs	r0, #0
	ldr	r5, .L260+68
	.loc 3 91 0
	ldr	fp, .L260+84
	.loc 3 88 0
	movs	r7, #0
	.loc 3 87 0
	bl	List_get_gc_head_node
.LVL425:
	uxth	r3, r0
.LVL426:
.L250:
	.loc 3 89 0
	movw	r2, #65535
	cmp	r3, r2
	beq	.L249
	.loc 3 91 0 discriminator 2
	ldr	r2, [fp]
	mov	r10, #6
	mul	r10, r10, r3
	mov	r0, r4
	ldr	r1, .L260+72
	ldrh	r2, [r2, r3, lsl #1]
	str	r2, [sp, #8]
	ldr	r2, [r5]
	add	r2, r2, r10
	ldrh	r2, [r2, #4]
	str	r2, [sp, #4]
	ldr	r2, [r6]
	ldrh	r2, [r2, r3, lsl #1]
	str	r2, [sp]
	mov	r2, r7
	bl	sprintf
.LVL427:
	.loc 3 88 0 discriminator 2
	adds	r7, r7, #1
.LVL428:
	.loc 3 92 0 discriminator 2
	ldr	r3, [r5]
	.loc 3 88 0 discriminator 2
	cmp	r7, #16
	.loc 3 91 0 discriminator 2
	add	r4, r4, r0
.LVL429:
	.loc 3 92 0 discriminator 2
	ldrh	r3, [r3, r10]
.LVL430:
	.loc 3 88 0 discriminator 2
	bne	.L250
.L249:
.LBE225:
.LBB226:
	.loc 3 96 0
	ldr	r3, .L260+76
.LVL431:
	.loc 3 97 0
	movs	r7, #0
.LVL432:
	.loc 3 96 0
	ldr	r2, [r5]
	.loc 3 100 0
	ldr	r10, .L260+84
	.loc 3 96 0
	ldr	r3, [r3]
	.loc 3 100 0
	ldr	fp, .L260+88
	.loc 3 96 0
	subs	r3, r3, r2
	ldr	r2, .L260+80
	asrs	r3, r3, #1
	muls	r3, r2, r3
	uxth	r3, r3
.LVL433:
.L252:
	.loc 3 98 0
	movw	r2, #65535
	cmp	r3, r2
	beq	.L251
	.loc 3 100 0 discriminator 2
	ldr	r2, [r10]
	movs	r6, #6
	muls	r6, r3, r6
	mov	r0, r4
	mov	r1, fp
	ldrh	r2, [r2, r3, lsl #1]
	str	r2, [sp, #4]
	ldr	r2, [r5]
	add	r2, r2, r6
	ldrh	r2, [r2, #4]
	str	r2, [sp]
	mov	r2, r7
	.loc 3 97 0 discriminator 2
	adds	r7, r7, #1
.LVL434:
	.loc 3 100 0 discriminator 2
	bl	sprintf
.LVL435:
	.loc 3 97 0 discriminator 2
	cmp	r7, #4
	.loc 3 100 0 discriminator 2
	add	r4, r4, r0
.LVL436:
	.loc 3 97 0 discriminator 2
	beq	.L251
	.loc 3 101 0
	ldr	r3, [r5]
	ldrh	r3, [r3, r6]
	b	.L252
.L261:
	.align	2
.L260:
	.word	.LC56
	.word	.LC57
	.word	.LC58
	.word	.LC59
	.word	.LC60
	.word	.LANCHOR82
	.word	.LC61
	.word	.LANCHOR83
	.word	.LC62
	.word	.LANCHOR84
	.word	.LC63
	.word	.LANCHOR85
	.word	.LC64
	.word	.LC65
	.word	.LC66
	.word	.LANCHOR86
	.word	.LC67
	.word	.LANCHOR40
	.word	.LC68
	.word	.LANCHOR47
	.word	-1431655765
	.word	.LANCHOR43
	.word	.LC69
.LBE226:
	.cfi_endproc
.LFE203:
	.size	FtlPrintInfo2buf, .-FtlPrintInfo2buf
	.section	.text.rknand_proc_ftlread,"ax",%progbits
	.align	1
	.global	rknand_proc_ftlread
	.syntax unified
	.thumb
	.thumb_func
	.fpu softvfp
	.type	rknand_proc_ftlread, %function
rknand_proc_ftlread:
.LFB204:
	.loc 3 114 0
	.cfi_startproc
	@ args = 0, pretend = 0, frame = 0
	@ frame_needed = 0, uses_anonymous_args = 0
.LVL437:
	push	{r3, r4, r5, lr}
	.cfi_def_cfa_offset 16
	.cfi_offset 3, -16
	.cfi_offset 4, -12
	.cfi_offset 5, -8
	.cfi_offset 14, -4
	.loc 3 114 0
	mov	r5, r0
.LVL438:
	.loc 3 120 0
	ldr	r2, .L263
	ldr	r1, .L263+4
	bl	sprintf
.LVL439:
	adds	r4, r5, r0
.LVL440:
	.loc 3 122 0
	mov	r0, r4
	bl	FtlPrintInfo2buf
.LVL441:
	add	r0, r0, r4
.LVL442:
	.loc 3 124 0
	subs	r0, r0, r5
.LVL443:
	pop	{r3, r4, r5, pc}
.LVL444:
.L264:
	.align	2
.L263:
	.word	.LC70
	.word	.LC71
	.cfi_endproc
.LFE204:
	.size	rknand_proc_ftlread, .-rknand_proc_ftlread
	.section	.text.GetSwlReplaceBlock,"ax",%progbits
	.align	1
	.global	GetSwlReplaceBlock
	.syntax unified
	.thumb
	.thumb_func
	.fpu softvfp
	.type	GetSwlReplaceBlock, %function
GetSwlReplaceBlock:
.LFB299:
	.loc 2 2500 0
	.cfi_startproc
	@ args = 0, pretend = 0, frame = 8
	@ frame_needed = 0, uses_anonymous_args = 0
.LVL445:
	push	{r4, r5, r6, r7, r8, r10, fp, lr}
	.cfi_def_cfa_offset 32
	.cfi_offset 4, -32
	.cfi_offset 5, -28
	.cfi_offset 6, -24
	.cfi_offset 7, -20
	.cfi_offset 8, -16
	.cfi_offset 10, -12
	.cfi_offset 11, -8
	.cfi_offset 14, -4
	sub	sp, sp, #24
	.cfi_def_cfa_offset 56
	.loc 2 2510 0
	ldr	r3, .L293
	ldr	r6, .L293+4
	ldr	r5, [r3]
	mov	r10, r3
	ldr	r1, [r6]
	cmp	r1, r5
	bcs	.L266
	.loc 2 2513 0
	ldr	r2, .L293+8
	.loc 2 2512 0
	movs	r3, #0
	ldr	r4, .L293+12
	.loc 2 2513 0
	mov	r0, r3
	ldrh	r1, [r2]
	.loc 2 2514 0
	ldr	r2, .L293+16
	.loc 2 2512 0
	str	r3, [r4]
.LVL446:
	.loc 2 2514 0
	ldr	r7, [r2]
	.loc 2 2513 0
	mov	r2, r3
.LVL447:
.L267:
	.loc 2 2513 0 is_stmt 0 discriminator 1
	cmp	r2, r1
	bcc	.L268
	cbz	r3, .L269
	str	r0, [r4]
.L269:
	.loc 2 2515 0 is_stmt 1
	ldr	r7, [r4]
	mov	r0, r7
	bl	__aeabi_uidiv
.LVL448:
	.loc 2 2516 0
	ldr	r3, .L293+20
	.loc 2 2515 0
	str	r0, [r6]
	.loc 2 2516 0
	ldr	r0, [r3]
	ldr	r3, .L293+24
	subs	r0, r7, r0
	ldrh	r1, [r3]
	bl	__aeabi_uidiv
.LVL449:
	str	r0, [r4]
.L270:
	.loc 2 2522 0
	ldr	r6, [r6]
	add	r3, r5, #256
	cmp	r3, r6
	bls	.L275
	.loc 2 2522 0 is_stmt 0 discriminator 1
	ldr	r2, .L293+28
	add	r3, r5, #768
	ldr	r2, [r2]
	cmp	r3, r2
	bls	.L275
.LVL450:
.L277:
	.loc 2 2523 0 is_stmt 1
	movw	r4, #65535
.L276:
	.loc 2 2569 0
	mov	r0, r4
	add	sp, sp, #24
	.cfi_remember_state
	.cfi_def_cfa_offset 32
	@ sp needed
	pop	{r4, r5, r6, r7, r8, r10, fp, pc}
.LVL451:
.L268:
	.cfi_restore_state
	.loc 2 2514 0 discriminator 3
	ldrh	r3, [r7, r2, lsl #1]
	.loc 2 2513 0 discriminator 3
	adds	r2, r2, #1
.LVL452:
	.loc 2 2514 0 discriminator 3
	add	r0, r0, r3
	movs	r3, #1
	b	.L267
.LVL453:
.L266:
	.loc 2 2517 0
	ldr	r2, .L293+28
	ldr	r3, [r2]
	cmp	r1, r3
	bls	.L270
	.loc 2 2518 0
	adds	r3, r3, #1
	.loc 2 2519 0
	ldr	r0, .L293+8
	.loc 2 2518 0
	str	r3, [r2]
.LVL454:
	.loc 2 2519 0
	movs	r2, #0
	.loc 2 2520 0
	ldr	r3, .L293+16
	ldr	r3, [r3]
	subs	r3, r3, #2
.LVL455:
.L272:
	.loc 2 2519 0 discriminator 1
	ldrh	r1, [r0]
	cmp	r2, r1
	bcs	.L270
	.loc 2 2520 0 discriminator 3
	ldrh	r1, [r3, #2]
	.loc 2 2519 0 discriminator 3
	adds	r2, r2, #1
.LVL456:
	.loc 2 2520 0 discriminator 3
	adds	r1, r1, #1
	strh	r1, [r3, #2]!	@ movhi
	b	.L272
.LVL457:
.L275:
	.loc 2 2525 0
	ldr	r3, .L293+32
	ldrh	r0, [r3]
	add	r0, r0, r0, lsl #1
	ubfx	r0, r0, #2, #16
	bl	GetFreeBlockMaxEraseCount
.LVL458:
	.loc 2 2526 0
	add	r3, r5, #64
	.loc 2 2525 0
	mov	r2, r0
.LVL459:
	.loc 2 2526 0
	cmp	r0, r3
	bcc	.L277
	.loc 2 2529 0
	ldr	r3, .L293+36
	ldr	r3, [r3]
	cmp	r3, #0
	beq	.L277
	.loc 2 2533 0
	ldr	r1, .L293+8
	.loc 2 2537 0
	movs	r0, #0
.LVL460:
	.loc 2 2546 0
	mov	fp, #6
	.loc 2 2533 0
	ldrh	r1, [r1]
	str	r1, [sp, #20]
	.loc 2 2536 0
	ldr	r1, .L293+40
	ldr	r8, [r1]
	.loc 2 2537 0
	ldr	r1, .L293+16
	ldr	r7, [r1]
	movw	r1, #65535
	mov	ip, r1
.LVL461:
.L278:
	.loc 2 2531 0
	ldrh	lr, [r3]
	movw	r4, #65535
	cmp	lr, r4
	bne	.L281
	mov	r4, ip
.LVL462:
.L280:
	.loc 2 2549 0
	movw	r3, #65535
	cmp	r4, r3
	beq	.L277
	.loc 2 2551 0
	ldrh	r7, [r7, r4, lsl #1]
.LVL463:
	lsl	r8, r4, #1
	.loc 2 2552 0
	cmp	r5, r7
	bcs	.L282
	.loc 2 2554 0
	bl	GetFreeBlockMinEraseCount
.LVL464:
	cmp	r5, r0
	.loc 2 2555 0
	it	cc
	strcc	r1, [r10]
.L282:
	.loc 2 2557 0
	cmp	r6, r7
	bls	.L277
	.loc 2 2557 0 is_stmt 0 discriminator 1
	add	r3, r7, #128
	cmp	r2, r3
	ble	.L277
	.loc 2 2559 0 is_stmt 1
	add	r3, r7, #256
	ldr	r0, .L293+28
	cmp	r6, r3
	bhi	.L283
	.loc 2 2559 0 is_stmt 0 discriminator 1
	ldr	r1, [r0]
.LVL465:
	add	r3, r7, #768
	cmp	r3, r1
	bcs	.L277
.L283:
	.loc 2 2561 0 is_stmt 1
	ldr	r3, .L293+44
	mov	r1, r4
	str	r2, [sp, #8]
	mov	r2, r6
	str	r7, [sp, #4]
	ldr	r3, [r3]
	ldrh	r3, [r3, r8]
	str	r3, [sp]
	ldr	r3, [r0]
	ldr	r0, .L293+48
	bl	printf
.LVL466:
	.loc 2 2562 0
	ldr	r3, .L293+52
	movs	r2, #1
	str	r2, [r3]
	.loc 2 2563 0
	b	.L276
.LVL467:
.L281:
	.loc 2 2532 0
	adds	r0, r0, #1
.LVL468:
	.loc 2 2533 0
	ldr	r4, [sp, #20]
	.loc 2 2532 0
	uxth	r0, r0
.LVL469:
	.loc 2 2533 0
	cmp	r0, r4
	bhi	.L277
	.loc 2 2535 0
	ldrh	r4, [r3, #4]
	cbz	r4, .L279
	.loc 2 2536 0
	ldr	r4, .L293+56
	sub	r3, r3, r8
.LVL470:
	asrs	r3, r3, #1
	muls	r3, r4, r3
	uxth	r4, r3
.LVL471:
	.loc 2 2537 0
	ldrh	r3, [r7, r4, lsl #1]
	cmp	r5, r3
	bcs	.L280
	.loc 2 2541 0
	cmp	r1, r3
	itt	hi
	movhi	r1, r3
.LVL472:
	.loc 2 2536 0
	movhi	ip, r4
.LVL473:
.L279:
	.loc 2 2546 0
	mla	r3, fp, lr, r8
.LVL474:
	b	.L278
.L294:
	.align	2
.L293:
	.word	.LANCHOR77
	.word	.LANCHOR74
	.word	.LANCHOR5
	.word	.LANCHOR72
	.word	.LANCHOR43
	.word	.LANCHOR73
	.word	.LANCHOR14
	.word	.LANCHOR76
	.word	.LANCHOR48
	.word	.LANCHOR41
	.word	.LANCHOR40
	.word	.LANCHOR42
	.word	.LC72
	.word	.LANCHOR87
	.word	-1431655765
	.cfi_endproc
.LFE299:
	.size	GetSwlReplaceBlock, .-GetSwlReplaceBlock
	.section	.text.free_data_superblock,"ax",%progbits
	.align	1
	.global	free_data_superblock
	.syntax unified
	.thumb
	.thumb_func
	.fpu softvfp
	.type	free_data_superblock, %function
free_data_superblock:
.LFB300:
	.loc 2 2573 0
	.cfi_startproc
	@ args = 0, pretend = 0, frame = 0
	@ frame_needed = 0, uses_anonymous_args = 0
.LVL475:
	.loc 2 2574 0
	movw	r2, #65535
	.loc 2 2573 0
	push	{r3, lr}
	.cfi_def_cfa_offset 8
	.cfi_offset 3, -8
	.cfi_offset 14, -4
	.loc 2 2574 0
	cmp	r0, r2
	beq	.L296
.LVL476:
.LBB229:
.LBB230:
	.loc 2 2576 0
	ldr	r2, .L297
	movs	r1, #0
	ldr	r2, [r2]
	strh	r1, [r2, r0, lsl #1]	@ movhi
	.loc 2 2577 0
	bl	INSERT_FREE_LIST
.LVL477:
.L296:
.LBE230:
.LBE229:
	.loc 2 2579 0
	movs	r0, #0
	pop	{r3, pc}
.L298:
	.align	2
.L297:
	.word	.LANCHOR42
	.cfi_endproc
.LFE300:
	.size	free_data_superblock, .-free_data_superblock
	.section	.text.get_new_active_ppa,"ax",%progbits
	.align	1
	.global	get_new_active_ppa
	.syntax unified
	.thumb
	.thumb_func
	.fpu softvfp
	.type	get_new_active_ppa, %function
get_new_active_ppa:
.LFB303:
	.loc 2 2706 0
	.cfi_startproc
	@ args = 0, pretend = 0, frame = 0
	@ frame_needed = 0, uses_anonymous_args = 0
.LVL478:
	.loc 2 2710 0
	ldrh	r2, [r0]
	.loc 2 2706 0
	push	{r3, r4, r5, r6, r7, lr}
	.cfi_def_cfa_offset 24
	.cfi_offset 3, -24
	.cfi_offset 4, -20
	.cfi_offset 5, -16
	.cfi_offset 6, -12
	.cfi_offset 7, -8
	.cfi_offset 14, -4
	.loc 2 2710 0
	movw	r3, #65535
	.loc 2 2706 0
	mov	r4, r0
	.loc 2 2710 0
	cmp	r2, r3
	bne	.L300
	.loc 2 2710 0 is_stmt 0 discriminator 1
	movw	r2, #2710
	ldr	r1, .L313
	ldr	r0, .L313+4
.LVL479:
	bl	printf
.LVL480:
.L300:
	.loc 2 2711 0 is_stmt 1
	ldr	r5, .L313+8
	ldrh	r2, [r4, #2]
	ldrh	r3, [r5]
	cmp	r2, r3
	bne	.L301
	.loc 2 2711 0 is_stmt 0 discriminator 1
	movw	r2, #2711
	ldr	r1, .L313
	ldr	r0, .L313+4
	bl	printf
.LVL481:
.L301:
	.loc 2 2712 0 is_stmt 1
	ldrh	r3, [r4, #4]
	cbnz	r3, .L302
	.loc 2 2712 0 is_stmt 0 discriminator 1
	movw	r2, #2712
	ldr	r1, .L313
	ldr	r0, .L313+4
	bl	printf
.LVL482:
.L302:
	.loc 2 2714 0 is_stmt 1
	ldrb	r2, [r4, #6]	@ zero_extendqisi2
	.loc 2 2713 0
	movs	r3, #0
	strb	r3, [r4, #10]
	.loc 2 2715 0
	movw	r6, #65535
	.loc 2 2714 0
	adds	r2, r2, #8
	ldrh	r0, [r4, r2, lsl #1]
.LVL483:
	.loc 2 2717 0
	ldr	r2, .L313+12
	ldrh	r1, [r2]
	.loc 2 2719 0
	mov	r2, r3
.L303:
	.loc 2 2715 0
	cmp	r0, r6
	ldrb	r3, [r4, #6]	@ zero_extendqisi2
	beq	.L305
	.loc 2 2724 0
	ldrh	r2, [r4, #4]
	.loc 2 2723 0
	ldrh	r6, [r4, #2]
	.loc 2 2724 0
	subs	r2, r2, #1
	uxth	r2, r2
	.loc 2 2723 0
	orr	r6, r6, r0, lsl #10
.LVL484:
	.loc 2 2731 0
	movw	r0, #65535
.LVL485:
	.loc 2 2724 0
	strh	r2, [r4, #4]	@ movhi
.L307:
	.loc 2 2726 0
	adds	r3, r3, #1
	uxtb	r3, r3
	.loc 2 2727 0
	cmp	r1, r3
	.loc 2 2728 0
	itttt	eq
	ldrheq	r3, [r4, #2]
	addeq	r3, r3, #1
	strheq	r3, [r4, #2]	@ movhi
	.loc 2 2729 0
	moveq	r3, #0
	.loc 2 2731 0
	add	r7, r3, #8
	ldrh	r7, [r4, r7, lsl #1]
	cmp	r7, r0
	beq	.L307
	strb	r3, [r4, #6]
	.loc 2 2733 0
	ldrh	r1, [r4, #2]
	ldrh	r3, [r5]
	cmp	r1, r3
	bne	.L299
	.loc 2 2733 0 is_stmt 0 discriminator 1
	cbz	r2, .L299
	.loc 2 2733 0 discriminator 2
	movw	r2, #2733
	ldr	r1, .L313
	ldr	r0, .L313+4
	bl	printf
.LVL486:
.L299:
	.loc 2 2735 0 is_stmt 1
	mov	r0, r6
	pop	{r3, r4, r5, r6, r7, pc}
.LVL487:
.L305:
	.loc 2 2716 0
	adds	r3, r3, #1
	uxtb	r3, r3
	.loc 2 2717 0
	cmp	r3, r1
	.loc 2 2716 0
	strb	r3, [r4, #6]
	.loc 2 2718 0
	itttt	eq
	ldrheq	r3, [r4, #2]
	.loc 2 2719 0
	strbeq	r2, [r4, #6]
	.loc 2 2718 0
	addeq	r3, r3, #1
	strheq	r3, [r4, #2]	@ movhi
	.loc 2 2721 0
	ldrb	r3, [r4, #6]	@ zero_extendqisi2
	adds	r3, r3, #8
	ldrh	r0, [r4, r3, lsl #1]
.LVL488:
	b	.L303
.L314:
	.align	2
.L313:
	.word	.LANCHOR88
	.word	.LC1
	.word	.LANCHOR19
	.word	.LANCHOR3
	.cfi_endproc
.LFE303:
	.size	get_new_active_ppa, .-get_new_active_ppa
	.section	.text.FtlGcBufInit,"ax",%progbits
	.align	1
	.global	FtlGcBufInit
	.syntax unified
	.thumb
	.thumb_func
	.fpu softvfp
	.type	FtlGcBufInit, %function
FtlGcBufInit:
.LFB306:
	.file 5 "drivers/rkflash/rksftl/sftl_gc.c"
	.loc 5 22 0
	.cfi_startproc
	@ args = 0, pretend = 0, frame = 8
	@ frame_needed = 0, uses_anonymous_args = 0
	push	{r0, r1, r4, r5, r6, r7, r8, r10, fp, lr}
	.cfi_def_cfa_offset 40
	.cfi_offset 4, -32
	.cfi_offset 5, -28
	.cfi_offset 6, -24
	.cfi_offset 7, -20
	.cfi_offset 8, -16
	.cfi_offset 10, -12
	.cfi_offset 11, -8
	.cfi_offset 14, -4
	.loc 5 25 0
	movs	r3, #0
	.loc 5 27 0
	ldr	r1, .L320
	mov	fp, #1
	.loc 5 25 0
	ldr	r2, .L320+4
	.loc 5 27 0
	ldr	r5, [r1]
	.loc 5 28 0
	ldr	r1, .L320+8
	.loc 5 25 0
	str	r3, [r2]
.LVL489:
	.loc 5 26 0
	ldr	r2, .L320+12
	mov	r0, r5
	.loc 5 28 0
	ldr	r1, [r1]
	.loc 5 26 0
	ldrh	r2, [r2]
	.loc 5 28 0
	str	r1, [sp, #4]
	ldr	r1, .L320+16
	ldrh	r1, [r1]
	str	r1, [sp]
	.loc 5 29 0
	ldr	r1, .L320+20
	ldr	r10, [r1]
	ldr	r1, .L320+24
	ldrh	r7, [r1]
	.loc 5 30 0
	ldr	r1, .L320+28
	ldr	r4, [r1]
	movs	r1, #12
	mla	r1, r2, r1, r1
	adds	r4, r4, #8
	add	r8, r5, r1
	.loc 5 26 0
	mov	r1, r3
.LVL490:
.L316:
	adds	r0, r0, #12
	ldr	r6, [sp]
	.loc 5 26 0 is_stmt 0 discriminator 1
	cmp	r0, r8
	add	ip, r3, r7
	add	r4, r4, #20
	add	lr, r1, r6
	bne	.L317
	.loc 5 34 0 is_stmt 1
	ldr	r3, .L320+32
	.loc 5 35 0
	mov	lr, #12
	mov	r8, #0
	.loc 5 34 0
	ldr	r0, [r3]
	.loc 5 36 0
	ldr	r3, .L320+8
	ldr	r4, [r3]
	.loc 5 37 0
	ldr	r3, .L320+20
	ldr	ip, [r3]
.L318:
.LVL491:
	.loc 5 34 0 discriminator 1
	cmp	r2, r0
	bcc	.L319
	.loc 5 39 0
	add	sp, sp, #8
	.cfi_remember_state
	.cfi_def_cfa_offset 32
	@ sp needed
	pop	{r4, r5, r6, r7, r8, r10, fp, pc}
.LVL492:
.L317:
	.cfi_restore_state
	.loc 5 28 0 discriminator 3
	bic	r1, r1, #3
	.loc 5 29 0 discriminator 3
	bic	r3, r3, #3
	.loc 5 28 0 discriminator 3
	mov	r6, r1
	ldr	r1, [sp, #4]
	.loc 5 29 0 discriminator 3
	add	r3, r3, r10
	.loc 5 27 0 discriminator 3
	str	fp, [r0, #-4]
	.loc 5 29 0 discriminator 3
	str	r3, [r0, #-8]
	.loc 5 28 0 discriminator 3
	add	r6, r6, r1
	.loc 5 31 0 discriminator 3
	mov	r1, lr
	.loc 5 28 0 discriminator 3
	str	r6, [r0, #-12]
	.loc 5 31 0 discriminator 3
	str	r3, [r4, #-16]
	mov	r3, ip
	.loc 5 30 0 discriminator 3
	str	r6, [r4, #-20]
	b	.L316
.LVL493:
.L319:
	.loc 5 36 0 discriminator 3
	ldr	r3, [sp]
	.loc 5 35 0 discriminator 3
	mul	r10, lr, r2
	.loc 5 36 0 discriminator 3
	muls	r3, r2, r3
	.loc 5 35 0 discriminator 3
	add	r1, r5, r10
	str	r8, [r1, #8]
	.loc 5 36 0 discriminator 3
	bic	r3, r3, #3
	add	r3, r3, r4
	str	r3, [r5, r10]
	.loc 5 37 0 discriminator 3
	mul	r3, r2, r7
	.loc 5 34 0 discriminator 3
	adds	r2, r2, #1
.LVL494:
	uxth	r2, r2
.LVL495:
	.loc 5 37 0 discriminator 3
	bic	r3, r3, #3
	add	r3, r3, ip
	str	r3, [r1, #4]
	b	.L318
.L321:
	.align	2
.L320:
	.word	.LANCHOR90
	.word	.LANCHOR89
	.word	.LANCHOR91
	.word	.LANCHOR3
	.word	.LANCHOR23
	.word	.LANCHOR92
	.word	.LANCHOR24
	.word	.LANCHOR93
	.word	.LANCHOR94
	.cfi_endproc
.LFE306:
	.size	FtlGcBufInit, .-FtlGcBufInit
	.section	.text.FtlGcBufFree,"ax",%progbits
	.align	1
	.global	FtlGcBufFree
	.syntax unified
	.thumb
	.thumb_func
	.fpu softvfp
	.type	FtlGcBufFree, %function
FtlGcBufFree:
.LFB307:
	.loc 5 42 0
	.cfi_startproc
	@ args = 0, pretend = 0, frame = 0
	@ frame_needed = 0, uses_anonymous_args = 0
.LVL496:
	.loc 5 47 0
	ldr	r3, .L329
	.loc 5 48 0
	mov	ip, #12
	.loc 5 42 0
	push	{r4, r5, r6, r7, r8, r10, fp, lr}
	.cfi_def_cfa_offset 32
	.cfi_offset 4, -32
	.cfi_offset 5, -28
	.cfi_offset 6, -24
	.cfi_offset 7, -20
	.cfi_offset 8, -16
	.cfi_offset 10, -12
	.cfi_offset 11, -8
	.cfi_offset 14, -4
	.loc 5 46 0
	movs	r4, #0
	.loc 5 48 0
	mov	fp, #20
	.loc 5 49 0
	mov	lr, r4
	.loc 5 47 0
	ldr	r7, [r3]
	.loc 5 48 0
	ldr	r3, .L329+4
	ldr	r5, [r3]
.LVL497:
.L323:
	uxth	r3, r4
	.loc 5 46 0 discriminator 1
	cmp	r1, r3
	bls	.L322
	.loc 5 48 0
	mla	r8, fp, r3, r0
	movs	r2, #0
.L324:
.LVL498:
	uxth	r3, r2
	.loc 5 47 0 discriminator 1
	cmp	r7, r3
	bls	.L325
	.loc 5 48 0
	mul	r3, ip, r3
	ldr	r6, [r8, #8]
	adds	r2, r2, #1
.LVL499:
	add	r10, r5, r3
	ldr	r3, [r5, r3]
	cmp	r3, r6
	bne	.L324
	.loc 5 49 0
	str	lr, [r10, #8]
.L325:
.LVL500:
	adds	r4, r4, #1
.LVL501:
	b	.L323
.LVL502:
.L322:
	pop	{r4, r5, r6, r7, r8, r10, fp, pc}
.LVL503:
.L330:
	.align	2
.L329:
	.word	.LANCHOR94
	.word	.LANCHOR90
	.cfi_endproc
.LFE307:
	.size	FtlGcBufFree, .-FtlGcBufFree
	.section	.text.FtlGcBufAlloc,"ax",%progbits
	.align	1
	.global	FtlGcBufAlloc
	.syntax unified
	.thumb
	.thumb_func
	.fpu softvfp
	.type	FtlGcBufAlloc, %function
FtlGcBufAlloc:
.LFB308:
	.loc 5 57 0
	.cfi_startproc
	@ args = 0, pretend = 0, frame = 0
	@ frame_needed = 0, uses_anonymous_args = 0
.LVL504:
	.loc 5 62 0
	ldr	r3, .L338
	.loc 5 61 0
	movs	r2, #0
	.loc 5 57 0
	push	{r4, r5, r6, r7, r8, r10, lr}
	.cfi_def_cfa_offset 28
	.cfi_offset 4, -28
	.cfi_offset 5, -24
	.cfi_offset 6, -20
	.cfi_offset 7, -16
	.cfi_offset 8, -12
	.cfi_offset 10, -8
	.cfi_offset 14, -4
	.loc 5 63 0
	mov	ip, #12
	.loc 5 64 0
	movs	r7, #1
	.loc 5 65 0
	mov	lr, #20
	.loc 5 62 0
	ldr	r4, [r3]
	.loc 5 63 0
	ldr	r3, .L338+4
	ldr	r5, [r3]
.LVL505:
.L332:
	uxth	r8, r2
	.loc 5 61 0 discriminator 1
	cmp	r1, r8
	bhi	.L336
	.loc 5 71 0
	pop	{r4, r5, r6, r7, r8, r10, pc}
.L336:
	mov	r10, #0
.L333:
.LVL506:
	uxth	r3, r10
	.loc 5 62 0 discriminator 1
	cmp	r4, r3
	bls	.L334
	.loc 5 63 0
	mla	r3, ip, r3, r5
	add	r10, r10, #1
.LVL507:
	ldr	r6, [r3, #8]
	cmp	r6, #0
	bne	.L333
	.loc 5 65 0
	mla	r8, lr, r8, r0
	.loc 5 64 0
	str	r7, [r3, #8]
	.loc 5 65 0
	ldr	r6, [r3]
	.loc 5 66 0
	ldr	r3, [r3, #4]
	.loc 5 65 0
	str	r6, [r8, #8]
	.loc 5 66 0
	str	r3, [r8, #12]
.L334:
.LVL508:
	adds	r2, r2, #1
.LVL509:
	b	.L332
.L339:
	.align	2
.L338:
	.word	.LANCHOR94
	.word	.LANCHOR90
	.cfi_endproc
.LFE308:
	.size	FtlGcBufAlloc, .-FtlGcBufAlloc
	.section	.text.IsBlkInGcList,"ax",%progbits
	.align	1
	.global	IsBlkInGcList
	.syntax unified
	.thumb
	.thumb_func
	.fpu softvfp
	.type	IsBlkInGcList, %function
IsBlkInGcList:
.LFB309:
	.loc 5 74 0
	.cfi_startproc
	@ args = 0, pretend = 0, frame = 0
	@ frame_needed = 0, uses_anonymous_args = 0
	@ link register save eliminated.
.LVL510:
	.loc 5 78 0
	ldr	r3, .L345
	.loc 5 77 0
	ldr	r2, .L345+4
	.loc 5 78 0
	ldr	r3, [r3]
	ldrh	r2, [r2]
	add	r2, r3, r2, lsl #1
.LVL511:
.L341:
	.loc 5 77 0 discriminator 1
	cmp	r3, r2
	bne	.L343
	.loc 5 81 0
	movs	r0, #0
.LVL512:
	bx	lr
.LVL513:
.L343:
	.loc 5 78 0
	ldrh	r1, [r3], #2
	cmp	r1, r0
	bne	.L341
	.loc 5 79 0
	movs	r0, #1
.LVL514:
	.loc 5 82 0
	bx	lr
.L346:
	.align	2
.L345:
	.word	.LANCHOR95
	.word	.LANCHOR96
	.cfi_endproc
.LFE309:
	.size	IsBlkInGcList, .-IsBlkInGcList
	.section	.text.FtlGcUpdatePage,"ax",%progbits
	.align	1
	.global	FtlGcUpdatePage
	.syntax unified
	.thumb
	.thumb_func
	.fpu softvfp
	.type	FtlGcUpdatePage, %function
FtlGcUpdatePage:
.LFB310:
	.loc 5 85 0
	.cfi_startproc
	@ args = 0, pretend = 0, frame = 0
	@ frame_needed = 0, uses_anonymous_args = 0
.LVL515:
	push	{r3, r4, r5, r6, r7, lr}
	.cfi_def_cfa_offset 24
	.cfi_offset 3, -24
	.cfi_offset 4, -20
	.cfi_offset 5, -16
	.cfi_offset 6, -12
	.cfi_offset 7, -8
	.cfi_offset 14, -4
	.loc 5 85 0
	mov	r5, r0
	.loc 5 91 0
	ldr	r4, .L351
	.loc 5 88 0
	ubfx	r0, r0, #10, #16
.LVL516:
	.loc 5 85 0
	mov	r6, r1
	mov	r7, r2
	.loc 5 88 0
	bl	P2V_block_in_plane
.LVL517:
	.loc 5 92 0
	ldr	r3, .L351+4
	.loc 5 91 0
	ldrh	r1, [r4]
	.loc 5 92 0
	ldr	r2, [r3]
	.loc 5 91 0
	movs	r3, #0
.LVL518:
.L348:
	uxth	ip, r3
.LVL519:
	.loc 5 91 0 is_stmt 0 discriminator 1
	cmp	ip, r1
	bcc	.L350
	.loc 5 96 0 is_stmt 1
	bne	.L349
	.loc 5 97 0
	strh	r0, [r2, ip, lsl #1]	@ movhi
	.loc 5 98 0
	ldrh	r3, [r4]
	adds	r3, r3, #1
	strh	r3, [r4]	@ movhi
	b	.L349
.L350:
	adds	r3, r3, #1
	.loc 5 92 0
	add	ip, r2, r3, lsl #1
.LVL520:
	ldrh	ip, [ip, #-2]
	cmp	ip, r0
	bne	.L348
.L349:
	.loc 5 101 0
	ldr	r2, .L351+8
	movs	r0, #12
.LVL521:
	ldr	r1, .L351+12
	ldrh	r3, [r2]
	ldr	r1, [r1]
	muls	r0, r3, r0
	.loc 5 107 0
	adds	r3, r3, #1
	.loc 5 101 0
	adds	r4, r1, r0
	str	r6, [r4, #4]
	.loc 5 102 0
	str	r7, [r4, #8]
	.loc 5 103 0
	str	r5, [r1, r0]
	.loc 5 107 0
	strh	r3, [r2]	@ movhi
	pop	{r3, r4, r5, r6, r7, pc}
.LVL522:
.L352:
	.align	2
.L351:
	.word	.LANCHOR96
	.word	.LANCHOR95
	.word	.LANCHOR97
	.word	.LANCHOR98
	.cfi_endproc
.LFE310:
	.size	FtlGcUpdatePage, .-FtlGcUpdatePage
	.section	.text.FtlGcRefreshBlock,"ax",%progbits
	.align	1
	.global	FtlGcRefreshBlock
	.syntax unified
	.thumb
	.thumb_func
	.fpu softvfp
	.type	FtlGcRefreshBlock, %function
FtlGcRefreshBlock:
.LFB317:
	.loc 5 345 0
	.cfi_startproc
	@ args = 0, pretend = 0, frame = 0
	@ frame_needed = 0, uses_anonymous_args = 0
.LVL523:
	push	{r3, r4, r5, lr}
	.cfi_def_cfa_offset 16
	.cfi_offset 3, -16
	.cfi_offset 4, -12
	.cfi_offset 5, -8
	.cfi_offset 14, -4
	.loc 5 347 0
	mov	r1, r0
	.loc 5 345 0
	mov	r4, r0
	.loc 5 347 0
	ldr	r0, .L356
.LVL524:
	bl	printf
.LVL525:
	.loc 5 349 0
	ldr	r0, .L356+4
	ldrh	r5, [r0]
	cmp	r4, r5
	beq	.L354
	.loc 5 349 0 is_stmt 0 discriminator 1
	ldr	r3, .L356+8
	ldrh	r1, [r3]
	cmp	r4, r1
	beq	.L354
	.loc 5 351 0 is_stmt 1
	movw	r2, #65535
	cmp	r5, r2
	bne	.L355
	.loc 5 352 0
	strh	r4, [r0]	@ movhi
.L354:
	.loc 5 356 0
	movs	r0, #0
	pop	{r3, r4, r5, pc}
.L355:
	.loc 5 353 0
	cmp	r1, r2
	.loc 5 354 0
	it	eq
	strheq	r4, [r3]	@ movhi
	b	.L354
.L357:
	.align	2
.L356:
	.word	.LC73
	.word	.LANCHOR99
	.word	.LANCHOR100
	.cfi_endproc
.LFE317:
	.size	FtlGcRefreshBlock, .-FtlGcRefreshBlock
	.section	.text.FtlGcMarkBadPhyBlk,"ax",%progbits
	.align	1
	.global	FtlGcMarkBadPhyBlk
	.syntax unified
	.thumb
	.thumb_func
	.fpu softvfp
	.type	FtlGcMarkBadPhyBlk, %function
FtlGcMarkBadPhyBlk:
.LFB318:
	.loc 5 359 0
	.cfi_startproc
	@ args = 0, pretend = 0, frame = 0
	@ frame_needed = 0, uses_anonymous_args = 0
.LVL526:
	push	{r4, r5, r6, lr}
	.cfi_def_cfa_offset 16
	.cfi_offset 4, -16
	.cfi_offset 5, -12
	.cfi_offset 6, -8
	.cfi_offset 14, -4
	.loc 5 359 0
	mov	r5, r0
	.loc 5 364 0
	ldr	r4, .L362
	.loc 5 361 0
	bl	P2V_block_in_plane
.LVL527:
	.loc 5 364 0
	mov	r2, r5
	.loc 5 361 0
	mov	r6, r0
.LVL528:
	.loc 5 364 0
	ldrh	r1, [r4]
	ldr	r0, .L362+4
	bl	printf
.LVL529:
	.loc 5 366 0
	mov	r0, r6
	bl	FtlGcRefreshBlock
.LVL530:
	.loc 5 368 0
	ldrh	r3, [r4]
	movs	r2, #0
	.loc 5 369 0
	ldr	r0, .L362+8
.LVL531:
.L359:
	.loc 5 368 0 discriminator 1
	uxth	r1, r2
	cmp	r3, r1
	bhi	.L361
	.loc 5 372 0
	cmp	r3, #15
	.loc 5 373 0
	itttt	ls
	addls	r2, r3, #1
.LVL532:
	strhls	r2, [r4]	@ movhi
	ldrls	r2, .L362+8
	strhls	r5, [r2, r3, lsl #1]	@ movhi
	b	.L360
.LVL533:
.L361:
	adds	r2, r2, #1
.LVL534:
	.loc 5 369 0
	add	r1, r0, r2, lsl #1
.LVL535:
	ldrh	r1, [r1, #-2]
	cmp	r1, r5
	bne	.L359
.L360:
	.loc 5 375 0
	movs	r0, #0
	pop	{r4, r5, r6, pc}
.LVL536:
.L363:
	.align	2
.L362:
	.word	.LANCHOR101
	.word	.LC74
	.word	.LANCHOR102
	.cfi_endproc
.LFE318:
	.size	FtlGcMarkBadPhyBlk, .-FtlGcMarkBadPhyBlk
	.section	.text.FtlGcReFreshBadBlk,"ax",%progbits
	.align	1
	.global	FtlGcReFreshBadBlk
	.syntax unified
	.thumb
	.thumb_func
	.fpu softvfp
	.type	FtlGcReFreshBadBlk, %function
FtlGcReFreshBadBlk:
.LFB319:
	.loc 5 379 0
	.cfi_startproc
	@ args = 0, pretend = 0, frame = 0
	@ frame_needed = 0, uses_anonymous_args = 0
	.loc 5 380 0
	ldr	r3, .L370
	.loc 5 379 0
	push	{r4, lr}
	.cfi_def_cfa_offset 8
	.cfi_offset 4, -8
	.cfi_offset 14, -4
	.loc 5 380 0
	ldrh	r3, [r3]
	cbz	r3, .L365
	.loc 5 380 0 is_stmt 0 discriminator 1
	ldr	r2, .L370+4
	ldrh	r1, [r2]
	movw	r2, #65535
	cmp	r1, r2
	bne	.L365
	.loc 5 381 0 is_stmt 1
	ldr	r4, .L370+8
	ldrh	r2, [r4]
	cmp	r2, r3
	.loc 5 382 0
	itt	cs
	movcs	r3, #0
	strhcs	r3, [r4]	@ movhi
.LBB233:
.LBB234:
	.loc 5 383 0
	ldr	r3, .L370+12
	ldrh	r2, [r4]
	ldrh	r0, [r3, r2, lsl #1]
	bl	P2V_block_in_plane
.LVL537:
	bl	FtlGcRefreshBlock
.LVL538:
	.loc 5 384 0
	ldrh	r3, [r4]
	adds	r3, r3, #1
	strh	r3, [r4]	@ movhi
.L365:
.LBE234:
.LBE233:
	.loc 5 387 0
	movs	r0, #0
	pop	{r4, pc}
.L371:
	.align	2
.L370:
	.word	.LANCHOR101
	.word	.LANCHOR99
	.word	.LANCHOR103
	.word	.LANCHOR102
	.cfi_endproc
.LFE319:
	.size	FtlGcReFreshBadBlk, .-FtlGcReFreshBadBlk
	.section	.text.ftl_free,"ax",%progbits
	.align	1
	.global	ftl_free
	.syntax unified
	.thumb
	.thumb_func
	.fpu softvfp
	.type	ftl_free, %function
ftl_free:
.LFB340:
	.loc 1 24 0
	.cfi_startproc
	@ args = 0, pretend = 0, frame = 0
	@ frame_needed = 0, uses_anonymous_args = 0
	@ link register save eliminated.
.LVL539:
.LBB235:
.LBB236:
	.file 6 "include/linux/compat.h"
	.loc 6 80 0
	b	free
.LVL540:
.LBE236:
.LBE235:
	.cfi_endproc
.LFE340:
	.size	ftl_free, .-ftl_free
	.section	.text.ftl_malloc,"ax",%progbits
	.align	1
	.global	ftl_malloc
	.syntax unified
	.thumb
	.thumb_func
	.fpu softvfp
	.type	ftl_malloc, %function
ftl_malloc:
.LFB341:
	.loc 1 28 0
	.cfi_startproc
	@ args = 0, pretend = 0, frame = 0
	@ frame_needed = 0, uses_anonymous_args = 0
	@ link register save eliminated.
.LVL541:
	.loc 1 29 0
	movs	r1, #0
	b	kmalloc
.LVL542:
	.cfi_endproc
.LFE341:
	.size	ftl_malloc, .-ftl_malloc
	.section	.text.rknand_print_hex,"ax",%progbits
	.align	1
	.global	rknand_print_hex
	.syntax unified
	.thumb
	.thumb_func
	.fpu softvfp
	.type	rknand_print_hex, %function
rknand_print_hex:
.LFB342:
	.loc 1 33 0
	.cfi_startproc
	@ args = 0, pretend = 0, frame = 0
	@ frame_needed = 0, uses_anonymous_args = 0
.LVL543:
	push	{r4, r5, r6, r7, r8, r10, fp, lr}
	.cfi_def_cfa_offset 32
	.cfi_offset 4, -32
	.cfi_offset 5, -28
	.cfi_offset 6, -24
	.cfi_offset 7, -20
	.cfi_offset 8, -16
	.cfi_offset 10, -12
	.cfi_offset 11, -8
	.cfi_offset 14, -4
	.loc 1 40 0
	movs	r6, #0
	.loc 1 33 0
	mov	fp, r0
	mov	r7, r1
.LVL544:
	mov	r8, r2
	mov	r10, r3
	.loc 1 39 0
	mov	r5, r6
	.loc 1 40 0
	mov	r4, r6
.LVL545:
.L375:
	.loc 1 40 0 is_stmt 0 discriminator 1
	cmp	r4, r10
	bcc	.L381
	.loc 1 55 0 is_stmt 1
	ldr	r0, .L384
	.loc 1 56 0
	pop	{r4, r5, r6, r7, r8, r10, fp, lr}
	.cfi_remember_state
	.cfi_restore 14
	.cfi_restore 11
	.cfi_restore 10
	.cfi_restore 8
	.cfi_restore 7
	.cfi_restore 6
	.cfi_restore 5
	.cfi_restore 4
	.cfi_def_cfa_offset 0
.LVL546:
	.loc 1 55 0
	b	printf
.LVL547:
.L381:
	.cfi_restore_state
	.loc 1 41 0
	cbnz	r5, .L376
	.loc 1 42 0
	mov	r2, r6
	mov	r1, fp
	ldr	r0, .L384+4
	bl	printf
.LVL548:
.L376:
	.loc 1 44 0
	cmp	r8, #4
	bne	.L377
	.loc 1 45 0
	ldr	r1, [r7, r4, lsl #2]
.L383:
	.loc 1 47 0
	ldr	r0, .L384+8
.L382:
	.loc 1 50 0
	adds	r5, r5, #1
.LVL549:
	.loc 1 49 0
	bl	printf
.LVL550:
	.loc 1 50 0
	cmp	r5, #15
	bls	.L380
.LVL551:
	.loc 1 51 0
	movs	r5, #0
	.loc 1 52 0
	ldr	r0, .L384
	bl	printf
.LVL552:
.L380:
	.loc 1 40 0 discriminator 2
	adds	r4, r4, #1
.LVL553:
	add	r6, r6, r8
	b	.L375
.L377:
	.loc 1 46 0
	cmp	r8, #2
	bne	.L379
	.loc 1 47 0
	ldrsh	r1, [r7, r4, lsl #1]
	b	.L383
.L379:
	.loc 1 49 0
	ldrb	r1, [r7, r4]	@ zero_extendqisi2
	ldr	r0, .L384+12
	b	.L382
.L385:
	.align	2
.L384:
	.word	.LC78
	.word	.LC75
	.word	.LC76
	.word	.LC77
	.cfi_endproc
.LFE342:
	.size	rknand_print_hex, .-rknand_print_hex
	.section	.text.FlashReadPages,"ax",%progbits
	.align	1
	.global	FlashReadPages
	.syntax unified
	.thumb
	.thumb_func
	.fpu softvfp
	.type	FlashReadPages, %function
FlashReadPages:
.LFB344:
	.loc 1 85 0
	.cfi_startproc
	@ args = 0, pretend = 0, frame = 16
	@ frame_needed = 0, uses_anonymous_args = 0
.LVL554:
	push	{r0, r1, r2, r3, r4, r5, r6, r7, r8, r10, fp, lr}
	.cfi_def_cfa_offset 48
	.cfi_offset 4, -32
	.cfi_offset 5, -28
	.cfi_offset 6, -24
	.cfi_offset 7, -20
	.cfi_offset 8, -16
	.cfi_offset 10, -12
	.cfi_offset 11, -8
	.cfi_offset 14, -4
	.loc 1 85 0
	mov	r8, r1
	.loc 1 87 0
	ldr	r3, .L404
	mov	r4, r0
	.loc 1 91 0
	movs	r5, #0
	.loc 1 92 0
	ldr	fp, .L404+12
	.loc 1 87 0
	ldrh	r2, [r3, #12]
.LVL555:
	mov	r10, r3
	str	r2, [sp, #4]
.LVL556:
.L387:
	.loc 1 91 0 discriminator 1
	cmp	r5, r8
	bne	.L394
	.loc 1 112 0
	movs	r0, #0
	add	sp, sp, #16
	.cfi_remember_state
	.cfi_def_cfa_offset 32
	@ sp needed
	pop	{r4, r5, r6, r7, r8, r10, fp, pc}
.LVL557:
.L394:
	.cfi_restore_state
	.loc 1 92 0
	ldr	r3, [r4, #8]
	cbz	r3, .L388
	.loc 1 92 0 is_stmt 0 discriminator 2
	ldr	r3, [r4, #12]
	cbnz	r3, .L389
.L388:
	.loc 1 92 0 discriminator 3
	movs	r2, #92
	ldr	r1, .L404+4
	mov	r0, fp
	bl	printf
.LVL558:
.L389:
	.loc 1 94 0 is_stmt 1
	ldr	r6, .L404+8
	.loc 1 93 0
	add	r2, sp, #8
	add	r1, sp, #12
	ldr	r0, [r4, #4]
	bl	l2p_addr_tran.isra.0
.LVL559:
	.loc 1 94 0
	ldr	r3, [r4, #12]
	ldr	r2, [r4, #8]
	ldr	r1, [sp, #12]
	ldrb	r0, [sp, #8]	@ zero_extendqisi2
	ldr	r7, [r6, #12]
	blx	r7
.LVL560:
	.loc 1 99 0
	ldrh	r3, [r10, #14]
	.loc 1 98 0
	str	r0, [r4]
	.loc 1 99 0
	cmp	r3, #4
	bne	.L391
	.loc 1 100 0
	ldr	r0, [sp, #4]
.LVL561:
	ldr	r3, [r4, #12]
	ldr	r2, [r4, #8]
	ldr	r1, [sp, #12]
	ldr	r6, [r6, #12]
	adds	r3, r3, #8
	add	r2, r2, #2048
	add	r1, r1, r0
	ldrb	r0, [sp, #8]	@ zero_extendqisi2
	blx	r6
.LVL562:
	.loc 1 104 0
	adds	r0, r0, #1
.LVL563:
	beq	.L392
	.loc 1 105 0 discriminator 1
	ldr	r3, [r4, #12]
	.loc 1 104 0 discriminator 1
	ldr	r2, [r3, #12]
	adds	r2, r2, #1
	bne	.L391
	.loc 1 105 0
	ldr	r2, [r3, #8]
	adds	r2, r2, #1
	bne	.L391
	.loc 1 106 0
	ldr	r3, [r3]
	adds	r3, r3, #1
	beq	.L391
.L392:
	.loc 1 108 0
	mov	r3, #-1
	str	r3, [r4]
.LVL564:
.L391:
	.loc 1 91 0 discriminator 2
	adds	r5, r5, #1
.LVL565:
	adds	r4, r4, #20
	b	.L387
.L405:
	.align	2
.L404:
	.word	.LANCHOR0
	.word	.LANCHOR104
	.word	.LANCHOR105
	.word	.LC1
	.cfi_endproc
.LFE344:
	.size	FlashReadPages, .-FlashReadPages
	.section	.text.FtlLoadFactoryBbt,"ax",%progbits
	.align	1
	.global	FtlLoadFactoryBbt
	.syntax unified
	.thumb
	.thumb_func
	.fpu softvfp
	.type	FtlLoadFactoryBbt, %function
FtlLoadFactoryBbt:
.LFB233:
	.loc 4 279 0
	.cfi_startproc
	@ args = 0, pretend = 0, frame = 0
	@ frame_needed = 0, uses_anonymous_args = 0
	.loc 4 286 0
	ldr	r3, .L416
	.loc 4 279 0
	push	{r4, r5, r6, r7, r8, r10, fp, lr}
	.cfi_def_cfa_offset 32
	.cfi_offset 4, -32
	.cfi_offset 5, -28
	.cfi_offset 6, -24
	.cfi_offset 7, -20
	.cfi_offset 8, -16
	.cfi_offset 10, -12
	.cfi_offset 11, -8
	.cfi_offset 14, -4
	.loc 4 289 0
	movs	r6, #0
	.loc 4 286 0
	ldr	r5, .L416+4
	ldr	r3, [r3]
	ldr	r7, .L416+8
	.loc 4 291 0
	ldr	r10, .L416+20
	.loc 4 286 0
	str	r3, [r5, #8]
	.loc 4 287 0
	ldr	r3, .L416+12
	ldr	r8, [r3]
	str	r8, [r5, #12]
.LVL566:
.L407:
	.loc 4 289 0 discriminator 1
	ldr	r3, .L416+16
	ldrh	r3, [r3]
	cmp	r6, r3
	bcc	.L412
	.loc 4 314 0
	movs	r0, #0
	pop	{r4, r5, r6, r7, r8, r10, fp, pc}
.LVL567:
.L412:
	.loc 4 291 0
	ldrh	r4, [r10]
	.loc 4 290 0
	movw	r3, #65535
	.loc 4 294 0
	ldr	fp, .L416+4
	.loc 4 290 0
	strh	r3, [r7, #2]!	@ movhi
	.loc 4 291 0
	subs	r4, r4, #1
	uxth	r4, r4
.LVL568:
.L408:
	.loc 4 291 0 is_stmt 0 discriminator 1
	ldrh	r3, [r10]
	sub	r2, r3, #15
	cmp	r2, r4
	bgt	.L410
.LVL569:
	.loc 4 292 0 is_stmt 1
	mla	r3, r6, r3, r4
.LVL570:
	.loc 4 294 0
	movs	r2, #1
.LVL571:
	mov	r1, r2
	mov	r0, fp
	.loc 4 292 0
	lsls	r3, r3, #10
	.loc 4 293 0
	str	r3, [r5, #4]
	.loc 4 294 0
	bl	FlashReadPages
.LVL572:
	.loc 4 295 0
	ldr	r3, [r5]
	adds	r3, r3, #1
	beq	.L409
	.loc 4 301 0
	ldrh	r2, [r8]
	movw	r3, #61664
	cmp	r2, r3
	bne	.L409
	.loc 4 303 0
	strh	r4, [r7]	@ movhi
.L410:
	.loc 4 289 0 discriminator 2
	adds	r6, r6, #1
.LVL573:
	b	.L407
.L409:
	.loc 4 291 0 discriminator 2
	subs	r4, r4, #1
.LVL574:
	uxth	r4, r4
.LVL575:
	b	.L408
.L417:
	.align	2
.L416:
	.word	.LANCHOR107
	.word	.LANCHOR106
	.word	.LANCHOR37+10
	.word	.LANCHOR108
	.word	.LANCHOR10
	.word	.LANCHOR17
	.cfi_endproc
.LFE233:
	.size	FtlLoadFactoryBbt, .-FtlLoadFactoryBbt
	.section	.text.FtlGetLastWrittenPage,"ax",%progbits
	.align	1
	.global	FtlGetLastWrittenPage
	.syntax unified
	.thumb
	.thumb_func
	.fpu softvfp
	.type	FtlGetLastWrittenPage, %function
FtlGetLastWrittenPage:
.LFB239:
	.loc 2 47 0
	.cfi_startproc
	@ args = 0, pretend = 0, frame = 88
	@ frame_needed = 0, uses_anonymous_args = 0
.LVL576:
	.loc 2 51 0
	cmp	r1, #1
	.loc 2 47 0
	push	{r4, r5, r6, r7, r8, lr}
	.cfi_def_cfa_offset 24
	.cfi_offset 4, -24
	.cfi_offset 5, -20
	.cfi_offset 6, -16
	.cfi_offset 7, -12
	.cfi_offset 8, -8
	.cfi_offset 14, -4
	.loc 2 51 0
	it	eq
	ldreq	r3, .L427
	.loc 2 47 0
	sub	sp, sp, #88
	.cfi_def_cfa_offset 112
	.loc 2 57 0
	lsl	r7, r0, #10
	.loc 2 58 0
	mov	r2, r1
	.loc 2 51 0
	it	ne
	ldrne	r3, .L427+4
	.loc 2 47 0
	mov	r6, r1
	.loc 2 58 0
	add	r0, sp, #4
.LVL577:
	movs	r1, #1
.LVL578:
	.loc 2 51 0
	ldrh	r5, [r3]
.LVL579:
	.loc 2 53 0
	ldr	r3, .L427+8
	.loc 2 56 0
	subs	r5, r5, #1
.LVL580:
	sxth	r5, r5
.LVL581:
	.loc 2 53 0
	str	r3, [sp, #12]
	.loc 2 54 0
	add	r3, sp, #24
	str	r3, [sp, #16]
.LVL582:
	.loc 2 57 0
	orr	r3, r5, r7
	str	r3, [sp, #8]
	.loc 2 58 0
	bl	FlashReadPages
.LVL583:
	.loc 2 59 0
	ldr	r3, [sp, #24]
	adds	r3, r3, #1
	bne	.L421
	mov	r8, #0
.LVL584:
.L422:
	.loc 2 60 0
	cmp	r8, r5
	ble	.L425
.LVL585:
.L421:
	.loc 2 73 0
	mov	r0, r5
	add	sp, sp, #88
	.cfi_remember_state
	.cfi_def_cfa_offset 24
	@ sp needed
	pop	{r4, r5, r6, r7, r8, pc}
.LVL586:
.L425:
	.cfi_restore_state
	.loc 2 61 0
	add	r3, r8, r5
	.loc 2 63 0
	mov	r2, r6
	.loc 2 61 0
	add	r3, r3, r3, lsr #31
	.loc 2 63 0
	movs	r1, #1
	add	r0, sp, #4
	.loc 2 61 0
	asrs	r4, r3, #1
.LVL587:
	.loc 2 62 0
	sxth	r3, r4
	orrs	r3, r3, r7
	str	r3, [sp, #8]
	.loc 2 63 0
	bl	FlashReadPages
.LVL588:
	.loc 2 65 0
	ldr	r3, [sp, #24]
	adds	r3, r3, #1
	bne	.L423
	.loc 2 65 0 is_stmt 0 discriminator 1
	ldr	r3, [sp, #28]
	adds	r3, r3, #1
	bne	.L423
	.loc 2 66 0 is_stmt 1
	subs	r4, r4, #1
.LVL589:
	sxth	r5, r4
.LVL590:
	b	.L422
.LVL591:
.L423:
	.loc 2 68 0
	adds	r4, r4, #1
.LVL592:
	sxth	r8, r4
.LVL593:
	b	.L422
.L428:
	.align	2
.L427:
	.word	.LANCHOR20
	.word	.LANCHOR19
	.word	ftl_temp_buf
	.cfi_endproc
.LFE239:
	.size	FtlGetLastWrittenPage, .-FtlGetLastWrittenPage
	.section	.text.FlashProgPages,"ax",%progbits
	.align	1
	.global	FlashProgPages
	.syntax unified
	.thumb
	.thumb_func
	.fpu softvfp
	.type	FlashProgPages, %function
FlashProgPages:
.LFB345:
	.loc 1 115 0
	.cfi_startproc
	@ args = 0, pretend = 0, frame = 40
	@ frame_needed = 0, uses_anonymous_args = 0
.LVL594:
	push	{r4, r5, r6, r7, r8, r10, fp, lr}
	.cfi_def_cfa_offset 32
	.cfi_offset 4, -32
	.cfi_offset 5, -28
	.cfi_offset 6, -24
	.cfi_offset 7, -20
	.cfi_offset 8, -16
	.cfi_offset 10, -12
	.cfi_offset 11, -8
	.cfi_offset 14, -4
	sub	sp, sp, #40
	.cfi_def_cfa_offset 72
	.loc 1 115 0
	str	r3, [sp]
	mov	r10, r1
	mov	r7, r2
	mov	r4, r0
	.loc 1 117 0
	ldr	r3, .L459
.LVL595:
	.loc 1 121 0
	mov	r5, r0
	movs	r6, #0
	.loc 1 117 0
	ldrh	r8, [r3, #12]
.LVL596:
	str	r3, [sp, #4]
.LVL597:
.L430:
	.loc 1 121 0 discriminator 1
	cmp	r6, r10
	bne	.L438
	.loc 1 142 0
	ldr	r3, [sp]
	cmp	r3, #0
	bne	.L445
.LVL598:
.L458:
	.loc 1 172 0
	movs	r0, #0
	add	sp, sp, #40
	.cfi_remember_state
	.cfi_def_cfa_offset 32
.LVL599:
	@ sp needed
	pop	{r4, r5, r6, r7, r8, r10, fp, pc}
.LVL600:
.L438:
	.cfi_restore_state
	.loc 1 122 0
	ldr	r3, [r5, #8]
	cbz	r3, .L431
	.loc 1 122 0 is_stmt 0 discriminator 2
	ldr	r3, [r5, #12]
	cbnz	r3, .L432
.L431:
	.loc 1 122 0 discriminator 3
	movs	r2, #122
	ldr	r1, .L459+4
	ldr	r0, .L459+8
	bl	printf
.LVL601:
.L432:
	.loc 1 123 0 is_stmt 1
	add	r2, sp, #12
	add	r1, sp, #16
	ldr	r0, [r5, #4]
	bl	l2p_addr_tran.isra.0
.LVL602:
	.loc 1 124 0
	ldr	r3, .L459+12
	ldr	r2, [r5, #8]
	ldr	r1, [sp, #16]
	ldr	fp, [r3, #8]
	ldrb	r0, [sp, #12]	@ zero_extendqisi2
	ldr	r3, [r5, #12]
	blx	fp
.LVL603:
	.loc 1 129 0
	cbnz	r0, .L433
	.loc 1 128 0
	str	r0, [r5]
.L434:
	.loc 1 132 0
	ldr	r3, [sp, #4]
	ldrh	r3, [r3, #14]
	cmp	r3, #4
	bne	.L436
	.loc 1 133 0
	ldr	r1, .L459+12
	ldr	r3, [r5, #12]
	ldr	r2, [r5, #8]
	ldr	fp, [r1, #8]
	ldr	r1, [sp, #16]
	adds	r3, r3, #8
	add	r2, r2, #2048
	ldrb	r0, [sp, #12]	@ zero_extendqisi2
.LVL604:
	add	r1, r1, r8
	blx	fp
.LVL605:
	.loc 1 137 0
	cbz	r0, .L436
	.loc 1 138 0
	mov	r3, #-1
	str	r3, [r5]
.L436:
	.loc 1 121 0 discriminator 2
	adds	r6, r6, #1
.LVL606:
	adds	r5, r5, #20
	b	.L430
.L433:
	.loc 1 130 0
	mov	r3, #-1
	str	r3, [r5]
	b	.L434
.LVL607:
.L443:
.LBB237:
	.loc 1 147 0
	movs	r3, #0
	.loc 1 153 0
	mov	r2, r7
	.loc 1 147 0
	str	r3, [r8]
	.loc 1 153 0
	movs	r1, #1
	.loc 1 148 0
	str	r3, [r10]
	.loc 1 153 0
	add	r0, sp, #20
	.loc 1 149 0
	ldr	r3, [r4, #4]
	.loc 1 150 0
	str	r8, [sp, #28]
	.loc 1 151 0
	str	r10, [sp, #32]
	.loc 1 149 0
	str	r3, [sp, #24]
	.loc 1 153 0
	bl	FlashReadPages
.LVL608:
	.loc 1 154 0
	ldr	fp, [sp, #20]
	cmp	fp, #-1
	bne	.L440
	.loc 1 155 0
	ldr	r1, [r4, #4]
	ldr	r0, .L459+16
	bl	printf
.LVL609:
	.loc 1 156 0
	str	fp, [r4]
.L440:
	.loc 1 158 0
	ldr	r3, [r4, #12]
	cbz	r3, .L441
	.loc 1 159 0
	ldr	r2, [r3]
	ldr	r3, [r10]
	cmp	r2, r3
	beq	.L441
	.loc 1 160 0
	ldr	r1, [r4, #4]
	ldr	r0, .L459+20
	bl	printf
.LVL610:
	.loc 1 161 0
	mov	r3, #-1
	str	r3, [r4]
.L441:
	.loc 1 164 0
	ldr	r3, [r4, #8]
	cbz	r3, .L442
	.loc 1 165 0
	ldr	r2, [r3]
	ldr	r3, [r8]
	cmp	r2, r3
	beq	.L442
	.loc 1 166 0
	ldr	r1, [r4, #4]
	ldr	r0, .L459+24
	bl	printf
.LVL611:
	.loc 1 167 0
	mov	r3, #-1
	str	r3, [r4]
.L442:
.LBE237:
	.loc 1 144 0 discriminator 2
	adds	r5, r5, #1
.LVL612:
	adds	r4, r4, #20
.LVL613:
.L439:
	.loc 1 144 0 is_stmt 0 discriminator 1
	cmp	r6, r5
	bne	.L443
	b	.L458
.LVL614:
.L445:
	movs	r5, #0
.LBB238:
	.loc 1 147 0 is_stmt 1
	ldr	r8, .L459+28
.LVL615:
	.loc 1 148 0
	ldr	r10, .L459+32
.LVL616:
	b	.L439
.L460:
	.align	2
.L459:
	.word	.LANCHOR0
	.word	.LANCHOR109
	.word	.LC1
	.word	.LANCHOR105
	.word	.LC79
	.word	.LC80
	.word	.LC81
	.word	check_buf
	.word	.LANCHOR110
.LBE238:
	.cfi_endproc
.LFE345:
	.size	FlashProgPages, .-FlashProgPages
	.section	.text.FlashEraseBlocks,"ax",%progbits
	.align	1
	.global	FlashEraseBlocks
	.syntax unified
	.thumb
	.thumb_func
	.fpu softvfp
	.type	FlashEraseBlocks, %function
FlashEraseBlocks:
.LFB346:
	.loc 1 175 0
	.cfi_startproc
	@ args = 0, pretend = 0, frame = 8
	@ frame_needed = 0, uses_anonymous_args = 0
.LVL617:
	push	{r0, r1, r2, r4, r5, r6, r7, r8, r10, lr}
	.cfi_def_cfa_offset 40
	.cfi_offset 4, -28
	.cfi_offset 5, -24
	.cfi_offset 6, -20
	.cfi_offset 7, -16
	.cfi_offset 8, -12
	.cfi_offset 10, -8
	.cfi_offset 14, -4
	.loc 1 175 0
	mov	r7, r2
	.loc 1 178 0
	ldr	r5, .L472
	adds	r4, r0, #4
	.loc 1 181 0
	movs	r6, #0
	.loc 1 183 0
	ldr	r10, .L472+4
	.loc 1 178 0
	ldrh	r8, [r5, #12]
.LVL618:
.L462:
	.loc 1 181 0 discriminator 1
	cmp	r6, r7
	bne	.L468
	.loc 1 194 0
	movs	r0, #0
	add	sp, sp, #12
	.cfi_remember_state
	.cfi_def_cfa_offset 28
	@ sp needed
	pop	{r4, r5, r6, r7, r8, r10, pc}
.LVL619:
.L468:
	.cfi_restore_state
	.loc 1 182 0
	add	r1, sp, #4
	mov	r2, sp
	ldr	r0, [r4]
	bl	l2p_addr_tran.isra.0
.LVL620:
	.loc 1 183 0
	ldr	r3, [r10, #4]
	ldr	r1, [sp, #4]
	ldrb	r0, [sp]	@ zero_extendqisi2
	blx	r3
.LVL621:
	.loc 1 185 0
	cbnz	r0, .L463
	.loc 1 184 0
	str	r0, [r4, #-4]
.L464:
	.loc 1 187 0
	ldrh	r3, [r5, #14]
	cmp	r3, #4
	bne	.L466
	.loc 1 188 0
	ldr	r1, [sp, #4]
	ldr	r3, [r10, #4]
	ldrb	r0, [sp]	@ zero_extendqisi2
.LVL622:
	add	r1, r1, r8
	blx	r3
.LVL623:
	.loc 1 189 0
	cbz	r0, .L466
	.loc 1 190 0
	mov	r3, #-1
	str	r3, [r4, #-4]
.L466:
	.loc 1 181 0 discriminator 2
	adds	r6, r6, #1
.LVL624:
	adds	r4, r4, #20
	b	.L462
.L463:
	.loc 1 186 0
	mov	r3, #-1
	str	r3, [r4, #-4]
	b	.L464
.L473:
	.align	2
.L472:
	.word	.LANCHOR0
	.word	.LANCHOR105
	.cfi_endproc
.LFE346:
	.size	FlashEraseBlocks, .-FlashEraseBlocks
	.section	.text.FtlFreeSysBlkQueueIn,"ax",%progbits
	.align	1
	.global	FtlFreeSysBlkQueueIn
	.syntax unified
	.thumb
	.thumb_func
	.fpu softvfp
	.type	FtlFreeSysBlkQueueIn, %function
FtlFreeSysBlkQueueIn:
.LFB243:
	.loc 2 98 0
	.cfi_startproc
	@ args = 0, pretend = 0, frame = 0
	@ frame_needed = 0, uses_anonymous_args = 0
.LVL625:
	.loc 2 99 0
	subs	r3, r0, #1
	movw	r2, #65533
	uxth	r3, r3
	.loc 2 98 0
	push	{r4, r5, r6, lr}
	.cfi_def_cfa_offset 16
	.cfi_offset 4, -16
	.cfi_offset 5, -12
	.cfi_offset 6, -8
	.cfi_offset 14, -4
	.loc 2 98 0
	mov	r5, r0
	.loc 2 99 0
	cmp	r3, r2
	bhi	.L474
.LBB247:
.LBB248:
	.loc 2 94 0
	ldr	r4, .L483
.LBE248:
.LBE247:
	.loc 2 101 0
	ldrh	r3, [r4, #6]
	cmp	r3, #1024
	beq	.L474
.LVL626:
.LBB249:
.LBB250:
	.loc 2 103 0
	cbz	r1, .L476
.LBB251:
	.loc 2 104 0
	bl	P2V_block_in_plane
.LVL627:
	.loc 2 105 0
	ldr	r3, .L483+4
	.loc 2 104 0
	mov	r6, r0
.LVL628:
	.loc 2 106 0
	movs	r2, #1
	mov	r1, r2
	.loc 2 105 0
	ldr	r0, [r3]
	lsls	r3, r5, #10
	str	r3, [r0, #4]
	.loc 2 106 0
	bl	FlashEraseBlocks
.LVL629:
	.loc 2 107 0
	ldr	r3, .L483+8
	ldr	r2, [r3]
	ldrh	r3, [r2, r6, lsl #1]
	adds	r3, r3, #1
	strh	r3, [r2, r6, lsl #1]	@ movhi
	.loc 2 108 0
	ldr	r2, .L483+12
	ldr	r3, [r2]
	adds	r3, r3, #1
	str	r3, [r2]
.LVL630:
.L476:
.LBE251:
	.loc 2 110 0
	ldrh	r3, [r4, #6]
	adds	r3, r3, #1
	strh	r3, [r4, #6]	@ movhi
	.loc 2 111 0
	ldrh	r3, [r4, #4]
	adds	r2, r3, #4
	.loc 2 112 0
	adds	r3, r3, #1
	ubfx	r3, r3, #0, #10
	.loc 2 111 0
	strh	r5, [r4, r2, lsl #1]	@ movhi
	.loc 2 112 0
	strh	r3, [r4, #4]	@ movhi
.LVL631:
.L474:
	pop	{r4, r5, r6, pc}
.L484:
	.align	2
.L483:
	.word	.LANCHOR38
	.word	.LANCHOR111
	.word	.LANCHOR43
	.word	.LANCHOR75
.LBE250:
.LBE249:
	.cfi_endproc
.LFE243:
	.size	FtlFreeSysBlkQueueIn, .-FtlFreeSysBlkQueueIn
	.section	.text.FtlLowFormatEraseBlock,"ax",%progbits
	.align	1
	.global	FtlLowFormatEraseBlock
	.syntax unified
	.thumb
	.thumb_func
	.fpu softvfp
	.type	FtlLowFormatEraseBlock, %function
FtlLowFormatEraseBlock:
.LFB212:
	.loc 3 528 0
	.cfi_startproc
	@ args = 0, pretend = 0, frame = 32
	@ frame_needed = 0, uses_anonymous_args = 0
.LVL632:
	.loc 3 538 0
	ldr	r3, .L528
	.loc 3 528 0
	push	{r4, r5, r6, r7, r8, r10, fp, lr}
	.cfi_def_cfa_offset 32
	.cfi_offset 4, -32
	.cfi_offset 5, -28
	.cfi_offset 6, -24
	.cfi_offset 7, -20
	.cfi_offset 8, -16
	.cfi_offset 10, -12
	.cfi_offset 11, -8
	.cfi_offset 14, -4
	sub	sp, sp, #32
	.cfi_def_cfa_offset 64
	.loc 3 540 0
	ldr	r6, .L528+4
	.loc 3 539 0
	mov	fp, #0
	.loc 3 536 0
	mov	r5, fp
	.loc 3 537 0
	mov	r4, fp
	.loc 3 538 0
	str	r0, [r3]
.LVL633:
	.loc 3 540 0
	mov	r10, #20
	.loc 3 539 0
	ldr	r3, .L528+8
	.loc 3 540 0
	ldr	r8, [r6]
	.loc 3 528 0
	str	r0, [sp, #4]
	.loc 3 539 0
	ldrh	r3, [r3]
	.loc 3 528 0
	str	r1, [sp]
	.loc 3 539 0
	str	r3, [sp, #8]
	.loc 3 550 0
	ldr	r3, .L528+12
	ldr	r3, [r3]
	str	r3, [sp, #12]
	.loc 3 551 0
	ldr	r3, .L528+16
	ldr	r3, [r3]
	str	r3, [sp, #16]
	ldr	r3, .L528+20
	ldrh	r3, [r3]
	str	r3, [sp, #20]
.LVL634:
.L486:
	.loc 3 539 0 discriminator 1
	ldr	r3, [sp, #8]
	uxth	r2, fp
	cmp	r3, r2
	bhi	.L490
	.loc 3 559 0
	cmp	r5, #0
	beq	.L485
	.loc 3 562 0
	mov	r0, r8
	.loc 3 563 0
	movs	r7, #0
	.loc 3 564 0
	mov	r8, #20
	.loc 3 562 0
	mov	r2, r5
	movs	r1, #0
	bl	FlashEraseBlocks
.LVL635:
.L493:
	.loc 3 563 0 discriminator 1
	uxth	r3, r7
	cmp	r5, r3
	bhi	.L495
	.loc 3 571 0
	ldr	r3, [sp]
	cmp	r3, #0
	beq	.L511
.LVL636:
	.loc 3 573 0
	ldr	r3, .L528+24
	.loc 3 572 0
	mov	r8, #1
	.loc 3 573 0
	ldrh	r10, [r3]
.LVL637:
	.loc 3 574 0
	lsr	r3, r10, #2
	str	r3, [sp, #12]
.LVL638:
.L496:
	movs	r6, #0
.LVL639:
.L505:
	.loc 3 578 0
	ldr	r3, .L528+8
	mov	fp, #0
	.loc 3 577 0
	mov	r5, fp
	.loc 3 578 0
	ldrh	r3, [r3]
	str	r3, [sp, #16]
	.loc 3 579 0
	ldr	r3, .L528+4
	ldr	r3, [r3]
	str	r3, [sp, #8]
	.loc 3 587 0
	ldr	r3, .L528+28
	ldr	r3, [r3]
	str	r3, [sp, #20]
	.loc 3 588 0
	ldr	r3, .L528+12
	ldr	r3, [r3]
	str	r3, [sp, #24]
	ldr	r3, .L528+20
	ldrh	r3, [r3]
	str	r3, [sp, #28]
.LVL640:
.L497:
	.loc 3 578 0 discriminator 1
	ldr	r3, [sp, #16]
	uxth	r2, fp
	cmp	r3, r2
	bhi	.L500
	.loc 3 593 0
	cbz	r5, .L485
	.loc 3 598 0
	ldr	fp, .L528+4
.LVL641:
	.loc 3 596 0
	movs	r3, #1
	mov	r2, r8
.LVL642:
	mov	r1, r5
	ldr	r0, [sp, #8]
	.loc 3 597 0
	movs	r7, #0
	.loc 3 596 0
	bl	FlashProgPages
.LVL643:
	.loc 3 598 0
	movs	r3, #20
.LVL644:
.L502:
	.loc 3 597 0 discriminator 1
	uxth	r2, r7
	cmp	r5, r2
	bhi	.L504
	.loc 3 604 0
	ldr	r3, [sp, #12]
	add	r6, r6, r3
.LVL645:
	uxth	r6, r6
.LVL646:
	.loc 3 605 0
	cmp	r10, r6
	bhi	.L505
	.loc 3 611 0 discriminator 1
	ldr	r7, .L528+4
.LVL647:
	movs	r6, #0
.LVL648:
	mov	r10, #20
.LVL649:
.L506:
	.loc 3 610 0 discriminator 1
	uxth	r3, r6
	cmp	r5, r3
	bhi	.L508
	.loc 3 615 0
	ldr	r3, [sp, #4]
	cmp	r3, #63
	bls	.L509
	.loc 3 615 0 is_stmt 0 discriminator 1
	ldr	r3, [sp]
	cbz	r3, .L485
.L509:
	.loc 3 616 0 is_stmt 1
	ldr	r3, .L528+4
	mov	r2, r5
	mov	r1, r8
	ldr	r0, [r3]
	bl	FlashEraseBlocks
.LVL650:
.L485:
	.loc 3 619 0
	mov	r0, r4
	add	sp, sp, #32
	.cfi_remember_state
	.cfi_def_cfa_offset 32
	@ sp needed
	pop	{r4, r5, r6, r7, r8, r10, fp, pc}
.LVL651:
.L490:
	.cfi_restore_state
	.loc 3 540 0
	mul	r2, r10, fp
	movs	r3, #0
	.loc 3 541 0
	ldr	r1, [sp, #4]
	.loc 3 540 0
	str	r3, [r8, r2]
	.loc 3 541 0
	ldr	r3, .L528+32
	ldrb	r0, [r3, fp]	@ zero_extendqisi2
	bl	V2P_block
.LVL652:
	.loc 3 543 0
	ldr	r3, [sp]
	.loc 3 541 0
	mov	r7, r0
.LVL653:
	.loc 3 543 0
	cbz	r3, .L487
	.loc 3 544 0
	bl	IsBlkInVendorPart
.LVL654:
	cbnz	r0, .L488
.L487:
	.loc 3 548 0
	mov	r0, r7
	bl	FtlBbmIsBadBlock
.LVL655:
	cbnz	r0, .L489
	.loc 3 549 0
	mla	r1, r10, r5, r8
	.loc 3 550 0
	ldr	r3, [sp, #12]
	.loc 3 549 0
	lsls	r7, r7, #10
	.loc 3 550 0
	str	r3, [r1, #8]
	.loc 3 551 0
	ldr	r3, [sp, #20]
	.loc 3 549 0
	str	r7, [r1, #4]
	.loc 3 551 0
	mul	r2, r3, r5
	ldr	r3, [sp, #16]
	.loc 3 552 0
	adds	r5, r5, #1
.LVL656:
	uxth	r5, r5
.LVL657:
	.loc 3 551 0
	bic	r2, r2, #3
	add	r2, r2, r3
	str	r2, [r1, #12]
.L488:
.LVL658:
	add	fp, fp, #1
.LVL659:
	b	.L486
.LVL660:
.L489:
	.loc 3 554 0
	adds	r4, r4, #1
.LVL661:
	uxth	r4, r4
.LVL662:
	b	.L488
.LVL663:
.L495:
	.loc 3 564 0
	mul	r3, r8, r7
	ldr	r2, [r6]
	adds	r1, r2, r3
	ldr	r3, [r2, r3]
	adds	r3, r3, #1
	bne	.L494
	.loc 3 566 0
	ldr	r0, [r1, #4]
	.loc 3 565 0
	adds	r4, r4, #1
.LVL664:
	uxth	r4, r4
.LVL665:
	.loc 3 566 0
	ubfx	r0, r0, #10, #16
	bl	FtlBbmMapBadBlock
.LVL666:
.L494:
	adds	r7, r7, #1
.LVL667:
	b	.L493
.LVL668:
.L511:
	.loc 3 533 0
	movs	r3, #6
	.loc 3 534 0
	ldr	r8, [sp]
	.loc 3 533 0
	str	r3, [sp, #12]
	.loc 3 531 0
	mov	r10, #1
	b	.L496
.LVL669:
.L500:
	.loc 3 579 0
	movs	r3, #20
	mul	r2, r3, fp
	ldr	r3, [sp, #8]
	mov	r1, r3
	movs	r3, #0
	str	r3, [r1, r2]
	.loc 3 580 0
	ldr	r3, .L528+32
	ldr	r1, [sp, #4]
	ldrb	r0, [r3, fp]	@ zero_extendqisi2
	bl	V2P_block
.LVL670:
	.loc 3 581 0
	ldr	r3, [sp]
	.loc 3 580 0
	mov	r7, r0
.LVL671:
	.loc 3 581 0
	cbz	r3, .L498
	.loc 3 582 0
	bl	IsBlkInVendorPart
.LVL672:
	cbnz	r0, .L499
.L498:
	.loc 3 585 0
	mov	r0, r7
	bl	FtlBbmIsBadBlock
.LVL673:
	cbnz	r0, .L499
	.loc 3 586 0
	ldr	r3, [sp, #8]
	movs	r2, #20
	add	r7, r6, r7, lsl #10
	mla	r1, r2, r5, r3
	.loc 3 587 0
	ldr	r3, [sp, #20]
	str	r3, [r1, #8]
	.loc 3 588 0
	ldr	r3, [sp, #28]
	.loc 3 586 0
	str	r7, [r1, #4]
	.loc 3 588 0
	mul	r2, r3, r5
	ldr	r3, [sp, #24]
	.loc 3 589 0
	adds	r5, r5, #1
.LVL674:
	uxth	r5, r5
.LVL675:
	.loc 3 588 0
	bic	r2, r2, #3
	add	r2, r2, r3
	str	r2, [r1, #12]
.L499:
.LVL676:
	add	fp, fp, #1
.LVL677:
	b	.L497
.LVL678:
.L504:
	.loc 3 598 0
	mul	r2, r3, r7
	ldr	r1, [fp]
	adds	r0, r1, r2
	ldr	r2, [r1, r2]
	cbz	r2, .L503
	.loc 3 600 0
	ldr	r0, [r0, #4]
	.loc 3 599 0
	adds	r4, r4, #1
.LVL679:
	str	r3, [sp, #8]
	uxth	r4, r4
.LVL680:
	.loc 3 600 0
	ubfx	r0, r0, #10, #16
	bl	FtlBbmMapBadBlock
.LVL681:
	ldr	r3, [sp, #8]
.L503:
.LVL682:
	adds	r7, r7, #1
.LVL683:
	b	.L502
.LVL684:
.L508:
	.loc 3 611 0
	ldr	r3, [sp]
	cbz	r3, .L507
	.loc 3 611 0 is_stmt 0 discriminator 1
	mul	r3, r10, r6
	ldr	r2, [r7]
	adds	r1, r2, r3
	ldr	r3, [r2, r3]
	cbnz	r3, .L507
	.loc 3 612 0 is_stmt 1
	ldr	r0, [r1, #4]
	movs	r1, #1
	ubfx	r0, r0, #10, #16
	bl	FtlFreeSysBlkQueueIn
.LVL685:
.L507:
	adds	r6, r6, #1
.LVL686:
	b	.L506
.L529:
	.align	2
.L528:
	.word	.LANCHOR112
	.word	.LANCHOR111
	.word	.LANCHOR3
	.word	.LANCHOR113
	.word	.LANCHOR114
	.word	.LANCHOR24
	.word	.LANCHOR20
	.word	.LANCHOR115
	.word	.LANCHOR13
	.cfi_endproc
.LFE212:
	.size	FtlLowFormatEraseBlock, .-FtlLowFormatEraseBlock
	.section	.text.FtlFreeSysBlkQueueOut,"ax",%progbits
	.align	1
	.global	FtlFreeSysBlkQueueOut
	.syntax unified
	.thumb
	.thumb_func
	.fpu softvfp
	.type	FtlFreeSysBlkQueueOut, %function
FtlFreeSysBlkQueueOut:
.LFB246:
	.loc 2 181 0
	.cfi_startproc
	@ args = 0, pretend = 0, frame = 0
	@ frame_needed = 0, uses_anonymous_args = 0
.LVL687:
	push	{r3, r4, r5, r6, r7, lr}
	.cfi_def_cfa_offset 24
	.cfi_offset 3, -24
	.cfi_offset 4, -20
	.cfi_offset 5, -16
	.cfi_offset 6, -12
	.cfi_offset 7, -8
	.cfi_offset 14, -4
.LBB252:
.LBB253:
	.loc 2 89 0
	ldr	r4, .L537
.LBE253:
.LBE252:
.LBB255:
	.loc 2 192 0
	ldr	r6, .L537+4
.LVL688:
.L531:
.LBE255:
.LBB256:
.LBB254:
	.loc 2 89 0
	ldrh	r1, [r4, #6]
.LBE254:
.LBE256:
	.loc 2 186 0
	cbz	r1, .L532
	.loc 2 187 0
	ldrh	r3, [r4, #2]
	.loc 2 188 0
	subs	r1, r1, #1
	strh	r1, [r4, #6]	@ movhi
	.loc 2 187 0
	adds	r2, r3, #4
	.loc 2 189 0
	adds	r3, r3, #1
	.loc 2 187 0
	ldrh	r5, [r4, r2, lsl #1]
.LVL689:
	.loc 2 189 0
	ubfx	r3, r3, #0, #10
	strh	r3, [r4, #2]	@ movhi
.LBB257:
	.loc 2 191 0
	mov	r0, r5
	bl	P2V_block_in_plane
.LVL690:
	mov	r7, r0
.LVL691:
	.loc 2 192 0
	ldr	r0, [r6]
	lsls	r3, r5, #10
	.loc 2 193 0
	movs	r2, #1
	mov	r1, r2
	.loc 2 192 0
	str	r3, [r0, #4]
	.loc 2 193 0
	bl	FlashEraseBlocks
.LVL692:
	.loc 2 194 0
	ldr	r3, .L537+8
	ldr	r2, [r3]
	ldrh	r3, [r2, r7, lsl #1]
	adds	r3, r3, #1
	strh	r3, [r2, r7, lsl #1]	@ movhi
	.loc 2 195 0
	ldr	r2, .L537+12
	ldr	r3, [r2]
	adds	r3, r3, #1
	str	r3, [r2]
.LBE257:
	.loc 2 202 0
	subs	r3, r5, #1
	uxth	r3, r3
	movw	r2, #65533
	cmp	r3, r2
	bhi	.L533
	.loc 2 208 0
	mov	r0, r5
	pop	{r3, r4, r5, r6, r7, pc}
.LVL693:
.L532:
	.loc 2 199 0
	ldr	r0, .L537+16
	bl	printf
.LVL694:
.L535:
	b	.L535
.LVL695:
.L533:
	.loc 2 203 0
	ldrh	r2, [r4, #6]
	mov	r1, r5
	ldr	r0, .L537+20
	bl	printf
.LVL696:
	.loc 2 205 0
	b	.L531
.L538:
	.align	2
.L537:
	.word	.LANCHOR38
	.word	.LANCHOR111
	.word	.LANCHOR43
	.word	.LANCHOR75
	.word	.LC82
	.word	.LC83
	.cfi_endproc
.LFE246:
	.size	FtlFreeSysBlkQueueOut, .-FtlFreeSysBlkQueueOut
	.section	.text.ftl_map_blk_alloc_new_blk,"ax",%progbits
	.align	1
	.global	ftl_map_blk_alloc_new_blk
	.syntax unified
	.thumb
	.thumb_func
	.fpu softvfp
	.type	ftl_map_blk_alloc_new_blk, %function
ftl_map_blk_alloc_new_blk:
.LFB258:
	.loc 2 562 0
	.cfi_startproc
	@ args = 0, pretend = 0, frame = 0
	@ frame_needed = 0, uses_anonymous_args = 0
.LVL697:
	.loc 2 566 0
	ldrh	r1, [r0, #10]
	ldr	r2, [r0, #12]
	.loc 2 562 0
	push	{r3, r4, r5, r6, r7, lr}
	.cfi_def_cfa_offset 24
	.cfi_offset 3, -24
	.cfi_offset 4, -20
	.cfi_offset 5, -16
	.cfi_offset 6, -12
	.cfi_offset 7, -8
	.cfi_offset 14, -4
	.loc 2 562 0
	mov	r4, r0
	.loc 2 566 0
	movs	r3, #0
.LVL698:
.L540:
	uxth	r5, r3
.LVL699:
	.loc 2 566 0 is_stmt 0 discriminator 1
	cmp	r5, r1
	bcs	.L543
	.loc 2 567 0 is_stmt 1
	mov	r7, r2
	adds	r3, r3, #1
	ldrh	r6, [r7]
	adds	r2, r2, #2
	cmp	r6, #0
	bne	.L540
	.loc 2 568 0
	bl	FtlFreeSysBlkQueueOut
.LVL700:
	.loc 2 569 0
	subs	r3, r0, #1
	movw	r2, #65533
	uxth	r3, r3
	.loc 2 568 0
	mov	r1, r0
	strh	r0, [r7]	@ movhi
	.loc 2 569 0
	cmp	r3, r2
	bls	.L541
	.loc 2 570 0
	ldr	r3, .L547
	ldr	r0, .L547+4
	ldrh	r2, [r3, #6]
	bl	printf
.LVL701:
.L542:
	b	.L542
.L541:
	.loc 2 576 0
	ldr	r3, [r4, #28]
	.loc 2 574 0
	strh	r6, [r4, #2]	@ movhi
	.loc 2 575 0
	strh	r5, [r4]	@ movhi
	.loc 2 576 0
	adds	r3, r3, #1
	str	r3, [r4, #28]
	.loc 2 577 0
	ldrh	r3, [r4, #8]
	adds	r3, r3, #1
	strh	r3, [r4, #8]	@ movhi
.L543:
	.loc 2 581 0
	ldrh	r3, [r4, #10]
	cmp	r3, r5
	bhi	.L545
.LVL702:
.LBB260:
.LBB261:
	movw	r2, #581
	ldr	r1, .L547+8
	ldr	r0, .L547+12
	bl	printf
.LVL703:
.L545:
.LBE261:
.LBE260:
	.loc 2 583 0
	movs	r0, #0
	pop	{r3, r4, r5, r6, r7, pc}
.LVL704:
.L548:
	.align	2
.L547:
	.word	.LANCHOR38
	.word	.LC84
	.word	.LANCHOR116
	.word	.LC1
	.cfi_endproc
.LFE258:
	.size	ftl_map_blk_alloc_new_blk, .-ftl_map_blk_alloc_new_blk
	.section	.text.ftl_memset,"ax",%progbits
	.align	1
	.global	ftl_memset
	.syntax unified
	.thumb
	.thumb_func
	.fpu softvfp
	.type	ftl_memset, %function
ftl_memset:
.LFB349:
	.loc 1 242 0
	.cfi_startproc
	@ args = 0, pretend = 0, frame = 0
	@ frame_needed = 0, uses_anonymous_args = 0
	@ link register save eliminated.
.LVL705:
	.loc 1 243 0
	b	memset
.LVL706:
	.cfi_endproc
.LFE349:
	.size	ftl_memset, .-ftl_memset
	.section	.text.FtlMemInit,"ax",%progbits
	.align	1
	.global	FtlMemInit
	.syntax unified
	.thumb
	.thumb_func
	.fpu softvfp
	.type	FtlMemInit, %function
FtlMemInit:
.LFB209:
	.loc 3 280 0
	.cfi_startproc
	@ args = 0, pretend = 0, frame = 16
	@ frame_needed = 0, uses_anonymous_args = 0
	push	{r0, r1, r2, r3, r4, r5, r6, r7, r8, r10, fp, lr}
	.cfi_def_cfa_offset 48
	.cfi_offset 4, -32
	.cfi_offset 5, -28
	.cfi_offset 6, -24
	.cfi_offset 7, -20
	.cfi_offset 8, -16
	.cfi_offset 10, -12
	.cfi_offset 11, -8
	.cfi_offset 14, -4
	.loc 3 283 0
	movs	r1, #0
	ldr	r3, .L651
	.loc 3 312 0
	mov	r8, #12
	.loc 3 298 0
	ldr	r2, .L651+4
	.loc 3 283 0
	str	r1, [r3]
	.loc 3 284 0
	ldr	r3, .L651+8
	.loc 3 311 0
	ldr	r4, .L651+12
	.loc 3 308 0
	str	r1, [sp, #4]
	.loc 3 284 0
	str	r1, [r3]
	.loc 3 285 0
	ldr	r3, .L651+16
	.loc 3 311 0
	ldrh	r0, [r4]
	.loc 3 313 0
	ldr	fp, .L651+288
	.loc 3 285 0
	str	r1, [r3]
	.loc 3 286 0
	ldr	r3, .L651+20
	.loc 3 311 0
	lsls	r0, r0, #1
	.loc 3 317 0
	ldr	r10, .L651+292
	.loc 3 321 0
	ldr	r5, .L651+24
	.loc 3 286 0
	str	r1, [r3]
	.loc 3 287 0
	ldr	r3, .L651+28
	.loc 3 324 0
	ldr	r7, .L651+32
	.loc 3 287 0
	str	r1, [r3]
	.loc 3 288 0
	ldr	r3, .L651+36
	str	r1, [r3]
	.loc 3 289 0
	ldr	r3, .L651+40
	str	r1, [r3]
	.loc 3 290 0
	ldr	r3, .L651+44
	str	r1, [r3]
	.loc 3 291 0
	ldr	r3, .L651+48
	str	r1, [r3]
	.loc 3 292 0
	ldr	r3, .L651+52
	str	r1, [r3]
	.loc 3 293 0
	ldr	r3, .L651+56
	str	r1, [r3]
	.loc 3 294 0
	ldr	r3, .L651+60
	str	r1, [r3]
	.loc 3 295 0
	ldr	r3, .L651+64
	str	r1, [r3]
	.loc 3 296 0
	ldr	r3, .L651+68
	str	r1, [r3]
	.loc 3 297 0
	ldr	r3, .L651+72
	str	r1, [r3]
	.loc 3 298 0
	movw	r3, #65535
	str	r3, [r2]
	.loc 3 299 0
	ldr	r2, .L651+76
	str	r1, [r2]
	.loc 3 300 0
	ldr	r2, .L651+80
	str	r1, [r2]
	.loc 3 301 0
	ldr	r2, .L651+84
	str	r1, [r2]
	.loc 3 302 0
	ldr	r2, .L651+88
	strh	r3, [r2]	@ movhi
	.loc 3 303 0
	ldr	r2, .L651+92
	strh	r3, [r2]	@ movhi
	.loc 3 304 0
	movs	r2, #32
	ldr	r3, .L651+96
	strh	r2, [r3]	@ movhi
	.loc 3 305 0
	movs	r2, #128
	ldr	r3, .L651+100
	strh	r2, [r3]	@ movhi
	.loc 3 306 0
	ldr	r3, .L651+104
	strh	r1, [r3]	@ movhi
	.loc 3 307 0
	ldr	r3, .L651+108
	strh	r1, [r3]	@ movhi
	.loc 3 308 0
	ldr	r3, .L651+112
	strh	r1, [r3]	@ movhi
	.loc 3 311 0
	bl	ftl_malloc
.LVL707:
	ldr	r3, .L651+116
	str	r0, [r3]
	.loc 3 312 0
	ldrh	r0, [r4]
	.loc 3 313 0
	movs	r4, #20
	.loc 3 312 0
	mul	r0, r8, r0
	bl	ftl_malloc
.LVL708:
	.loc 3 313 0
	ldrh	r2, [fp]
	.loc 3 312 0
	ldr	r3, .L651+120
	.loc 3 313 0
	muls	r4, r2, r4
.LVL709:
	.loc 3 312 0
	str	r0, [r3]
	.loc 3 314 0
	lsls	r6, r4, #2
	mov	r0, r6
	bl	ftl_malloc
.LVL710:
	ldr	r3, .L651+124
	str	r0, [r3]
	.loc 3 315 0
	mov	r0, r4
	bl	ftl_malloc
.LVL711:
	ldr	r3, .L651+128
	str	r0, [r3]
	.loc 3 316 0
	mov	r0, r6
	bl	ftl_malloc
.LVL712:
	ldr	r3, .L651+132
	.loc 3 325 0
	ldr	r6, .L651+136
	.loc 3 316 0
	str	r0, [r3]
	.loc 3 317 0
	mov	r0, r4
	bl	ftl_malloc
.LVL713:
	str	r0, [r10]
	.loc 3 318 0
	mov	r0, r4
	bl	ftl_malloc
.LVL714:
	ldr	r3, .L651+140
	.loc 3 321 0
	ldrh	r2, [fp]
	.loc 3 318 0
	str	r0, [r3]
	.loc 3 320 0
	ldr	r3, .L651+144
	.loc 3 321 0
	lsls	r2, r2, #1
	.loc 3 320 0
	ldrh	r4, [r3]
.LVL715:
	.loc 3 321 0
	adds	r2, r2, #1
	str	r2, [r5]
	.loc 3 322 0
	mov	r0, r4
	bl	ftl_malloc
.LVL716:
	ldr	r3, .L651+148
	str	r0, [r3]
	.loc 3 323 0
	mov	r0, r4
	bl	ftl_malloc
.LVL717:
	ldr	r3, .L651+152
	str	r0, [r3]
	.loc 3 324 0
	mov	r0, r4
	bl	ftl_malloc
.LVL718:
	str	r0, [r7]
	.loc 3 325 0
	ldr	r0, [r5]
	muls	r0, r4, r0
	bl	ftl_malloc
.LVL719:
	str	r0, [r6]
	.loc 3 326 0
	mov	r0, r4
	bl	ftl_malloc
.LVL720:
	ldr	r2, .L651+156
	str	r0, [r2]
	.loc 3 327 0
	mov	r0, r4
	bl	ftl_malloc
.LVL721:
	ldr	r2, .L651+160
	.loc 3 330 0
	ldr	r4, .L651+164
.LVL722:
	.loc 3 327 0
	str	r0, [r2]
	.loc 3 328 0
	ldr	r0, [r5]
	mul	r0, r8, r0
	bl	ftl_malloc
.LVL723:
	ldr	r2, .L651+168
	.loc 3 330 0
	ldrh	r3, [fp]
	.loc 3 328 0
	str	r0, [r2]
	.loc 3 330 0
	ldrh	r2, [r4]
	mul	fp, r3, r2
.LVL724:
	.loc 3 331 0
	mov	r0, fp
	bl	ftl_malloc
.LVL725:
	ldr	r2, .L651+172
	str	r0, [r2]
	.loc 3 332 0
	lsl	r0, fp, #2
	bl	ftl_malloc
.LVL726:
	ldr	r3, .L651+176
	str	r0, [r3]
	.loc 3 333 0
	ldrh	r3, [r4]
	ldr	r0, [r5]
	.loc 3 336 0
	ldr	r4, .L651+180
	ldr	r5, .L651+184
	.loc 3 333 0
	muls	r0, r3, r0
	bl	ftl_malloc
.LVL727:
	ldr	r3, .L651+188
	str	r0, [r3]
	.loc 3 336 0
	ldrh	r0, [r4]
	lsls	r0, r0, #1
	uxth	r0, r0
	strh	r0, [r5]	@ movhi
	.loc 3 337 0
	bl	ftl_malloc
.LVL728:
	ldr	r3, .L651+192
	str	r0, [r3]
	.loc 3 338 0
	ldrh	r3, [r5]
	.loc 3 339 0
	ldr	r0, .L651+196
	.loc 3 338 0
	addw	r3, r3, #547
	lsrs	r3, r3, #9
	.loc 3 339 0
	and	r0, r0, r3, lsl #9
	.loc 3 338 0
	strh	r3, [r5]	@ movhi
	.loc 3 339 0
	bl	ftl_malloc
.LVL729:
	.loc 3 346 0
	ldrh	fp, [r4]
.LVL730:
	.loc 3 339 0
	ldr	r3, .L651+200
	str	r0, [r3]
	.loc 3 346 0
	lsl	fp, fp, #1
	.loc 3 340 0
	ldr	r3, .L651+204
	adds	r0, r0, #32
	str	r0, [r3]
.LVL731:
	.loc 3 348 0
	mov	r0, fp
	bl	ftl_malloc
.LVL732:
	ldr	r3, .L651+208
	str	r0, [r3]
	.loc 3 350 0
	mov	r0, fp
	bl	ftl_malloc
.LVL733:
	.loc 3 351 0
	ldr	fp, .L651+296
.LVL734:
	.loc 3 350 0
	ldr	r3, .L651+212
	str	r0, [r3]
.LVL735:
	.loc 3 351 0
	ldr	r3, [fp]
	lsls	r5, r3, #1
.LVL736:
	.loc 3 352 0
	mov	r0, r5
	bl	ftl_malloc
.LVL737:
	ldr	r2, .L651+216
	str	r0, [r2]
	.loc 3 353 0
	mov	r0, r5
	bl	ftl_malloc
.LVL738:
	ldr	r3, .L651+220
	.loc 3 355 0
	ldr	r5, .L651+224
.LVL739:
	.loc 3 353 0
	str	r0, [r3]
	.loc 3 354 0
	ldrh	r0, [r4]
	lsrs	r0, r0, #3
	adds	r0, r0, #4
	bl	ftl_malloc
.LVL740:
	ldr	r3, .L651+228
	str	r0, [r3]
	.loc 3 355 0
	ldrh	r0, [r5]
	lsls	r0, r0, #1
	bl	ftl_malloc
.LVL741:
	ldr	r2, .L651+232
	str	r0, [r2]
	.loc 3 356 0
	ldrh	r0, [r5]
	lsls	r0, r0, #1
	bl	ftl_malloc
.LVL742:
	ldr	r2, .L651+236
	str	r0, [r2]
	.loc 3 357 0
	ldrh	r0, [r5]
	ldr	r5, .L651+120
	lsls	r0, r0, #2
	bl	ftl_malloc
.LVL743:
	ldr	r3, .L651+240
	str	r0, [r3]
	.loc 3 358 0
	ldr	r3, .L651+244
	ldrh	r0, [r3]
	str	r3, [sp]
	lsls	r0, r0, #2
	bl	ftl_malloc
.LVL744:
	.loc 3 359 0
	ldr	r3, [sp]
	.loc 3 358 0
	ldr	r2, .L651+248
	.loc 3 359 0
	ldr	r1, [sp, #4]
	.loc 3 358 0
	str	r0, [r2]
	.loc 3 359 0
	ldrh	r2, [r3]
	lsls	r2, r2, #2
	bl	ftl_memset
.LVL745:
	.loc 3 361 0
	ldr	r3, .L651+252
	ldrh	r0, [r3]
	.loc 3 362 0
	lsls	r0, r0, #2
.LVL746:
	bl	ftl_malloc
.LVL747:
	ldr	r3, .L651+256
	str	r0, [r3]
.LVL748:
	.loc 3 363 0
	ldr	r0, [fp]
	.loc 3 365 0
	ldr	fp, .L651+300
	.loc 3 364 0
	lsls	r0, r0, #2
.LVL749:
	bl	ftl_malloc
.LVL750:
	ldr	r3, .L651+260
	str	r0, [r3]
.LVL751:
	.loc 3 365 0
	ldrh	r0, [fp]
	.loc 3 366 0
	mul	r0, r8, r0
.LVL752:
	.loc 3 372 0
	ldr	r8, .L651+304
	.loc 3 366 0
	bl	ftl_malloc
.LVL753:
	.loc 3 367 0
	ldr	r2, .L651+144
	.loc 3 366 0
	ldr	r3, .L651+264
	str	r0, [r3]
.LVL754:
	.loc 3 367 0
	ldrh	r0, [r2]
	ldrh	r3, [fp]
	ldr	fp, .L651+132
	.loc 3 368 0
	muls	r0, r3, r0
.LVL755:
	bl	ftl_malloc
.LVL756:
	ldr	r3, .L651+268
	str	r0, [r3]
.LVL757:
	.loc 3 370 0
	movs	r0, #6
	.loc 3 369 0
	ldrh	r3, [r4]
	.loc 3 371 0
	ldr	r4, .L651+272
	.loc 3 370 0
	muls	r0, r3, r0
.LVL758:
	bl	ftl_malloc
.LVL759:
	ldr	r3, .L651+276
	str	r0, [r3]
	.loc 3 371 0
	ldr	r3, .L651+280
	ldrh	r0, [r3]
	.loc 3 372 0
	ldrh	r3, [r8]
	.loc 3 371 0
	adds	r0, r0, #31
	asrs	r0, r0, #5
	strh	r0, [r4]	@ movhi
.LVL760:
	.loc 3 372 0
	muls	r0, r3, r0
.LVL761:
	.loc 3 373 0
	lsls	r0, r0, #2
.LVL762:
	bl	ftl_malloc
.LVL763:
	ldr	r2, .L651+284
	str	r5, [sp, #4]
	ldr	r5, .L651+124
	mov	r1, r2
	.loc 3 374 0
	ldrh	r3, [r8]
	.loc 3 373 0
	str	r0, [r1, #28]!
.LVL764:
	.loc 3 375 0
	ldrh	r0, [r4]
	ldr	r8, .L651+140
	ldr	lr, .L651+148
	b	.L652
.L653:
	.align	2
.L651:
	.word	.LANCHOR70
	.word	.LANCHOR118
	.word	.LANCHOR71
	.word	.LANCHOR21
	.word	.LANCHOR67
	.word	.LANCHOR64
	.word	.LANCHOR94
	.word	.LANCHOR63
	.word	.LANCHOR124
	.word	.LANCHOR65
	.word	.LANCHOR66
	.word	.LANCHOR62
	.word	.LANCHOR72
	.word	.LANCHOR73
	.word	.LANCHOR75
	.word	.LANCHOR76
	.word	.LANCHOR77
	.word	.LANCHOR117
	.word	.LANCHOR87
	.word	.LANCHOR119
	.word	.LANCHOR84
	.word	.LANCHOR112
	.word	.LANCHOR99
	.word	.LANCHOR100
	.word	.LANCHOR82
	.word	.LANCHOR83
	.word	.LANCHOR85
	.word	.LANCHOR101
	.word	.LANCHOR103
	.word	.LANCHOR95
	.word	.LANCHOR98
	.word	.LANCHOR120
	.word	.LANCHOR121
	.word	.LANCHOR122
	.word	.LANCHOR91
	.word	.LANCHOR93
	.word	.LANCHOR23
	.word	.LANCHOR107
	.word	.LANCHOR123
	.word	.LANCHOR115
	.word	.LANCHOR113
	.word	.LANCHOR24
	.word	.LANCHOR90
	.word	.LANCHOR108
	.word	.LANCHOR114
	.word	.LANCHOR6
	.word	.LANCHOR125
	.word	.LANCHOR92
	.word	.LANCHOR126
	.word	33553920
	.word	.LANCHOR127
	.word	.LANCHOR43
	.word	.LANCHOR128
	.word	.LANCHOR42
	.word	.LANCHOR129
	.word	.LANCHOR130
	.word	.LANCHOR27
	.word	.LANCHOR1
	.word	.LANCHOR36
	.word	.LANCHOR131
	.word	.LANCHOR132
	.word	.LANCHOR28
	.word	.LANCHOR133
	.word	.LANCHOR32
	.word	.LANCHOR134
	.word	.LANCHOR135
	.word	.LANCHOR55
	.word	.LANCHOR136
	.word	.LANCHOR137
	.word	.LANCHOR40
	.word	.LANCHOR17
	.word	.LANCHOR37
	.word	.LANCHOR3
	.word	.LANCHOR111
	.word	.LANCHOR30
	.word	.LANCHOR33
	.word	.LANCHOR10
.L652:
	ldr	ip, .L654+100
	lsls	r0, r0, #2
	str	r5, [sp, #8]
	ldr	r5, .L654
	.loc 3 374 0
	str	r3, [sp]
	mov	r4, r0
	movs	r3, #1
	str	r5, [sp, #12]
.LVL765:
.L551:
	.loc 3 374 0 is_stmt 0 discriminator 1
	ldr	r5, [sp]
	cmp	r3, r5
	bcc	.L552
	add	r3, r2, r3, lsl #2
.LVL766:
	ldr	r1, .L654+4
	.loc 3 380 0 is_stmt 1
	movs	r0, #0
	adds	r3, r3, #24
.L553:
	.loc 3 378 0 discriminator 1
	cmp	r1, r3
	bne	.L554
	.loc 3 384 0
	ldr	r3, .L654+8
	ldr	r3, [r3]
	cbnz	r3, .L555
.L557:
	.loc 3 386 0
	ldr	r1, .L654+12
	ldr	r0, .L654+16
	bl	printf
.LVL767:
	.loc 3 387 0
	mov	r0, #-1
.L550:
	.loc 3 485 0
	add	sp, sp, #16
	.cfi_remember_state
	.cfi_def_cfa_offset 32
	@ sp needed
	pop	{r4, r5, r6, r7, r8, r10, fp, pc}
.LVL768:
.L552:
	.cfi_restore_state
	.loc 3 375 0 discriminator 3
	ldr	r5, [r2, #28]
	.loc 3 374 0 discriminator 3
	adds	r3, r3, #1
.LVL769:
	.loc 3 375 0 discriminator 3
	add	r5, r5, r4
	add	r4, r4, r0
	str	r5, [r1, #4]!
	b	.L551
.LVL770:
.L554:
	.loc 3 380 0 discriminator 2
	str	r0, [r3, #4]!
	b	.L553
.L555:
	.loc 3 389 0
	ldr	r3, .L654+20
	ldr	r3, [r3]
	cmp	r3, #0
	beq	.L557
	.loc 3 394 0
	ldr	r3, .L654+24
	ldr	r3, [r3]
	cmp	r3, #0
	beq	.L557
	.loc 3 399 0
	ldr	r3, .L654+28
	ldr	r3, [r3]
	cmp	r3, #0
	beq	.L557
	.loc 3 405 0
	ldr	r3, .L654+32
	ldr	r3, [r3]
	cmp	r3, #0
	beq	.L557
	.loc 3 410 0
	ldr	r3, .L654+36
	ldr	r3, [r3]
	cmp	r3, #0
	beq	.L557
	.loc 3 415 0
	ldr	r3, .L654+40
	ldr	r3, [r3]
	cmp	r3, #0
	beq	.L557
	.loc 3 420 0
	ldr	r3, [r2, #28]
	cmp	r3, #0
	beq	.L557
	.loc 3 426 0
	ldr	r3, .L654+44
	ldr	r3, [r3]
	cmp	r3, #0
	beq	.L557
	.loc 3 431 0
	ldr	r3, .L654+48
	ldr	r3, [r3]
	cmp	r3, #0
	beq	.L557
	.loc 3 431 0 is_stmt 0 discriminator 1
	ldr	r3, [sp, #4]
	ldr	r3, [r3]
	cmp	r3, #0
	beq	.L557
	.loc 3 436 0 is_stmt 1
	ldr	r3, [sp, #8]
	ldr	r3, [r3]
	cmp	r3, #0
	beq	.L557
	.loc 3 436 0 is_stmt 0 discriminator 1
	ldr	r3, [fp]
	cmp	r3, #0
	beq	.L557
	.loc 3 436 0 discriminator 2
	ldr	r3, [r10]
	cmp	r3, #0
	beq	.L557
	.loc 3 436 0 discriminator 3
	ldr	r3, [r8]
	cmp	r3, #0
	beq	.L557
	.loc 3 436 0 discriminator 4
	ldr	r3, [sp, #12]
	ldr	r3, [r3]
	cmp	r3, #0
	beq	.L557
	.loc 3 441 0 is_stmt 1
	ldr	r3, [lr]
	cmp	r3, #0
	beq	.L557
	.loc 3 441 0 is_stmt 0 discriminator 1
	ldr	r3, [ip]
	cmp	r3, #0
	beq	.L557
	.loc 3 441 0 discriminator 2
	ldr	r3, [r7]
	cmp	r3, #0
	beq	.L557
	.loc 3 441 0 discriminator 3
	ldr	r3, [r6]
	cmp	r3, #0
	beq	.L557
	.loc 3 442 0 is_stmt 1
	ldr	r3, .L654+52
	ldr	r3, [r3]
	cmp	r3, #0
	beq	.L557
	.loc 3 442 0 is_stmt 0 discriminator 1
	ldr	r3, .L654+56
	ldr	r3, [r3]
	cmp	r3, #0
	beq	.L557
	.loc 3 442 0 discriminator 2
	ldr	r3, .L654+60
	ldr	r3, [r3]
	cmp	r3, #0
	beq	.L557
	.loc 3 447 0 is_stmt 1
	ldr	r3, .L654+64
	ldr	r3, [r3]
	cmp	r3, #0
	beq	.L557
	.loc 3 447 0 is_stmt 0 discriminator 1
	ldr	r3, .L654+68
	ldr	r3, [r3]
	cmp	r3, #0
	beq	.L557
	.loc 3 447 0 discriminator 2
	ldr	r3, .L654+72
	ldr	r3, [r3]
	cmp	r3, #0
	beq	.L557
	.loc 3 453 0 is_stmt 1
	ldr	r3, .L654+76
	ldr	r3, [r3]
	cmp	r3, #0
	beq	.L557
	.loc 3 453 0 is_stmt 0 discriminator 1
	ldr	r3, .L654+80
	ldr	r3, [r3]
	cmp	r3, #0
	beq	.L557
	.loc 3 459 0 is_stmt 1
	ldr	r3, .L654+84
	ldr	r3, [r3]
	cmp	r3, #0
	beq	.L557
	.loc 3 465 0
	ldr	r3, .L654+88
	ldr	r3, [r3]
	cmp	r3, #0
	beq	.L557
	.loc 3 471 0
	ldr	r3, .L654+92
	ldr	r3, [r3]
	cmp	r3, #0
	beq	.L557
	.loc 3 477 0
	ldr	r3, .L654+96
	ldr	r3, [r3]
	cmp	r3, #0
	beq	.L557
	.loc 3 484 0
	movs	r0, #0
	b	.L550
.L655:
	.align	2
.L654:
	.word	.LANCHOR121
	.word	.LANCHOR37+56
	.word	.LANCHOR129
	.word	.LANCHOR138
	.word	.LC85
	.word	.LANCHOR130
	.word	.LANCHOR134
	.word	.LANCHOR135
	.word	.LANCHOR55
	.word	.LANCHOR136
	.word	.LANCHOR40
	.word	.LANCHOR42
	.word	.LANCHOR95
	.word	.LANCHOR115
	.word	.LANCHOR113
	.word	.LANCHOR90
	.word	.LANCHOR108
	.word	.LANCHOR114
	.word	.LANCHOR92
	.word	.LANCHOR43
	.word	.LANCHOR126
	.word	.LANCHOR36
	.word	.LANCHOR131
	.word	.LANCHOR132
	.word	.LANCHOR133
	.word	.LANCHOR123
	.cfi_endproc
.LFE209:
	.size	FtlMemInit, .-FtlMemInit
	.section	.text.FtlBbt2Bitmap,"ax",%progbits
	.align	1
	.global	FtlBbt2Bitmap
	.syntax unified
	.thumb
	.thumb_func
	.fpu softvfp
	.type	FtlBbt2Bitmap, %function
FtlBbt2Bitmap:
.LFB228:
	.loc 4 66 0
	.cfi_startproc
	@ args = 0, pretend = 0, frame = 0
	@ frame_needed = 0, uses_anonymous_args = 0
.LVL771:
	.loc 4 69 0
	ldr	r3, .L662
	.loc 4 66 0
	push	{r4, r5, r6, r7, r8, lr}
	.cfi_def_cfa_offset 24
	.cfi_offset 4, -24
	.cfi_offset 5, -20
	.cfi_offset 6, -16
	.cfi_offset 7, -12
	.cfi_offset 8, -8
	.cfi_offset 14, -4
	.loc 4 66 0
	mov	r5, r0
	.loc 4 74 0
	ldr	r7, .L662+4
	.loc 4 66 0
	mov	r6, r1
	subs	r4, r5, #2
	addw	r5, r5, #1022
	.loc 4 69 0
	ldrh	r2, [r3]
	movs	r1, #0
.LVL772:
	.loc 4 74 0
	ldr	r8, .L662+12
	.loc 4 69 0
	mov	r0, r6
.LVL773:
	lsls	r2, r2, #2
	bl	ftl_memset
.LVL774:
.L659:
	.loc 4 72 0
	ldrh	r3, [r4, #2]
	movw	r2, #65535
	cmp	r3, r2
	beq	.L656
	.loc 4 74 0
	ldrh	r2, [r7]
	cmp	r2, r3
	bhi	.L658
	.loc 4 74 0 is_stmt 0 discriminator 1
	movs	r2, #74
	mov	r1, r8
	ldr	r0, .L662+8
	bl	printf
.LVL775:
.L658:
	.loc 4 75 0 is_stmt 1 discriminator 2
	ldrh	r3, [r4, #2]!
	movs	r2, #1
	.loc 4 70 0 discriminator 2
	cmp	r5, r4
	.loc 4 75 0 discriminator 2
	lsr	r1, r3, #5
	and	r3, r3, #31
	lsl	r3, r2, r3
	ldr	r2, [r6, r1, lsl #2]
	orr	r2, r2, r3
	str	r2, [r6, r1, lsl #2]
	.loc 4 70 0 discriminator 2
	bne	.L659
.L656:
	pop	{r4, r5, r6, r7, r8, pc}
.LVL776:
.L663:
	.align	2
.L662:
	.word	.LANCHOR137
	.word	.LANCHOR17
	.word	.LC1
	.word	.LANCHOR139
	.cfi_endproc
.LFE228:
	.size	FtlBbt2Bitmap, .-FtlBbt2Bitmap
	.section	.text.FtlBbtMemInit,"ax",%progbits
	.align	1
	.global	FtlBbtMemInit
	.syntax unified
	.thumb
	.thumb_func
	.fpu softvfp
	.type	FtlBbtMemInit, %function
FtlBbtMemInit:
.LFB230:
	.loc 4 149 0
	.cfi_startproc
	@ args = 0, pretend = 0, frame = 0
	@ frame_needed = 0, uses_anonymous_args = 0
	@ link register save eliminated.
	.loc 4 150 0
	ldr	r0, .L665
	movw	r3, #65535
	.loc 4 152 0
	movs	r2, #16
	movs	r1, #255
	.loc 4 150 0
	strh	r3, [r0]	@ movhi
	.loc 4 151 0
	movs	r3, #0
	strh	r3, [r0, #6]	@ movhi
	.loc 4 152 0
	adds	r0, r0, #12
	b	ftl_memset
.LVL777:
.L666:
	.align	2
.L665:
	.word	.LANCHOR37
	.cfi_endproc
.LFE230:
	.size	FtlBbtMemInit, .-FtlBbtMemInit
	.section	.text.FtlFreeSysBlkQueueInit,"ax",%progbits
	.align	1
	.global	FtlFreeSysBlkQueueInit
	.syntax unified
	.thumb
	.thumb_func
	.fpu softvfp
	.type	FtlFreeSysBlkQueueInit, %function
FtlFreeSysBlkQueueInit:
.LFB240:
	.loc 2 76 0
	.cfi_startproc
	@ args = 0, pretend = 0, frame = 0
	@ frame_needed = 0, uses_anonymous_args = 0
.LVL778:
	.loc 2 79 0
	ldr	r3, .L668
	.loc 2 83 0
	mov	r2, #2048
	.loc 2 76 0
	push	{r4, lr}
	.cfi_def_cfa_offset 8
	.cfi_offset 4, -8
	.cfi_offset 14, -4
	.loc 2 79 0
	movs	r4, #0
	.loc 2 83 0
	mov	r1, r4
	.loc 2 79 0
	strh	r4, [r3, #2]	@ movhi
	.loc 2 80 0
	strh	r4, [r3, #4]	@ movhi
	.loc 2 81 0
	strh	r4, [r3, #6]	@ movhi
	.loc 2 82 0
	strh	r0, [r3], #8	@ movhi
	.loc 2 83 0
	mov	r0, r3
.LVL779:
	bl	ftl_memset
.LVL780:
	.loc 2 85 0
	mov	r0, r4
	pop	{r4, pc}
.L669:
	.align	2
.L668:
	.word	.LANCHOR38
	.cfi_endproc
.LFE240:
	.size	FtlFreeSysBlkQueueInit, .-FtlFreeSysBlkQueueInit
	.section	.text.load_l2p_region,"ax",%progbits
	.align	1
	.global	load_l2p_region
	.syntax unified
	.thumb
	.thumb_func
	.fpu softvfp
	.type	load_l2p_region, %function
load_l2p_region:
.LFB256:
	.loc 2 488 0
	.cfi_startproc
	@ args = 0, pretend = 0, frame = 8
	@ frame_needed = 0, uses_anonymous_args = 0
.LVL781:
	.loc 2 492 0
	ldr	r3, .L676
	.loc 2 488 0
	push	{r0, r1, r4, r5, r6, r7, r8, r10, fp, lr}
	.cfi_def_cfa_offset 40
	.cfi_offset 4, -32
	.cfi_offset 5, -28
	.cfi_offset 6, -24
	.cfi_offset 7, -20
	.cfi_offset 8, -16
	.cfi_offset 10, -12
	.cfi_offset 11, -8
	.cfi_offset 14, -4
	.loc 2 488 0
	mov	r5, r0
	mov	r10, r1
	.loc 2 492 0
	ldrh	r2, [r3]
	str	r3, [sp, #4]
	cmp	r2, r0
	bcs	.L671
	.loc 2 492 0 is_stmt 0 discriminator 1
	mov	r2, #492
	ldr	r1, .L676+4
.LVL782:
	ldr	r0, .L676+8
.LVL783:
	bl	printf
.LVL784:
.L671:
	.loc 2 493 0 is_stmt 1
	ldr	fp, .L676+40
	movs	r4, #12
	ldr	r7, .L676+12
	ldr	r3, [fp]
	ldr	r8, [r3, r5, lsl #2]
.LVL785:
	.loc 2 495 0
	cmp	r8, #0
	bne	.L672
	.loc 2 496 0
	mul	r4, r4, r10
	ldr	r2, [r7]
	movs	r1, #255
	adds	r0, r2, r4
	ldr	r2, .L676+16
	ldr	r0, [r0, #8]
	ldrh	r2, [r2]
	bl	ftl_memset
.LVL786:
	.loc 2 497 0
	ldr	r2, [r7]
	adds	r1, r2, r4
	strh	r5, [r2, r4]	@ movhi
	.loc 2 498 0
	str	r8, [r1, #4]
.L673:
	.loc 2 519 0
	movs	r0, #0
	add	sp, sp, #8
	.cfi_remember_state
	.cfi_def_cfa_offset 32
	@ sp needed
	pop	{r4, r5, r6, r7, r8, r10, fp, pc}
.LVL787:
.L672:
	.cfi_restore_state
	.loc 2 502 0
	mul	r4, r4, r10
	ldr	r2, [r7]
	.loc 2 501 0
	ldr	r6, .L676+20
	.loc 2 502 0
	add	r2, r2, r4
	.loc 2 504 0
	mov	r0, r6
	.loc 2 502 0
	ldr	r2, [r2, #8]
	.loc 2 501 0
	str	r8, [r6, #4]
	.loc 2 502 0
	str	r2, [r6, #8]
	.loc 2 503 0
	ldr	r2, .L676+24
	ldr	r2, [r2]
	str	r2, [r6, #12]
	.loc 2 504 0
	movs	r2, #1
	mov	r1, r2
	bl	FlashReadPages
.LVL788:
	.loc 2 505 0
	ldr	r10, [r6, #12]
.LVL789:
	.loc 2 507 0
	ldrh	r2, [r10, #8]
	cmp	r2, r5
	beq	.L674
	.loc 2 508 0
	mov	r2, r8
	mov	r1, r5
	ldr	r0, .L676+28
	bl	printf
.LVL790:
	.loc 2 509 0
	movs	r3, #4
	ldr	r1, [r6, #12]
	mov	r2, r3
	ldr	r0, .L676+32
	bl	rknand_print_hex
.LVL791:
	.loc 2 510 0
	ldr	r3, [sp, #4]
	movs	r2, #4
	ldr	r1, [fp]
	ldr	r0, .L676+36
	ldrh	r3, [r3]
	bl	rknand_print_hex
.LVL792:
.L674:
	.loc 2 513 0
	ldrh	r3, [r10, #8]
	cmp	r3, r5
	beq	.L675
	.loc 2 513 0 is_stmt 0 discriminator 1
	movw	r2, #513
	ldr	r1, .L676+4
	ldr	r0, .L676+8
	bl	printf
.LVL793:
.L675:
	.loc 2 516 0 is_stmt 1
	ldr	r3, [r7]
	movs	r1, #0
	adds	r2, r3, r4
	str	r1, [r2, #4]
	.loc 2 517 0
	strh	r5, [r3, r4]	@ movhi
	.loc 2 518 0
	b	.L673
.L677:
	.align	2
.L676:
	.word	.LANCHOR32
	.word	.LANCHOR140
	.word	.LC1
	.word	.LANCHOR55
	.word	.LANCHOR23
	.word	.LANCHOR106
	.word	.LANCHOR108
	.word	.LC86
	.word	.LC87
	.word	.LC88
	.word	.LANCHOR134
	.cfi_endproc
.LFE256:
	.size	load_l2p_region, .-load_l2p_region
	.section	.text.ftl_free_no_use_map_blk,"ax",%progbits
	.align	1
	.global	ftl_free_no_use_map_blk
	.syntax unified
	.thumb
	.thumb_func
	.fpu softvfp
	.type	ftl_free_no_use_map_blk, %function
ftl_free_no_use_map_blk:
.LFB257:
	.loc 2 522 0
	.cfi_startproc
	@ args = 0, pretend = 0, frame = 8
	@ frame_needed = 0, uses_anonymous_args = 0
.LVL794:
	.loc 2 531 0
	ldrh	r2, [r0, #10]
	.loc 2 522 0
	push	{r0, r1, r4, r5, r6, r7, r8, r10, fp, lr}
	.cfi_def_cfa_offset 40
	.cfi_offset 4, -32
	.cfi_offset 5, -28
	.cfi_offset 6, -24
	.cfi_offset 7, -20
	.cfi_offset 8, -16
	.cfi_offset 10, -12
	.cfi_offset 11, -8
	.cfi_offset 14, -4
	.loc 2 522 0
	mov	r4, r0
	.loc 2 525 0
	ldr	r5, [r0, #20]
	.loc 2 531 0
	movs	r1, #0
	.loc 2 523 0
	ldr	r10, [r0, #12]
.LVL795:
	.loc 2 531 0
	lsls	r2, r2, #1
	.loc 2 524 0
	ldr	r6, [r0, #24]
.LVL796:
	.loc 2 531 0
	mov	r0, r5
.LVL797:
	bl	ftl_memset
.LVL798:
	.loc 2 532 0
	movs	r3, #0
.LVL799:
.L679:
	.loc 2 532 0 is_stmt 0 discriminator 1
	ldrh	r1, [r4, #6]
	uxth	r2, r3
	cmp	r1, r2
	bhi	.L683
	.loc 2 540 0 is_stmt 1
	ldrh	r3, [r5]
.LVL800:
	.loc 2 543 0
	movs	r6, #0
.LVL801:
	.loc 2 544 0
	ldr	r2, .L692
.LVL802:
	.loc 2 541 0
	mov	fp, r6
.LVL803:
.L684:
	.loc 2 543 0 discriminator 1
	ldrh	r0, [r4, #10]
	uxth	r1, r6
.LVL804:
	cmp	r0, r1
	bhi	.L688
	.loc 2 559 0
	mov	r0, fp
	add	sp, sp, #8
	.cfi_remember_state
	.cfi_def_cfa_offset 32
	@ sp needed
	pop	{r4, r5, r6, r7, r8, r10, fp, pc}
.LVL805:
.L683:
	.cfi_restore_state
	.loc 2 533 0
	uxth	r2, r3
	ldr	r1, [r6, r2, lsl #2]
	.loc 2 534 0
	movs	r2, #0
	.loc 2 533 0
	ubfx	r1, r1, #10, #16
.LVL806:
.L680:
	.loc 2 534 0 discriminator 1
	ldrh	r7, [r4, #10]
	uxth	r0, r2
	cmp	r7, r0
	bhi	.L682
.LVL807:
	adds	r3, r3, #1
.LVL808:
	b	.L679
.LVL809:
.L682:
	.loc 2 535 0
	uxth	r0, r2
	adds	r2, r2, #1
.LVL810:
	ldrh	r7, [r10, r0, lsl #1]
	cmp	r7, r1
	.loc 2 536 0
	ittt	eq
	ldrheq	r7, [r5, r0, lsl #1]
	addeq	r7, r7, #1
	strheq	r7, [r5, r0, lsl #1]	@ movhi
.LVL811:
	b	.L680
.LVL812:
.L688:
	.loc 2 544 0
	ldrh	r0, [r4]
	uxth	r7, r6
	cmp	r0, r1
	bne	.L685
	.loc 2 544 0 is_stmt 0 discriminator 1
	ldrh	r0, [r2]
	ldrh	ip, [r4, #2]
	cmp	ip, r0
	.loc 2 545 0 is_stmt 1 discriminator 1
	it	cc
	strhcc	r0, [r5, r7, lsl #1]	@ movhi
.L685:
	.loc 2 546 0
	ldrh	r8, [r5, r7, lsl #1]
	cmp	r3, r8
	itt	hi
	movhi	fp, r1
	movhi	r3, r8
.LVL813:
	.loc 2 550 0
	cmp	r8, #0
	bne	.L687
	.loc 2 550 0 is_stmt 0 discriminator 1
	ldrh	r0, [r10, r7, lsl #1]
	cbz	r0, .L687
	.loc 2 552 0 is_stmt 1
	movs	r1, #1
.LVL814:
	str	r2, [sp, #4]
	str	r3, [sp]
	bl	FtlFreeSysBlkQueueIn
.LVL815:
	.loc 2 553 0
	strh	r8, [r10, r7, lsl #1]	@ movhi
	.loc 2 554 0
	ldr	r2, [sp, #4]
	ldrh	r1, [r4, #8]
	ldr	r3, [sp]
	subs	r1, r1, #1
	strh	r1, [r4, #8]	@ movhi
.LVL816:
.L687:
	adds	r6, r6, #1
.LVL817:
	b	.L684
.L693:
	.align	2
.L692:
	.word	.LANCHOR20
	.cfi_endproc
.LFE257:
	.size	ftl_free_no_use_map_blk, .-ftl_free_no_use_map_blk
	.section	.text.Ftl_write_map_blk_to_last_page,"ax",%progbits
	.align	1
	.global	Ftl_write_map_blk_to_last_page
	.syntax unified
	.thumb
	.thumb_func
	.fpu softvfp
	.type	Ftl_write_map_blk_to_last_page, %function
Ftl_write_map_blk_to_last_page:
.LFB260:
	.loc 2 632 0
	.cfi_startproc
	@ args = 0, pretend = 0, frame = 0
	@ frame_needed = 0, uses_anonymous_args = 0
.LVL818:
	push	{r3, r4, r5, r6, r7, lr}
	.cfi_def_cfa_offset 24
	.cfi_offset 3, -24
	.cfi_offset 4, -20
	.cfi_offset 5, -16
	.cfi_offset 6, -12
	.cfi_offset 7, -8
	.cfi_offset 14, -4
	.loc 2 640 0
	movw	r2, #65535
	ldrh	r3, [r0]
	.loc 2 632 0
	mov	r4, r0
	.loc 2 635 0
	ldr	r5, [r0, #12]
.LVL819:
	.loc 2 640 0
	cmp	r3, r2
	bne	.L695
	.loc 2 641 0
	ldrh	r3, [r0, #8]
	cbz	r3, .L696
	.loc 2 641 0 is_stmt 0 discriminator 1
	movw	r2, #641
	ldr	r1, .L704
	ldr	r0, .L704+4
.LVL820:
	bl	printf
.LVL821:
.L696:
	.loc 2 642 0 is_stmt 1
	ldrh	r3, [r4, #8]
	adds	r3, r3, #1
	strh	r3, [r4, #8]	@ movhi
	.loc 2 643 0
	bl	FtlFreeSysBlkQueueOut
.LVL822:
	.loc 2 644 0
	movs	r3, #0
	.loc 2 643 0
	strh	r0, [r5]	@ movhi
	.loc 2 644 0
	strh	r3, [r4, #2]	@ movhi
	.loc 2 645 0
	strh	r3, [r4]	@ movhi
	.loc 2 646 0
	ldr	r3, [r4, #28]
	adds	r3, r3, #1
	str	r3, [r4, #28]
.LVL823:
.L697:
	.loc 2 677 0
	movs	r0, #0
	pop	{r3, r4, r5, r6, r7, pc}
.LVL824:
.L695:
	.loc 2 650 0
	ldrh	r5, [r5, r3, lsl #1]
.LVL825:
	.loc 2 661 0
	movs	r1, #255
	.loc 2 651 0
	ldrh	r3, [r0, #2]
	ldr	r2, .L704+8
	.loc 2 652 0
	ldr	r7, .L704+12
	.loc 2 636 0
	ldr	r6, [r0, #24]
	.loc 2 651 0
	orr	r3, r3, r5, lsl #10
	.loc 2 652 0
	ldr	r0, [r7]
.LVL826:
	.loc 2 651 0
	str	r3, [r2, #4]
	.loc 2 653 0
	ldr	r3, .L704+16
	.loc 2 652 0
	str	r0, [r2, #8]
	.loc 2 653 0
	ldr	r3, [r3]
	str	r3, [r2, #12]
.LVL827:
	.loc 2 656 0
	ldr	r2, [r4, #28]
	str	r2, [r3, #4]
	.loc 2 657 0
	movw	r2, #64245
	strh	r2, [r3, #8]	@ movhi
	.loc 2 658 0
	ldrh	r2, [r4, #4]
	.loc 2 659 0
	strh	r5, [r3, #2]	@ movhi
	.loc 2 658 0
	strh	r2, [r3]	@ movhi
	.loc 2 661 0
	ldr	r3, .L704+20
.LVL828:
	ldrh	r2, [r3]
	lsls	r2, r2, #3
	bl	ftl_memset
.LVL829:
	.loc 2 663 0
	ldrh	ip, [r4, #6]
	movs	r3, #0
	.loc 2 666 0
	ldr	r1, [r7]
	.loc 2 662 0
	mov	r2, r3
.LVL830:
.L698:
	.loc 2 663 0 discriminator 1
	uxth	r0, r3
	cmp	ip, r0
	bhi	.L700
	.loc 2 670 0
	movs	r2, #1
.LVL831:
	movs	r3, #0
.LVL832:
	mov	r1, r2
	ldr	r0, .L704+8
.LVL833:
	bl	FlashProgPages
.LVL834:
	.loc 2 671 0
	ldrh	r3, [r4, #2]
	.loc 2 675 0
	mov	r0, r4
	.loc 2 671 0
	adds	r3, r3, #1
	strh	r3, [r4, #2]	@ movhi
	.loc 2 675 0
	bl	ftl_map_blk_gc
.LVL835:
	.loc 2 676 0
	b	.L697
.LVL836:
.L700:
	.loc 2 664 0
	ldr	r0, [r6, r3, lsl #2]
	cmp	r5, r0, lsr #10
	bne	.L699
	.loc 2 665 0
	adds	r2, r2, #1
.LVL837:
	uxth	r2, r2
.LVL838:
	.loc 2 666 0
	str	r3, [r1, r2, lsl #3]
	.loc 2 667 0
	add	r7, r1, r2, lsl #3
	ldr	r0, [r6, r3, lsl #2]
	str	r0, [r7, #4]
.L699:
.LVL839:
	adds	r3, r3, #1
.LVL840:
	b	.L698
.L705:
	.align	2
.L704:
	.word	.LANCHOR141
	.word	.LC1
	.word	.LANCHOR106
	.word	.LANCHOR107
	.word	.LANCHOR108
	.word	.LANCHOR20
	.cfi_endproc
.LFE260:
	.size	Ftl_write_map_blk_to_last_page, .-Ftl_write_map_blk_to_last_page
	.section	.text.FtlMapWritePage,"ax",%progbits
	.align	1
	.global	FtlMapWritePage
	.syntax unified
	.thumb
	.thumb_func
	.fpu softvfp
	.type	FtlMapWritePage, %function
FtlMapWritePage:
.LFB261:
	.loc 2 680 0
	.cfi_startproc
	@ args = 0, pretend = 0, frame = 8
	@ frame_needed = 0, uses_anonymous_args = 0
.LVL841:
	push	{r0, r1, r4, r5, r6, r7, r8, r10, fp, lr}
	.cfi_def_cfa_offset 40
	.cfi_offset 4, -32
	.cfi_offset 5, -28
	.cfi_offset 6, -24
	.cfi_offset 7, -20
	.cfi_offset 8, -16
	.cfi_offset 10, -12
	.cfi_offset 11, -8
	.cfi_offset 14, -4
	.loc 2 680 0
	mov	r4, r0
	.loc 2 687 0
	ldr	r8, .L725+28
	.loc 2 680 0
	mov	r7, r1
	.loc 2 683 0
	movs	r6, #0
	.loc 2 680 0
	str	r2, [sp, #4]
	mov	fp, r8
.LVL842:
.L707:
	.loc 2 686 0
	ldr	r2, .L725
	ldr	r3, [r2]
	adds	r3, r3, #1
	str	r3, [r2]
	.loc 2 687 0
	ldrh	r3, [r8]
	ldrh	r2, [r4, #2]
	subs	r3, r3, #1
	cmp	r2, r3
	bge	.L708
	.loc 2 687 0 is_stmt 0 discriminator 1
	ldrh	r2, [r4]
	movw	r3, #65535
	cmp	r2, r3
	bne	.L709
.L708:
	.loc 2 688 0 is_stmt 1
	mov	r0, r4
	bl	Ftl_write_map_blk_to_last_page
.LVL843:
.L709:
	.loc 2 699 0
	ldrh	r2, [r4]
	ldr	r3, [r4, #12]
	ldrh	r3, [r3, r2, lsl #1]
	cbnz	r3, .L710
	.loc 2 699 0 is_stmt 0 discriminator 1
	movw	r2, #699
	ldr	r1, .L725+4
	ldr	r0, .L725+8
	bl	printf
.LVL844:
.L710:
	.loc 2 700 0 is_stmt 1
	ldrh	r2, [r4]
	ldrh	r3, [r4, #10]
	cmp	r2, r3
	bcc	.L711
	.loc 2 700 0 is_stmt 0 discriminator 1
	mov	r2, #700
	ldr	r1, .L725+4
	ldr	r0, .L725+8
	bl	printf
.LVL845:
.L711:
	.loc 2 701 0 is_stmt 1
	ldrh	r2, [r4]
	.loc 2 707 0
	movs	r1, #0
	.loc 2 701 0
	ldr	r3, [r4, #12]
	.loc 2 703 0
	ldr	r5, .L725+12
	.loc 2 701 0
	ldrh	r10, [r3, r2, lsl #1]
.LVL846:
	.loc 2 703 0
	ldrh	r2, [r4, #2]
	.loc 2 704 0
	ldr	r3, [sp, #4]
	.loc 2 703 0
	orr	r2, r2, r10, lsl #10
	.loc 2 704 0
	str	r3, [r5, #8]
	.loc 2 703 0
	str	r2, [r5, #4]
	.loc 2 705 0
	ldr	r2, .L725+16
	ldr	r0, [r2]
	.loc 2 707 0
	movs	r2, #16
	.loc 2 705 0
	str	r0, [r5, #12]
	.loc 2 707 0
	bl	ftl_memset
.LVL847:
	.loc 2 708 0
	ldr	r2, [r5, #12]
.LVL848:
	.loc 2 713 0
	movs	r3, #1
	.loc 2 709 0
	ldr	r1, [r4, #28]
	.loc 2 713 0
	mov	r0, r5
	.loc 2 710 0
	strh	r7, [r2, #8]	@ movhi
	.loc 2 709 0
	str	r1, [r2, #4]
	.loc 2 711 0
	ldrh	r1, [r4, #4]
	.loc 2 712 0
	strh	r10, [r2, #2]	@ movhi
	.loc 2 711 0
	strh	r1, [r2]	@ movhi
	.loc 2 713 0
	mov	r2, r3
.LVL849:
	mov	r1, r3
	bl	FlashProgPages
.LVL850:
	.loc 2 714 0
	ldrh	r2, [r4, #2]
	.loc 2 716 0
	ldr	r3, [r5]
	.loc 2 714 0
	adds	r2, r2, #1
	uxth	r2, r2
	.loc 2 716 0
	adds	r3, r3, #1
	.loc 2 714 0
	strh	r2, [r4, #2]	@ movhi
	.loc 2 716 0
	bne	.L712
	.loc 2 717 0
	ldr	r1, [r5, #4]
	.loc 2 718 0
	adds	r6, r6, #1
.LVL851:
	.loc 2 717 0
	ldr	r0, .L725+20
	.loc 2 718 0
	uxth	r6, r6
	.loc 2 717 0
	bl	printf
.LVL852:
	.loc 2 719 0
	ldrh	r2, [r4, #2]
	cmp	r2, #2
	.loc 2 720 0
	ittt	ls
	ldrhls	r2, [fp]
	addls	r2, r2, #-1
	strhls	r2, [r4, #2]	@ movhi
	.loc 2 722 0
	cmp	r6, #3
	bls	.L714
	.loc 2 723 0
	mov	r2, r6
	ldr	r1, [r5, #4]
	ldr	r0, .L725+24
	bl	printf
.LVL853:
.L715:
	b	.L715
.L714:
	.loc 2 727 0
	ldr	r3, [r4, #32]
	cmp	r3, #0
	beq	.L707
.L724:
	b	.L724
.L712:
	.loc 2 731 0
	cmp	r2, #1
	beq	.L707
	.loc 2 734 0
	ldr	r2, [r5, #4]
	.loc 2 736 0
	movs	r0, #0
	.loc 2 734 0
	ldr	r3, [r4, #24]
	str	r2, [r3, r7, lsl #2]
	.loc 2 736 0
	add	sp, sp, #8
	.cfi_def_cfa_offset 32
	@ sp needed
	pop	{r4, r5, r6, r7, r8, r10, fp, pc}
.LVL854:
.L726:
	.align	2
.L725:
	.word	.LANCHOR66
	.word	.LANCHOR142
	.word	.LC1
	.word	.LANCHOR106
	.word	.LANCHOR108
	.word	.LC89
	.word	.LC90
	.word	.LANCHOR20
	.cfi_endproc
.LFE261:
	.size	FtlMapWritePage, .-FtlMapWritePage
	.section	.text.ftl_map_blk_gc,"ax",%progbits
	.align	1
	.global	ftl_map_blk_gc
	.syntax unified
	.thumb
	.thumb_func
	.fpu softvfp
	.type	ftl_map_blk_gc, %function
ftl_map_blk_gc:
.LFB259:
	.loc 2 586 0
	.cfi_startproc
	@ args = 0, pretend = 0, frame = 8
	@ frame_needed = 0, uses_anonymous_args = 0
.LVL855:
	.loc 2 591 0
	ldr	r3, [r0, #24]
	.loc 2 586 0
	push	{r0, r1, r4, r5, r6, r7, r8, r10, fp, lr}
	.cfi_def_cfa_offset 40
	.cfi_offset 4, -32
	.cfi_offset 5, -28
	.cfi_offset 6, -24
	.cfi_offset 7, -20
	.cfi_offset 8, -16
	.cfi_offset 10, -12
	.cfi_offset 11, -8
	.cfi_offset 14, -4
	.loc 2 586 0
	mov	r4, r0
	.loc 2 590 0
	ldr	r5, [r0, #12]
.LVL856:
	.loc 2 591 0
	str	r3, [sp]
.LVL857:
	.loc 2 594 0
	bl	ftl_free_no_use_map_blk
.LVL858:
	.loc 2 596 0
	ldrh	r3, [r4, #10]
	ldrh	r2, [r4, #8]
	subs	r3, r3, #4
	cmp	r2, r3
	blt	.L728
	.loc 2 597 0
	uxth	r0, r0
	ldrh	r7, [r5, r0, lsl #1]
.LVL859:
	.loc 2 598 0
	cbz	r7, .L728
	.loc 2 598 0 is_stmt 0 discriminator 1
	ldr	r3, [r4, #32]
	cbnz	r3, .L728
	.loc 2 599 0 is_stmt 1
	movs	r2, #1
	str	r2, [r4, #32]
	.loc 2 600 0
	strh	r3, [r5, r0, lsl #1]	@ movhi
	.loc 2 601 0
	ldrh	r3, [r4, #8]
	.loc 2 602 0
	ldrh	r2, [r4, #2]
	.loc 2 601 0
	subs	r3, r3, #1
	strh	r3, [r4, #8]	@ movhi
	.loc 2 602 0
	ldr	r3, .L739
	ldrh	r3, [r3]
	cmp	r2, r3
	bcc	.L729
	.loc 2 603 0
	mov	r0, r4
.LVL860:
	bl	ftl_map_blk_alloc_new_blk
.LVL861:
.L729:
	.loc 2 607 0 discriminator 1
	ldr	r5, .L739+4
.LVL862:
	.loc 2 586 0 discriminator 1
	movs	r6, #0
	.loc 2 607 0 discriminator 1
	ldr	fp, .L739+20
.L730:
	.loc 2 605 0 discriminator 1
	ldrh	r3, [r4, #6]
	uxth	r10, r6
.LVL863:
	cmp	r3, r10
	bhi	.L734
	.loc 2 621 0
	movs	r1, #1
	mov	r0, r7
	bl	FtlFreeSysBlkQueueIn
.LVL864:
	.loc 2 622 0
	movs	r3, #0
	str	r3, [r4, #32]
.LVL865:
.L728:
	.loc 2 626 0
	ldr	r3, .L739
	ldrh	r2, [r4, #2]
	ldrh	r3, [r3]
	cmp	r2, r3
	bcc	.L735
	.loc 2 627 0
	mov	r0, r4
	bl	ftl_map_blk_alloc_new_blk
.LVL866:
.L735:
	.loc 2 629 0
	movs	r0, #0
	add	sp, sp, #8
	.cfi_remember_state
	.cfi_def_cfa_offset 32
.LVL867:
	@ sp needed
	pop	{r4, r5, r6, r7, r8, r10, fp, pc}
.LVL868:
.L734:
	.cfi_restore_state
	.loc 2 606 0
	ldr	r3, [sp]
	uxth	r8, r6
	ldr	r2, [r3, r8, lsl #2]
	cmp	r7, r2, lsr #10
	bne	.L731
	.loc 2 607 0
	ldr	r3, [fp]
	.loc 2 609 0
	str	r2, [r5, #4]
.LVL869:
	.loc 2 611 0
	movs	r2, #1
	mov	r1, r2
	ldr	r0, .L739+4
	.loc 2 607 0
	str	r3, [r5, #8]
	.loc 2 608 0
	ldr	r3, .L739+8
	ldr	r3, [r3]
	str	r3, [r5, #12]
	str	r3, [sp, #4]
.LVL870:
	.loc 2 611 0
	bl	FlashReadPages
.LVL871:
	.loc 2 613 0
	ldr	r3, [sp, #4]
	ldrh	r3, [r3, #8]
	cmp	r3, r10
	beq	.L732
	.loc 2 613 0 is_stmt 0 discriminator 1
	movw	r2, #613
	ldr	r1, .L739+12
	ldr	r0, .L739+16
	bl	printf
.LVL872:
.L732:
	.loc 2 614 0 is_stmt 1
	ldr	r3, [r5]
	adds	r3, r3, #1
	bne	.L733
	.loc 2 615 0
	ldr	r2, [sp]
	movs	r3, #0
	str	r3, [r2, r8, lsl #2]
.L731:
.LVL873:
	adds	r6, r6, #1
.LVL874:
	b	.L730
.LVL875:
.L733:
	.loc 2 617 0
	ldr	r2, [r5, #8]
	mov	r1, r8
	mov	r0, r4
	bl	FtlMapWritePage
.LVL876:
	b	.L731
.L740:
	.align	2
.L739:
	.word	.LANCHOR20
	.word	.LANCHOR106
	.word	.LANCHOR108
	.word	.LANCHOR143
	.word	.LC1
	.word	.LANCHOR123
	.cfi_endproc
.LFE259:
	.size	ftl_map_blk_gc, .-ftl_map_blk_gc
	.section	.text.flush_l2p_region,"ax",%progbits
	.align	1
	.global	flush_l2p_region
	.syntax unified
	.thumb
	.thumb_func
	.fpu softvfp
	.type	flush_l2p_region, %function
flush_l2p_region:
.LFB262:
	.loc 2 739 0
	.cfi_startproc
	@ args = 0, pretend = 0, frame = 0
	@ frame_needed = 0, uses_anonymous_args = 0
.LVL877:
	push	{r3, r4, r5, lr}
	.cfi_def_cfa_offset 16
	.cfi_offset 3, -16
	.cfi_offset 4, -12
	.cfi_offset 5, -8
	.cfi_offset 14, -4
	.loc 2 742 0
	movs	r4, #12
	ldr	r5, .L742
	muls	r4, r0, r4
	.loc 2 743 0
	ldr	r0, .L742+4
.LVL878:
	.loc 2 742 0
	ldr	r3, [r5]
	adds	r2, r3, r4
.LVL879:
	.loc 2 743 0
	ldrh	r1, [r3, r4]
.LVL880:
	ldr	r2, [r2, #8]
	bl	FtlMapWritePage
.LVL881:
	.loc 2 744 0
	ldr	r3, [r5]
	.loc 2 746 0
	movs	r0, #0
	.loc 2 744 0
	add	r4, r4, r3
	ldr	r3, [r4, #4]
	bic	r3, r3, #-2147483648
	str	r3, [r4, #4]
	.loc 2 746 0
	pop	{r3, r4, r5, pc}
.L743:
	.align	2
.L742:
	.word	.LANCHOR55
	.word	.LANCHOR144
	.cfi_endproc
.LFE262:
	.size	flush_l2p_region, .-flush_l2p_region
	.section	.text.log2phys,"ax",%progbits
	.align	1
	.global	log2phys
	.syntax unified
	.thumb
	.thumb_func
	.fpu softvfp
	.type	log2phys, %function
log2phys:
.LFB265:
	.loc 2 802 0
	.cfi_startproc
	@ args = 0, pretend = 0, frame = 0
	@ frame_needed = 0, uses_anonymous_args = 0
.LVL882:
	.loc 2 805 0
	ldr	r3, .L758
	.loc 2 802 0
	push	{r4, r5, r6, r7, r8, r10, fp, lr}
	.cfi_def_cfa_offset 32
	.cfi_offset 4, -32
	.cfi_offset 5, -28
	.cfi_offset 6, -24
	.cfi_offset 7, -20
	.cfi_offset 8, -16
	.cfi_offset 10, -12
	.cfi_offset 11, -8
	.cfi_offset 14, -4
	.loc 2 802 0
	mov	r7, r1
	mov	r10, r2
	.loc 2 805 0
	ldrh	r4, [r3]
	adds	r3, r4, #7
	.loc 2 806 0
	movs	r4, #1
	.loc 2 805 0
	lsr	r8, r0, r3
	.loc 2 806 0
	lsls	r4, r4, r3
	.loc 2 808 0
	ldr	r3, .L758+4
	.loc 2 806 0
	subs	r4, r4, #1
	.loc 2 805 0
	uxth	r8, r8
.LVL883:
	.loc 2 806 0
	ands	r4, r4, r0
	.loc 2 808 0
	ldr	r3, [r3]
	.loc 2 806 0
	uxth	r4, r4
.LVL884:
	.loc 2 808 0
	cmp	r0, r3
	bcc	.L745
	.loc 2 808 0 is_stmt 0 discriminator 1
	mov	r2, #808
.LVL885:
	ldr	r1, .L758+8
.LVL886:
	ldr	r0, .L758+12
.LVL887:
	bl	printf
.LVL888:
.L745:
	.loc 2 811 0 is_stmt 1
	ldr	r6, .L758+16
	mov	fp, #12
	.loc 2 810 0
	ldr	r3, .L758+20
	.loc 2 811 0
	ldr	r1, [r6]
	.loc 2 810 0
	ldrh	r2, [r3]
	movs	r3, #0
.LVL889:
.L746:
	uxth	r5, r3
.LVL890:
	.loc 2 810 0 is_stmt 0 discriminator 1
	cmp	r5, r2
	bcc	.L751
	.loc 2 825 0 is_stmt 1
	bl	select_l2p_ram_region
.LVL891:
	.loc 2 826 0
	mul	fp, fp, r0
	ldr	r3, [r6]
	.loc 2 825 0
	mov	r5, r0
.LVL892:
	.loc 2 826 0
	ldrh	r1, [r3, fp]
	add	r2, r3, fp
	movw	r3, #65535
	cmp	r1, r3
	beq	.L752
	.loc 2 826 0 is_stmt 0 discriminator 1
	ldr	r3, [r2, #4]
	cmp	r3, #0
	bge	.L752
	.loc 2 827 0 is_stmt 1
	bl	flush_l2p_region
.LVL893:
.L752:
	.loc 2 830 0
	mov	r1, r5
	mov	r0, r8
	bl	load_l2p_region
.LVL894:
	.loc 2 831 0
	b	.L747
.LVL895:
.L751:
	adds	r3, r3, #1
	.loc 2 811 0
	mla	r0, fp, r3, r1
	ldrh	r0, [r0, #-12]
	cmp	r0, r8
	bne	.L746
.LVL896:
.L747:
	.loc 2 814 0
	ldr	r2, [r6]
	movs	r3, #12
	mla	r3, r3, r5, r2
	.loc 2 813 0
	cmp	r10, #0
	bne	.L748
	.loc 2 814 0
	ldr	r3, [r3, #8]
	ldr	r3, [r3, r4, lsl #2]
	str	r3, [r7]
.L749:
	.loc 2 820 0
	ldr	r2, [r6]
	movs	r3, #12
	mla	r5, r3, r5, r2
.LVL897:
	ldr	r3, [r5, #4]
	adds	r2, r3, #1
	beq	.L755
	.loc 2 821 0
	adds	r3, r3, #1
	str	r3, [r5, #4]
.L755:
	.loc 2 832 0
	movs	r0, #0
	pop	{r4, r5, r6, r7, r8, r10, fp, pc}
.LVL898:
.L748:
	.loc 2 816 0
	ldr	r1, [r7]
	ldr	r2, [r3, #8]
	str	r1, [r2, r4, lsl #2]
	.loc 2 817 0
	ldr	r2, [r3, #4]
	orr	r2, r2, #-2147483648
	str	r2, [r3, #4]
	.loc 2 818 0
	ldr	r3, .L758+24
	strh	r8, [r3]	@ movhi
	b	.L749
.L759:
	.align	2
.L758:
	.word	.LANCHOR22
	.word	.LANCHOR61
	.word	.LANCHOR145
	.word	.LC1
	.word	.LANCHOR55
	.word	.LANCHOR33
	.word	.LANCHOR56
	.cfi_endproc
.LFE265:
	.size	log2phys, .-log2phys
	.section	.text.FtlReUsePrevPpa,"ax",%progbits
	.align	1
	.global	FtlReUsePrevPpa
	.syntax unified
	.thumb
	.thumb_func
	.fpu softvfp
	.type	FtlReUsePrevPpa, %function
FtlReUsePrevPpa:
.LFB283:
	.loc 2 1677 0
	.cfi_startproc
	@ args = 0, pretend = 0, frame = 8
	@ frame_needed = 0, uses_anonymous_args = 0
.LVL899:
	push	{r0, r1, r4, r5, r6, r7, r8, lr}
	.cfi_def_cfa_offset 32
	.cfi_offset 4, -24
	.cfi_offset 5, -20
	.cfi_offset 6, -16
	.cfi_offset 7, -12
	.cfi_offset 8, -8
	.cfi_offset 14, -4
	.loc 2 1677 0
	mov	r6, r0
	.loc 2 1680 0
	ldr	r5, .L770
	.loc 2 1678 0
	ubfx	r0, r1, #10, #16
.LVL900:
	.loc 2 1677 0
	str	r1, [sp, #4]
	.loc 2 1678 0
	bl	P2V_block_in_plane
.LVL901:
	.loc 2 1680 0
	ldr	r2, [r5]
	.loc 2 1678 0
	mov	r7, r0
.LVL902:
	.loc 2 1680 0
	ldrh	r3, [r2, r0, lsl #1]
	cbnz	r3, .L761
	.loc 2 1681 0
	ldr	r2, .L770+4
	ldr	r4, [r2]
	cmp	r4, #0
	beq	.L762
.LBB262:
	.loc 2 1685 0
	ldr	r2, .L770+8
	.loc 2 1693 0
	movw	lr, #65535
	.loc 2 1685 0
	ldr	ip, .L770+24
	.loc 2 1684 0
	ldr	r0, .L770+12
.LVL903:
	.loc 2 1685 0
	ldr	r2, [r2]
	.loc 2 1684 0
	ldrh	r1, [r0]
.LVL904:
	mov	r8, r0
	.loc 2 1685 0
	subs	r4, r4, r2
	asrs	r4, r4, #1
	mul	r4, ip, r4
	.loc 2 1693 0
	mov	ip, #6
	.loc 2 1685 0
	uxth	r4, r4
.LVL905:
.L763:
	.loc 2 1686 0 discriminator 1
	uxth	r0, r3
	cmp	r1, r0
	bls	.L762
	.loc 2 1687 0
	cmp	r4, r7
	bne	.L764
	.loc 2 1688 0
	mov	r1, r4
.LVL906:
	ldr	r0, .L770+4
	bl	List_remove_node
.LVL907:
	ldrh	r3, [r8]
	cbnz	r3, .L765
	.loc 2 1688 0 is_stmt 0 discriminator 1
	mov	r2, #1688
	ldr	r1, .L770+16
	ldr	r0, .L770+20
	bl	printf
.LVL908:
.L765:
	.loc 2 1688 0 discriminator 3
	ldrh	r3, [r8]
	.loc 2 1689 0 is_stmt 1 discriminator 3
	mov	r0, r4
	.loc 2 1688 0 discriminator 3
	subs	r3, r3, #1
	strh	r3, [r8]	@ movhi
	.loc 2 1689 0 discriminator 3
	bl	INSERT_DATA_LIST
.LVL909:
	.loc 2 1690 0 discriminator 3
	ldr	r2, [r5]
	ldrh	r3, [r2, r7, lsl #1]
.LVL910:
.L761:
.LBE262:
	.loc 2 1699 0
	adds	r3, r3, #1
	strh	r3, [r2, r7, lsl #1]	@ movhi
	b	.L762
.LVL911:
.L764:
.LBB263:
	.loc 2 1693 0
	mul	r4, ip, r4
.LVL912:
	adds	r3, r3, #1
.LVL913:
	ldrh	r4, [r2, r4]
	cmp	r4, lr
	bne	.L763
.LVL914:
.L762:
.LBE263:
	.loc 2 1701 0
	movs	r2, #1
	add	r1, sp, #4
	mov	r0, r6
	bl	log2phys
.LVL915:
	.loc 2 1702 0
	add	sp, sp, #8
	.cfi_def_cfa_offset 24
	@ sp needed
	pop	{r4, r5, r6, r7, r8, pc}
.LVL916:
.L771:
	.align	2
.L770:
	.word	.LANCHOR42
	.word	.LANCHOR47
	.word	.LANCHOR40
	.word	.LANCHOR48
	.word	.LANCHOR146
	.word	.LC1
	.word	-1431655765
	.cfi_endproc
.LFE283:
	.size	FtlReUsePrevPpa, .-FtlReUsePrevPpa
	.section	.text.ftl_scan_all_data,"ax",%progbits
	.align	1
	.global	ftl_scan_all_data
	.syntax unified
	.thumb
	.thumb_func
	.fpu softvfp
	.type	ftl_scan_all_data, %function
ftl_scan_all_data:
.LFB294:
	.loc 2 2325 0
	.cfi_startproc
	@ args = 0, pretend = 0, frame = 8
	@ frame_needed = 0, uses_anonymous_args = 0
	push	{r4, r5, r6, r7, r8, lr}
	.cfi_def_cfa_offset 24
	.cfi_offset 4, -24
	.cfi_offset 5, -20
	.cfi_offset 6, -16
	.cfi_offset 7, -12
	.cfi_offset 8, -8
	.cfi_offset 14, -4
	.loc 2 2331 0
	movs	r5, #0
	ldr	r7, .L786
	.loc 2 2325 0
	sub	sp, sp, #32
	.cfi_def_cfa_offset 56
	.loc 2 2330 0
	movs	r1, #0
	.loc 2 2334 0
	ldr	r8, .L786+24
	.loc 2 2330 0
	ldr	r0, .L786+4
	bl	printf
.LVL917:
.L773:
	.loc 2 2331 0 discriminator 1
	ldr	r3, [r7]
	cmp	r5, r3
	bcc	.L779
	.loc 2 2353 0
	add	sp, sp, #32
	.cfi_remember_state
	.cfi_def_cfa_offset 24
	@ sp needed
	pop	{r4, r5, r6, r7, r8, pc}
.LVL918:
.L779:
	.cfi_restore_state
	.loc 2 2332 0
	movs	r2, #0
	add	r1, sp, #28
	mov	r0, r5
	bl	log2phys
.LVL919:
	.loc 2 2333 0
	ubfx	r3, r5, #0, #11
	cbnz	r3, .L774
	.loc 2 2334 0
	ldr	r2, [sp, #28]
	mov	r1, r5
	mov	r0, r8
	bl	printf
.LVL920:
.L774:
	.loc 2 2335 0
	ldr	r3, [sp, #28]
	adds	r2, r3, #1
	beq	.L776
	.loc 2 2336 0
	ldr	r4, .L786+8
	.loc 2 2340 0
	movs	r2, #0
	.loc 2 2342 0
	movs	r1, #1
	.loc 2 2336 0
	str	r3, [r4, #4]
	.loc 2 2342 0
	mov	r0, r4
	.loc 2 2338 0
	ldr	r3, .L786+12
	.loc 2 2337 0
	str	r5, [r4, #16]
	.loc 2 2340 0
	str	r2, [r4]
	.loc 2 2338 0
	ldr	r3, [r3]
	str	r3, [r4, #8]
	.loc 2 2339 0
	ldr	r3, .L786+16
	ldr	r6, [r3]
.LVL921:
	str	r6, [r4, #12]
	.loc 2 2342 0
	bl	FlashReadPages
.LVL922:
	.loc 2 2343 0
	ldr	r3, [r4]
	cmp	r3, #256
	beq	.L777
	.loc 2 2343 0 is_stmt 0 discriminator 1
	adds	r3, r3, #1
	beq	.L777
	.loc 2 2344 0 is_stmt 1
	ldr	r3, [r6, #8]
	cmp	r5, r3
	beq	.L776
.L777:
	.loc 2 2347 0
	ldr	r2, [r4, #8]
	ldr	r3, [r4, #12]
	ldr	r0, .L786+20
	ldr	r1, [r2, #4]
	str	r1, [sp, #16]
	mov	r1, r5
	ldr	r2, [r2]
	str	r2, [sp, #12]
	ldr	r2, [r3, #12]
	str	r2, [sp, #8]
	ldr	r2, [r3, #8]
	str	r2, [sp, #4]
	ldr	r2, [r3, #4]
	str	r2, [sp]
	ldr	r2, [r4, #4]
	ldr	r3, [r3]
	bl	printf
.LVL923:
.L776:
	.loc 2 2331 0 discriminator 2
	adds	r5, r5, #1
.LVL924:
	b	.L773
.L787:
	.align	2
.L786:
	.word	.LANCHOR61
	.word	.LC91
	.word	.LANCHOR106
	.word	.LANCHOR107
	.word	.LANCHOR108
	.word	.LC93
	.word	.LC92
	.cfi_endproc
.LFE294:
	.size	ftl_scan_all_data, .-ftl_scan_all_data
	.section	.text.FtlReadRefresh,"ax",%progbits
	.align	1
	.global	FtlReadRefresh
	.syntax unified
	.thumb
	.thumb_func
	.fpu softvfp
	.type	FtlReadRefresh, %function
FtlReadRefresh:
.LFB321:
	.loc 5 419 0
	.cfi_startproc
	@ args = 0, pretend = 0, frame = 88
	@ frame_needed = 0, uses_anonymous_args = 0
.LVL925:
	.loc 5 425 0
	ldr	r3, .L801
	.loc 5 419 0
	push	{r4, r5, r6, lr}
	.cfi_def_cfa_offset 16
	.cfi_offset 4, -16
	.cfi_offset 5, -12
	.cfi_offset 6, -8
	.cfi_offset 14, -4
	sub	sp, sp, #88
	.cfi_def_cfa_offset 104
	mov	r4, r3
	.loc 5 425 0
	ldr	r0, [r3, #80]
	cmp	r0, #0
	beq	.L789
	.loc 5 426 0
	ldr	r6, .L801+4
	ldr	r0, [r3, #84]
	ldr	r1, [r6]
	cmp	r0, r1
	bcs	.L790
	mov	r5, #2048
.L795:
.LVL926:
.LBB269:
.LBB270:
	.loc 5 428 0
	ldr	r0, [r4, #84]
	ldr	r3, [r6]
	cmp	r0, r3
	bcs	.L792
	.loc 5 430 0
	movs	r2, #0
	mov	r1, sp
	bl	log2phys
.LVL927:
	.loc 5 432 0
	ldr	r2, [sp]
	.loc 5 431 0
	ldr	r3, [r4, #84]
	.loc 5 432 0
	adds	r1, r2, #1
	.loc 5 431 0
	add	r3, r3, #1
	str	r3, [r4, #84]
	.loc 5 432 0
	beq	.L793
.LBB271:
	.loc 5 435 0
	str	r3, [sp, #20]
	.loc 5 438 0
	add	r0, sp, #88
	.loc 5 436 0
	ldr	r3, .L801+8
	.loc 5 439 0
	movs	r1, #1
	.loc 5 434 0
	str	r2, [sp, #8]
	.loc 5 438 0
	movs	r2, #0
	str	r2, [r0, #-84]!
	.loc 5 436 0
	str	r3, [sp, #12]
	.loc 5 437 0
	add	r3, sp, #24
	str	r3, [sp, #16]
	.loc 5 439 0
	bl	FlashReadPages
.LVL928:
	.loc 5 440 0
	ldr	r3, [sp, #4]
	cmp	r3, #256
	bne	.L792
	.loc 5 442 0
	ldr	r0, [sp]
	ubfx	r0, r0, #10, #16
	bl	P2V_block_in_plane
.LVL929:
	bl	FtlGcRefreshBlock
.LVL930:
.L792:
.LBE271:
	mov	r0, #-1
.L788:
.LBE270:
.LBE269:
	.loc 5 466 0
	add	sp, sp, #88
	.cfi_remember_state
	.cfi_def_cfa_offset 16
	@ sp needed
	pop	{r4, r5, r6, pc}
.LVL931:
.L793:
	.cfi_restore_state
.LBB273:
.LBB272:
	.loc 5 427 0
	subs	r5, r5, #1
.LVL932:
	bne	.L795
	b	.L792
.LVL933:
.L790:
.LBE272:
.LBE273:
	.loc 5 451 0
	ldr	r2, .L801+12
	.loc 5 449 0
	movs	r0, #0
	str	r0, [r3, #80]
	.loc 5 450 0
	str	r0, [r3, #84]
	.loc 5 451 0
	ldr	r2, [r2]
	str	r2, [r3, #76]
	b	.L788
.L789:
.LVL934:
.LBB274:
	.loc 5 456 0
	ldr	r1, [r3, #76]
	ldr	r3, .L801+12
	ldr	r5, [r3]
	add	r3, r5, #1048576
	cmp	r1, r3
	bhi	.L798
	.loc 5 454 0
	ldr	r3, .L801+16
	ldr	r2, [r3]
	mov	r3, #33554432
	lsrs	r2, r2, #10
	asrs	r3, r3, r2
	.loc 5 457 0
	add	r3, r3, r1
	cmp	r5, r3
	bhi	.L798
	.loc 5 458 0
	ldr	r3, .L801+20
	ldrb	r3, [r3, #28]	@ zero_extendqisi2
	cmp	r3, #0
	bne	.L788
.L798:
	.loc 5 460 0
	movs	r3, #1
	.loc 5 461 0
	movs	r0, #0
	.loc 5 460 0
	str	r3, [r4, #80]
	.loc 5 461 0
	str	r0, [r4, #84]
	.loc 5 462 0
	str	r5, [r4, #76]
	b	.L788
.L802:
	.align	2
.L801:
	.word	.LANCHOR81
	.word	.LANCHOR61
	.word	ftl_temp_buf
	.word	.LANCHOR62
	.word	.LANCHOR76
	.word	.LANCHOR39
.LBE274:
	.cfi_endproc
.LFE321:
	.size	FtlReadRefresh, .-FtlReadRefresh
	.section	.text.FtlMapBlkWriteDump_data,"ax",%progbits
	.align	1
	.global	FtlMapBlkWriteDump_data
	.syntax unified
	.thumb
	.thumb_func
	.fpu softvfp
	.type	FtlMapBlkWriteDump_data, %function
FtlMapBlkWriteDump_data:
.LFB270:
	.loc 2 946 0
	.cfi_startproc
	@ args = 0, pretend = 0, frame = 0
	@ frame_needed = 0, uses_anonymous_args = 0
.LVL935:
	.loc 2 952 0
	ldr	r3, [r0, #36]
	.loc 2 946 0
	push	{r4, r5, r6, lr}
	.cfi_def_cfa_offset 16
	.cfi_offset 4, -16
	.cfi_offset 5, -12
	.cfi_offset 6, -8
	.cfi_offset 14, -4
	.loc 2 946 0
	mov	r6, r0
	.loc 2 952 0
	cbz	r3, .L803
	.loc 2 948 0
	ldrh	r5, [r0, #6]
	.loc 2 954 0
	movs	r3, #0
	.loc 2 949 0
	ldr	r2, [r0, #24]
	.loc 2 954 0
	str	r3, [r0, #36]
	.loc 2 948 0
	subs	r5, r5, #1
	.loc 2 956 0
	ldr	r3, .L807
	.loc 2 957 0
	ldr	r1, .L807+4
	.loc 2 979 0
	uxth	r5, r5
	.loc 2 956 0
	ldr	r4, .L807+8
	.loc 2 979 0
	ldr	r2, [r2, r5, lsl #2]
.LVL936:
	.loc 2 956 0
	ldr	r0, [r3]
.LVL937:
	.loc 2 957 0
	ldr	r1, [r1]
	.loc 2 980 0
	str	r2, [r4, #4]
	.loc 2 956 0
	str	r0, [r4, #8]
	.loc 2 957 0
	str	r1, [r4, #12]
	.loc 2 981 0
	cbz	r2, .L805
	.loc 2 983 0
	movs	r2, #1
.LVL938:
	mov	r0, r4
	mov	r1, r2
	bl	FlashReadPages
.LVL939:
.L806:
	.loc 2 990 0
	ldr	r2, [r4, #8]
	mov	r1, r5
	mov	r0, r6
	.loc 2 992 0
	pop	{r4, r5, r6, lr}
	.cfi_remember_state
	.cfi_restore 14
	.cfi_restore 6
	.cfi_restore 5
	.cfi_restore 4
	.cfi_def_cfa_offset 0
.LVL940:
	.loc 2 990 0
	b	FtlMapWritePage
.LVL941:
.L805:
	.cfi_restore_state
	.loc 2 987 0
	ldr	r3, .L807+12
	movs	r1, #255
	ldrh	r2, [r3]
.LVL942:
	bl	ftl_memset
.LVL943:
	b	.L806
.LVL944:
.L803:
	pop	{r4, r5, r6, pc}
.L808:
	.align	2
.L807:
	.word	.LANCHOR123
	.word	.LANCHOR108
	.word	.LANCHOR106
	.word	.LANCHOR23
	.cfi_endproc
.LFE270:
	.size	FtlMapBlkWriteDump_data, .-FtlMapBlkWriteDump_data
	.section	.text.FtlScanSysBlk,"ax",%progbits
	.align	1
	.global	FtlScanSysBlk
	.syntax unified
	.thumb
	.thumb_func
	.fpu softvfp
	.type	FtlScanSysBlk, %function
FtlScanSysBlk:
.LFB273:
	.loc 2 1144 0
	.cfi_startproc
	@ args = 0, pretend = 0, frame = 32
	@ frame_needed = 0, uses_anonymous_args = 0
	push	{r4, r5, r6, r7, r8, r10, fp, lr}
	.cfi_def_cfa_offset 32
	.cfi_offset 4, -32
	.cfi_offset 5, -28
	.cfi_offset 6, -24
	.cfi_offset 7, -20
	.cfi_offset 8, -16
	.cfi_offset 10, -12
	.cfi_offset 11, -8
	.cfi_offset 14, -4
	.loc 2 1150 0
	movs	r4, #0
	.loc 2 1152 0
	ldr	r5, .L889
	.loc 2 1144 0
	sub	sp, sp, #32
	.cfi_def_cfa_offset 64
	.loc 2 1152 0
	mov	r1, r4
	.loc 2 1151 0
	ldr	r3, .L889+4
	.loc 2 1152 0
	ldr	r2, [r5]
	.loc 2 1150 0
	ldr	r6, .L889+8
	.loc 2 1151 0
	strh	r4, [r3]	@ movhi
	.loc 2 1152 0
	ldr	r3, .L889+12
	lsls	r2, r2, #2
	.loc 2 1150 0
	strh	r4, [r6]	@ movhi
	.loc 2 1154 0
	ldr	r7, .L889+16
	.loc 2 1152 0
	ldr	r0, [r3]
	bl	ftl_memset
.LVL945:
	.loc 2 1153 0
	ldr	r2, [r5]
	mov	r1, r4
	ldr	r3, .L889+20
	lsls	r2, r2, #1
	ldr	r0, [r3]
	bl	ftl_memset
.LVL946:
	.loc 2 1154 0
	ldrh	r2, [r7]
	mov	r1, r4
	ldr	r3, .L889+24
	lsls	r2, r2, #2
	ldr	r0, [r3]
	bl	ftl_memset
.LVL947:
	.loc 2 1155 0
	ldrh	r2, [r7]
	mov	r1, r4
	ldr	r3, .L889+28
	lsls	r2, r2, #1
	ldr	r0, [r3]
	bl	ftl_memset
.LVL948:
	.loc 2 1156 0
	movs	r2, #12
	movs	r1, #255
	ldr	r0, .L889+32
	bl	ftl_memset
.LVL949:
	.loc 2 1158 0
	ldr	r3, .L889+36
	str	r6, [sp, #12]
	str	r5, [sp, #16]
	ldrh	r3, [r3]
	str	r3, [sp, #4]
.LVL950:
.L810:
	.loc 2 1158 0 is_stmt 0 discriminator 1
	ldr	r3, .L889+40
	ldr	r2, [sp, #4]
	ldrh	r3, [r3]
	cmp	r3, r2
	bls	.L851
	.loc 2 1162 0 is_stmt 1 discriminator 1
	ldr	r3, .L889+44
	.loc 2 1169 0 discriminator 1
	movs	r5, #0
	ldr	r1, .L889+48
	mov	fp, r5
	.loc 2 1167 0 discriminator 1
	movs	r7, #20
	.loc 2 1162 0 discriminator 1
	ldrh	r8, [r3]
	.loc 2 1167 0 discriminator 1
	ldr	r3, .L889+52
	.loc 2 1169 0 discriminator 1
	ldr	r2, [r1]
	ldr	r1, .L889+56
	.loc 2 1167 0 discriminator 1
	ldr	r6, [r3]
	.loc 2 1168 0 discriminator 1
	ldr	r3, .L889+60
	.loc 2 1169 0 discriminator 1
	str	r2, [sp, #8]
	ldrh	r10, [r1]
	.loc 2 1168 0 discriminator 1
	ldr	r3, [r3]
	.loc 2 1164 0 discriminator 1
	ldr	r2, .L889+64
	b	.L852
.LVL951:
.L812:
	.loc 2 1164 0 is_stmt 0
	ldrb	r0, [r2, r5]	@ zero_extendqisi2
	ldr	r1, [sp, #4]
	str	r3, [sp, #28]
	str	r2, [sp, #24]
	bl	V2P_block
.LVL952:
	str	r0, [sp, #20]
.LVL953:
	.loc 2 1165 0 is_stmt 1
	bl	FtlBbmIsBadBlock
.LVL954:
	ldr	r2, [sp, #24]
	ldr	r3, [sp, #28]
	cbnz	r0, .L811
	.loc 2 1167 0
	ldr	r1, [sp, #20]
	mla	r0, r7, fp, r6
	.loc 2 1169 0
	ldr	r4, [sp, #8]
	.loc 2 1167 0
	lsls	r1, r1, #10
	.loc 2 1168 0
	str	r3, [r0, #8]
	.loc 2 1167 0
	str	r1, [r0, #4]
	.loc 2 1169 0
	mul	r1, r10, fp
	bic	r1, r1, #3
	add	r1, r1, r4
	str	r1, [r0, #12]
	.loc 2 1170 0
	add	r1, fp, #1
	uxth	fp, r1
.LVL955:
.L811:
	adds	r5, r5, #1
.LVL956:
.L852:
	.loc 2 1162 0 discriminator 1
	uxth	r1, r5
	cmp	r8, r1
	bhi	.L812
	.loc 2 1173 0
	cmp	fp, #0
	bne	.L813
.LVL957:
.L850:
	.loc 2 1158 0
	ldr	r3, [sp, #4]
	adds	r3, r3, #1
	uxth	r3, r3
	str	r3, [sp, #4]
.LVL958:
	b	.L810
.LVL959:
.L813:
	.loc 2 1177 0
	movs	r7, #0
	.loc 2 1176 0
	movs	r2, #1
	mov	r1, fp
	mov	r0, r6
	bl	FlashReadPages
.LVL960:
.L814:
	.loc 2 1177 0 discriminator 1
	uxth	r3, r7
	cmp	fp, r3
	bls	.L850
	.loc 2 1178 0
	ldr	r3, .L889+52
	mov	r8, #20
	mul	r8, r8, r7
	ldr	r3, [r3]
	add	r2, r3, r8
	.loc 2 1181 0
	ldr	r3, [r3, r8]
	.loc 2 1178 0
	ldr	r5, [r2, #4]
	.loc 2 1179 0
	ldr	r6, [r2, #12]
	.loc 2 1181 0
	adds	r3, r3, #1
	.loc 2 1178 0
	ubfx	r5, r5, #10, #16
.LVL961:
	.loc 2 1181 0
	bne	.L817
	mov	r10, #16
.L819:
.LVL962:
	.loc 2 1183 0
	ldr	r3, .L889+52
	.loc 2 1184 0
	movs	r2, #1
	mov	r1, r2
	.loc 2 1183 0
	ldr	r0, [r3]
	add	r0, r0, r8
	ldr	r3, [r0, #4]
	adds	r3, r3, #1
	str	r3, [r0, #4]
	.loc 2 1184 0
	bl	FlashReadPages
.LVL963:
	.loc 2 1185 0
	ldrh	r2, [r6]
	movw	r3, #65535
	cmp	r2, r3
	.loc 2 1186 0
	ldr	r3, .L889+52
	ldr	r3, [r3]
	.loc 2 1185 0
	bne	.L816
	.loc 2 1186 0
	mov	r2, #-1
	str	r2, [r3, r8]
	.loc 2 1194 0
	ldr	r3, .L889+52
	ldr	r3, [r3]
	ldr	r3, [r3, r8]
	cmp	r3, r2
	bne	.L817
.LVL964:
.L818:
	.loc 2 1336 0
	movs	r1, #0
	mov	r0, r5
	bl	FtlFreeSysBlkQueueIn
.LVL965:
	b	.L822
.LVL966:
.L816:
	.loc 2 1188 0
	ldr	r3, [r3, r8]
	adds	r3, r3, #1
	bne	.L817
.LVL967:
	add	r10, r10, #-1
.LVL968:
	uxth	r10, r10
	.loc 2 1182 0 discriminator 2
	cmp	r10, #0
	bne	.L819
	b	.L818
.L817:
	.loc 2 1196 0
	ldr	r3, .L889+68
	ldr	r2, [r3]
	ldr	r3, [r6, #4]
	adds	r1, r2, #1
	beq	.L820
	.loc 2 1196 0 is_stmt 0 discriminator 1
	cmp	r2, r3
	bhi	.L821
.L820:
	.loc 2 1198 0 is_stmt 1
	adds	r2, r3, #1
	.loc 2 1201 0
	ittt	ne
	ldrne	r1, .L889+68
	addne	r2, r3, #1
	strne	r2, [r1]
.L821:
	.loc 2 1206 0
	ldrh	r2, [r6]
	movw	r1, #61604
	cmp	r2, r1
	beq	.L823
	bhi	.L824
	movw	r3, #61574
	cmp	r2, r3
	beq	.L825
.L822:
.LVL969:
	adds	r7, r7, #1
.LVL970:
	b	.L814
.LVL971:
.L824:
	movw	r3, #61634
	cmp	r2, r3
	beq	.L826
	movw	r3, #65535
	cmp	r2, r3
	beq	.L818
	b	.L822
.L826:
	.loc 2 1211 0
	ldr	r3, .L889+8
	ldrh	r2, [r3]
	ldr	r3, .L889
	ldr	r3, [r3]
	cmp	r2, r3
	bls	.L828
	.loc 2 1211 0 is_stmt 0 discriminator 1
	movw	r2, #1211
	ldr	r1, .L889+72
	ldr	r0, .L889+76
	bl	printf
.LVL972:
.L828:
	.loc 2 1212 0 is_stmt 1
	ldr	r3, [sp, #16]
	ldr	r2, [sp, #12]
	ldr	r1, [r3]
	ldrh	r0, [r2]
	.loc 2 1214 0
	ldr	r2, .L889+12
	.loc 2 1212 0
	uxth	r10, r1
	.loc 2 1214 0
	ldr	ip, [r2]
	.loc 2 1212 0
	add	r3, r10, #-1
	sub	r10, r10, r0
	add	r10, r10, #-1
	sxth	r3, r3
.LVL973:
	sxth	r10, r10
.L829:
	.loc 2 1212 0 is_stmt 0 discriminator 1
	cmp	r3, r10
	bgt	.L835
	.loc 2 1235 0 is_stmt 1
	cmp	r3, #0
	bge	.L867
	b	.L822
.L835:
	.loc 2 1214 0
	ldr	r2, [ip, r3, lsl #2]
	add	r8, ip, r3, lsl #2
	ldr	r4, [r6, #4]
	cmp	r4, r2
	bls	.L830
	.loc 2 1216 0
	ldr	r2, [ip]
	cbnz	r2, .L831
	.loc 2 1216 0 is_stmt 0 discriminator 1
	cmp	r1, r0
	.loc 2 1221 0 is_stmt 1 discriminator 1
	ittt	ne
	ldrne	r2, .L889+8
	addne	r0, r0, #1
	strhne	r0, [r2]	@ movhi
.L831:
	.loc 2 1227 0 discriminator 1
	ldr	r2, .L889+20
	.loc 2 1224 0 discriminator 1
	uxth	r10, r3
	.loc 2 1227 0 discriminator 1
	ldr	r0, [r2]
	movs	r2, #0
.L832:
	.loc 2 1224 0 discriminator 1
	uxth	lr, r2
	sxth	r1, r2
.LVL974:
	cmp	r10, lr
	bhi	.L833
	.loc 2 1229 0
	ldr	r2, [r6, #4]
	.loc 2 1235 0
	cmp	r3, #0
	.loc 2 1229 0
	str	r2, [r8]
	.loc 2 1230 0
	strh	r5, [r0, r3, lsl #1]	@ movhi
	.loc 2 1235 0
	blt	.L822
	.loc 2 1242 0
	ldr	r2, .L889+8
	ldrh	r0, [r2]
	ldr	r2, .L889
	ldr	r2, [r2]
	subs	r2, r2, r0
	subs	r2, r2, #1
	sxth	r2, r2
	cmp	r3, r2
	bgt	.L822
.LVL975:
.L867:
	.loc 2 1244 0
	ldr	r2, .L889+8
	adds	r0, r0, #1
	strh	r0, [r2]	@ movhi
	.loc 2 1245 0
	ldr	r2, [r6, #4]
	str	r2, [ip, r3, lsl #2]
	.loc 2 1246 0
	ldr	r2, .L889+20
.L887:
	.loc 2 1290 0
	ldr	r2, [r2]
	strh	r5, [r2, r3, lsl #1]	@ movhi
	b	.L822
.LVL976:
.L833:
	.loc 2 1226 0 discriminator 3
	add	lr, ip, r1, lsl #2
	adds	r2, r2, #1
	ldr	r4, [lr, #4]
	.loc 2 1227 0 discriminator 3
	add	lr, r0, r1, lsl #1
	ldrh	lr, [lr, #2]
	.loc 2 1226 0 discriminator 3
	str	r4, [ip, r1, lsl #2]
	.loc 2 1227 0 discriminator 3
	strh	lr, [r0, r1, lsl #1]	@ movhi
.LVL977:
	b	.L832
.L830:
	subs	r3, r3, #1
.LVL978:
	sxth	r3, r3
.LVL979:
	b	.L829
.L890:
	.align	2
.L889:
	.word	.LANCHOR30
	.word	.LANCHOR35
	.word	.LANCHOR147
	.word	.LANCHOR135
	.word	.LANCHOR27
	.word	.LANCHOR129
	.word	.LANCHOR132
	.word	.LANCHOR36
	.word	.LANCHOR79
	.word	.LANCHOR5
	.word	.LANCHOR6
	.word	.LANCHOR3
	.word	.LANCHOR92
	.word	.LANCHOR120
	.word	.LANCHOR24
	.word	.LANCHOR91
	.word	.LANCHOR13
	.word	.LANCHOR70
	.word	.LANCHOR148
	.word	.LC1
.LVL980:
.L825:
	.loc 2 1252 0
	ldr	r8, .L891+12
	ldr	r10, .L891+20
	ldrh	r2, [r8]
	ldrh	r3, [r10]
	cmp	r2, r3
	bls	.L838
	.loc 2 1252 0 is_stmt 0 discriminator 1
	movw	r2, #1252
	ldr	r1, .L891
	ldr	r0, .L891+4
	bl	printf
.LVL981:
.L838:
	.loc 2 1255 0 is_stmt 1
	ldr	r2, .L891+8
	.loc 2 1253 0
	ldrh	lr, [r10]
	ldrh	ip, [r8]
	.loc 2 1255 0
	ldr	r0, [r2]
	.loc 2 1253 0
	add	r10, lr, #-1
	sxth	r3, r10
.LVL982:
	sub	r10, r10, ip
.L839:
	.loc 2 1253 0 is_stmt 0 discriminator 1
	cmp	r3, r10
	ble	.L844
	.loc 2 1255 0 is_stmt 1
	ldr	r1, [r6, #4]
	add	r8, r0, r3, lsl #2
	ldr	r2, [r0, r3, lsl #2]
	cmp	r1, r2
	bls	.L840
	.loc 2 1257 0
	ldr	r2, [r0]
	cbnz	r2, .L841
	.loc 2 1257 0 is_stmt 0 discriminator 1
	cmp	lr, ip
	.loc 2 1265 0 is_stmt 1 discriminator 1
	ittt	ne
	ldrne	r2, .L891+12
	addne	ip, ip, #1
	strhne	ip, [r2]	@ movhi
.L841:
	.loc 2 1270 0 discriminator 1
	ldr	r2, .L891+16
	.loc 2 1267 0 discriminator 1
	uxth	r10, r3
	.loc 2 1270 0 discriminator 1
	ldr	ip, [r2]
	movs	r2, #0
.L842:
	.loc 2 1267 0 discriminator 1
	uxth	lr, r2
	sxth	r1, r2
.LVL983:
	cmp	r10, lr
	bhi	.L843
	.loc 2 1272 0
	ldr	r2, [r6, #4]
	str	r2, [r8]
	.loc 2 1273 0
	strh	r5, [ip, r3, lsl #1]	@ movhi
.LVL984:
.L844:
	.loc 2 1278 0
	cmp	r3, #0
	blt	.L822
	.loc 2 1286 0
	ldr	r2, .L891+20
	ldr	ip, .L891+12
	ldrh	r2, [r2]
	ldrh	r1, [ip]
	subs	r2, r2, #1
	subs	r2, r2, r1
	sxth	r2, r2
	cmp	r3, r2
	bgt	.L822
	.loc 2 1289 0
	ldr	r2, [r6, #4]
	.loc 2 1288 0
	adds	r1, r1, #1
	strh	r1, [ip]	@ movhi
	.loc 2 1289 0
	str	r2, [r0, r3, lsl #2]
	.loc 2 1290 0
	ldr	r2, .L891+16
	b	.L887
.LVL985:
.L843:
	.loc 2 1269 0 discriminator 3
	add	lr, r0, r1, lsl #2
	adds	r2, r2, #1
	ldr	r4, [lr, #4]
	.loc 2 1270 0 discriminator 3
	add	lr, ip, r1, lsl #1
	ldrh	lr, [lr, #2]
	.loc 2 1269 0 discriminator 3
	str	r4, [r0, r1, lsl #2]
	.loc 2 1270 0 discriminator 3
	strh	lr, [ip, r1, lsl #1]	@ movhi
.LVL986:
	b	.L842
.L840:
	subs	r3, r3, #1
.LVL987:
	sxth	r3, r3
.LVL988:
	b	.L839
.LVL989:
.L823:
	.loc 2 1297 0
	ldr	r8, .L891+40
	movw	r2, #65535
	ldrh	r1, [r8]
	cmp	r1, r2
	bne	.L846
.L888:
	.loc 2 1309 0
	strh	r5, [r8]	@ movhi
	.loc 2 1310 0
	str	r3, [r8, #8]
	b	.L822
.L846:
	.loc 2 1304 0
	ldrh	r0, [r8, #4]
	cmp	r0, r2
	beq	.L847
	.loc 2 1305 0
	movs	r1, #1
	bl	FtlFreeSysBlkQueueIn
.LVL990:
.L847:
	.loc 2 1306 0
	ldr	r3, [r6, #4]
	ldr	r2, [r8, #8]
	cmp	r2, r3
	bcs	.L848
	.loc 2 1308 0
	ldrh	r2, [r8]
	strh	r2, [r8, #4]	@ movhi
	b	.L888
.L848:
	.loc 2 1314 0
	strh	r5, [r8, #4]	@ movhi
	b	.L822
.LVL991:
.L851:
	.loc 2 1341 0
	ldr	r3, .L891+24
	ldr	r2, [r3]
	ldrh	r3, [r2]
	cbz	r3, .L853
.L856:
	.loc 2 1359 0
	ldr	r3, .L891+16
	ldr	r4, [r3]
	ldrh	r2, [r4]
	cmp	r2, #0
	beq	.L854
.L855:
	.loc 2 1377 0
	ldr	r3, .L891+28
	ldrh	r2, [r3]
	ldr	r3, .L891+32
	ldr	r3, [r3]
	cmp	r2, r3
	bls	.L886
	.loc 2 1377 0 is_stmt 0 discriminator 1
	movw	r2, #1377
	ldr	r1, .L891
	ldr	r0, .L891+4
	bl	printf
.LVL992:
.L886:
	.loc 2 1379 0 is_stmt 1
	movs	r0, #0
	add	sp, sp, #32
	.cfi_remember_state
	.cfi_def_cfa_offset 32
	@ sp needed
	pop	{r4, r5, r6, r7, r8, r10, fp, pc}
.LVL993:
.L853:
	.cfi_restore_state
	.loc 2 1341 0 discriminator 1
	ldr	r1, .L891+28
	ldrh	r1, [r1]
	cmp	r1, #0
	beq	.L856
	.loc 2 1343 0 discriminator 1
	ldr	r5, .L891+32
	ldr	r0, [r5]
.L857:
	sxth	r1, r3
.LVL994:
	cmp	r1, r0
	bcs	.L856
	.loc 2 1345 0
	ldrh	r4, [r2, r1, lsl #1]
	adds	r3, r3, #1
	cmp	r4, #0
	beq	.L857
	.loc 2 1350 0
	ldr	r3, .L891+36
	.loc 2 1351 0
	movs	r6, #0
	.loc 2 1350 0
	ldr	r0, [r3]
	mov	r3, r1
.L858:
.LVL995:
	.loc 2 1347 0 discriminator 1
	ldr	r4, [r5]
	cmp	r3, r4
	bcs	.L856
	.loc 2 1349 0 discriminator 3
	ldrh	r7, [r2, r3, lsl #1]
	subs	r4, r3, r1
	strh	r7, [r2, r4, lsl #1]	@ movhi
	.loc 2 1350 0 discriminator 3
	ldr	r7, [r0, r3, lsl #2]
	str	r7, [r0, r4, lsl #2]
	.loc 2 1351 0 discriminator 3
	strh	r6, [r2, r3, lsl #1]	@ movhi
	adds	r3, r3, #1
.LVL996:
	sxth	r3, r3
.LVL997:
	b	.L858
.LVL998:
.L854:
	.loc 2 1359 0 discriminator 1
	ldr	r3, .L891+12
	ldrh	r3, [r3]
	cmp	r3, #0
	beq	.L855
	.loc 2 1361 0 discriminator 1
	ldr	r5, .L891+20
	ldrh	r1, [r5]
.L863:
	sxth	r3, r2
.LVL999:
	cmp	r3, r1
	mov	r6, r3
	bge	.L855
	.loc 2 1363 0
	ldrh	r0, [r4, r3, lsl #1]
	adds	r2, r2, #1
	cmp	r0, #0
	beq	.L863
	.loc 2 1368 0
	ldr	r2, .L891+8
	.loc 2 1369 0
	movs	r0, #0
	.loc 2 1368 0
	ldr	r2, [r2]
.LVL1000:
.L864:
	.loc 2 1365 0 discriminator 1
	ldrh	r1, [r5]
	cmp	r3, r1
	bge	.L855
	.loc 2 1367 0 discriminator 3
	ldrh	r7, [r4, r3, lsl #1]
	subs	r1, r3, r6
	strh	r7, [r4, r1, lsl #1]	@ movhi
	.loc 2 1368 0 discriminator 3
	ldr	r7, [r2, r3, lsl #2]
	str	r7, [r2, r1, lsl #2]
	adds	r1, r3, #1
	.loc 2 1369 0 discriminator 3
	strh	r0, [r4, r3, lsl #1]	@ movhi
	sxth	r3, r1
.LVL1001:
	b	.L864
.L892:
	.align	2
.L891:
	.word	.LANCHOR148
	.word	.LC1
	.word	.LANCHOR132
	.word	.LANCHOR35
	.word	.LANCHOR36
	.word	.LANCHOR27
	.word	.LANCHOR129
	.word	.LANCHOR147
	.word	.LANCHOR30
	.word	.LANCHOR135
	.word	.LANCHOR79
	.cfi_endproc
.LFE273:
	.size	FtlScanSysBlk, .-FtlScanSysBlk
	.section	.text.FtlMapTblRecovery,"ax",%progbits
	.align	1
	.global	FtlMapTblRecovery
	.syntax unified
	.thumb
	.thumb_func
	.fpu softvfp
	.type	FtlMapTblRecovery, %function
FtlMapTblRecovery:
.LFB278:
	.loc 2 1515 0
	.cfi_startproc
	@ args = 0, pretend = 0, frame = 24
	@ frame_needed = 0, uses_anonymous_args = 0
.LVL1002:
	.loc 2 1521 0
	ldr	r3, [r0, #16]
	.loc 2 1526 0
	movs	r1, #0
	.loc 2 1515 0
	push	{r4, r5, r6, r7, r8, r10, fp, lr}
	.cfi_def_cfa_offset 32
	.cfi_offset 4, -32
	.cfi_offset 5, -28
	.cfi_offset 6, -24
	.cfi_offset 7, -20
	.cfi_offset 8, -16
	.cfi_offset 10, -12
	.cfi_offset 11, -8
	.cfi_offset 14, -4
	sub	sp, sp, #24
	.cfi_def_cfa_offset 56
	.loc 2 1522 0
	ldrh	fp, [r0, #6]
	.loc 2 1515 0
	mov	r4, r0
	.loc 2 1532 0
	movs	r6, #0
	.loc 2 1519 0
	ldr	r8, [r0, #24]
.LVL1003:
	.loc 2 1521 0
	str	r3, [sp, #12]
	.loc 2 1523 0
	ldrh	r3, [r0, #8]
	.loc 2 1526 0
	lsl	r2, fp, #2
	.loc 2 1520 0
	ldr	r10, [r0, #12]
.LVL1004:
	.loc 2 1526 0
	mov	r0, r8
.LVL1005:
	.loc 2 1527 0
	ldr	r5, .L920
	.loc 2 1523 0
	str	r3, [sp, #4]
.LVL1006:
	.loc 2 1526 0
	bl	ftl_memset
.LVL1007:
	.loc 2 1527 0
	ldr	r3, .L920+4
	.loc 2 1532 0
	str	r6, [r4, #32]
	.loc 2 1533 0
	str	r6, [r4, #28]
	.loc 2 1527 0
	ldr	r2, [r3]
	.loc 2 1559 0
	str	r3, [sp, #8]
	.loc 2 1527 0
	str	r2, [r5, #8]
	.loc 2 1528 0
	ldr	r2, .L920+8
	ldr	r7, [r2]
	.loc 2 1530 0
	movw	r2, #65535
	.loc 2 1528 0
	str	r7, [r5, #12]
.LVL1008:
	.loc 2 1530 0
	strh	r2, [r4]	@ movhi
	.loc 2 1531 0
	strh	r2, [r4, #2]	@ movhi
	.loc 2 1534 0
	movs	r2, #1
	str	r2, [r4, #36]
.LVL1009:
.L894:
	.loc 2 1535 0 discriminator 1
	ldr	r2, [sp, #4]
	sxth	r3, r6
.LVL1010:
	cmp	r3, r2
	bge	.L911
	.loc 2 1537 0
	ldr	r2, [sp, #4]
	subs	r2, r2, #1
	cmp	r3, r2
	lsl	r2, r3, #1
	bne	.L895
	.loc 2 1539 0
	ldrh	r0, [r10, r3, lsl #1]
	movs	r1, #1
	add	r5, r10, r2
	str	r3, [sp, #4]
.LVL1011:
	bl	FtlGetLastWrittenPage
.LVL1012:
	.loc 2 1542 0
	ldr	r3, [sp, #12]
	.loc 2 1539 0
	sxth	r10, r0
.LVL1013:
	.loc 2 1541 0
	strh	r6, [r4]	@ movhi
	.loc 2 1543 0
	movs	r6, #0
	.loc 2 1540 0
	adds	r0, r0, #1
	.loc 2 1542 0
	mov	r2, r3
	ldr	r3, [sp, #4]
	.loc 2 1540 0
	strh	r0, [r4, #2]	@ movhi
	.loc 2 1542 0
	ldr	r3, [r2, r3, lsl #2]
	str	r3, [r4, #28]
.LVL1014:
	.loc 2 1545 0
	ldr	r3, .L920
.LVL1015:
.L896:
	sxth	r2, r6
.LVL1016:
	.loc 2 1543 0 discriminator 1
	cmp	r2, r10
	ble	.L898
.LVL1017:
.L911:
	.loc 2 1596 0
	mov	r0, r4
	bl	ftl_free_no_use_map_blk
.LVL1018:
	.loc 2 1597 0
	ldr	r3, .L920+12
	ldrh	r2, [r4, #2]
	ldrh	r3, [r3]
	cmp	r2, r3
	bne	.L900
	.loc 2 1599 0
	mov	r0, r4
	bl	ftl_map_blk_alloc_new_blk
.LVL1019:
.L900:
	.loc 2 1602 0
	mov	r0, r4
	bl	ftl_map_blk_gc
.LVL1020:
	.loc 2 1604 0
	mov	r0, r4
	bl	ftl_map_blk_gc
.LVL1021:
	.loc 2 1606 0
	movs	r0, #0
	add	sp, sp, #24
	.cfi_remember_state
	.cfi_def_cfa_offset 32
	@ sp needed
	pop	{r4, r5, r6, r7, r8, r10, fp, pc}
.LVL1022:
.L898:
	.cfi_restore_state
	.loc 2 1545 0
	ldrh	r1, [r5]
	.loc 2 1546 0
	ldr	r0, .L920
	.loc 2 1545 0
	str	r3, [sp, #4]
	orr	r2, r2, r1, lsl #10
.LVL1023:
	str	r2, [r3, #4]
	.loc 2 1546 0
	movs	r2, #1
	mov	r1, r2
	bl	FlashReadPages
.LVL1024:
	.loc 2 1549 0
	ldr	r3, [sp, #4]
	ldr	r2, [r3]
	adds	r2, r2, #1
	beq	.L897
	.loc 2 1551 0
	ldrh	r2, [r7, #8]
	cmp	fp, r2
	bls	.L897
	.loc 2 1551 0 is_stmt 0 discriminator 1
	ldrh	r1, [r4, #4]
	ldrh	r0, [r7]
	cmp	r0, r1
	.loc 2 1553 0 is_stmt 1 discriminator 1
	itt	eq
	ldreq	r1, [r3, #4]
	streq	r1, [r8, r2, lsl #2]
.L897:
.LVL1025:
	adds	r6, r6, #1
.LVL1026:
	b	.L896
.LVL1027:
.L895:
	.loc 2 1559 0
	ldr	r1, [sp, #8]
	.loc 2 1560 0
	add	r2, r10, r2
	str	r2, [sp, #16]
	.loc 2 1561 0
	ldr	r0, .L920
	.loc 2 1559 0
	ldr	r1, [r1]
	str	r1, [r5, #8]
	.loc 2 1560 0
	ldrh	r1, [r10, r3, lsl #1]
	ldr	r3, .L920+12
.LVL1028:
	ldrh	r2, [r3]
	str	r3, [sp, #20]
	subs	r2, r2, #1
	orr	r2, r2, r1, lsl #10
	str	r2, [r5, #4]
	.loc 2 1561 0
	movs	r2, #1
	mov	r1, r2
	bl	FlashReadPages
.LVL1029:
	.loc 2 1564 0
	ldr	r2, [r5]
	adds	r2, r2, #1
	beq	.L913
	.loc 2 1564 0 is_stmt 0 discriminator 1
	ldrh	r1, [r7]
	ldrh	r2, [r4, #4]
	ldr	r3, [sp, #20]
	cmp	r1, r2
	bne	.L913
	.loc 2 1564 0 discriminator 2
	ldrh	r1, [r7, #8]
	movw	r2, #64245
	cmp	r1, r2
	beq	.L902
.L913:
	movs	r3, #0
.L903:
.LVL1030:
	.loc 2 1579 0 is_stmt 1 discriminator 1
	ldr	r1, .L920+12
	sxth	r2, r3
	ldrh	r1, [r1]
	cmp	r2, r1
	bge	.L909
	str	r3, [sp, #20]
	.loc 2 1581 0
	ldr	r3, [sp, #16]
.LVL1031:
	.loc 2 1582 0
	ldr	r0, .L920
	.loc 2 1581 0
	ldrh	r1, [r3]
	orr	r2, r2, r1, lsl #10
.LVL1032:
	str	r2, [r5, #4]
	.loc 2 1582 0
	movs	r2, #1
	mov	r1, r2
	bl	FlashReadPages
.LVL1033:
	.loc 2 1585 0
	ldr	r2, [r5]
	ldr	r3, [sp, #20]
	adds	r2, r2, #1
	beq	.L907
	.loc 2 1587 0
	ldrh	r2, [r7, #8]
	cmp	fp, r2
	bls	.L907
	.loc 2 1587 0 is_stmt 0 discriminator 1
	ldrh	r1, [r4, #4]
	ldrh	r0, [r7]
	cmp	r0, r1
	.loc 2 1589 0 is_stmt 1 discriminator 1
	itt	eq
	ldreq	r1, [r5, #4]
	streq	r1, [r8, r2, lsl #2]
.L907:
.LVL1034:
	adds	r3, r3, #1
.LVL1035:
	b	.L903
.L902:
	.loc 2 1567 0 discriminator 1
	ldrh	r2, [r3]
	.loc 2 1569 0 discriminator 1
	movs	r1, #0
	ldr	r3, [sp, #8]
	.loc 2 1567 0 discriminator 1
	subs	r2, r2, #1
	.loc 2 1569 0 discriminator 1
	ldr	ip, [r3]
.L904:
	sxth	r3, r1
.LVL1036:
	.loc 2 1567 0 discriminator 1
	cmp	r3, r2
	blt	.L906
.L909:
.LVL1037:
	adds	r6, r6, #1
.LVL1038:
	b	.L894
.LVL1039:
.L906:
	.loc 2 1569 0
	lsls	r0, r3, #3
	ldr	r3, [ip, r3, lsl #3]
.LVL1040:
	adds	r1, r1, #1
.LVL1041:
	.loc 2 1570 0
	uxth	lr, r3
	cmp	fp, lr
	.loc 2 1572 0
	itttt	hi
	addhi	r0, r0, ip
	movhi	r3, lr
.LVL1042:
	ldrhi	r0, [r0, #4]
	strhi	r0, [r8, r3, lsl #2]
	b	.L904
.L921:
	.align	2
.L920:
	.word	.LANCHOR106
	.word	.LANCHOR107
	.word	.LANCHOR108
	.word	.LANCHOR20
	.cfi_endproc
.LFE278:
	.size	FtlMapTblRecovery, .-FtlMapTblRecovery
	.section	.text.FtlLoadVonderInfo,"ax",%progbits
	.align	1
	.global	FtlLoadVonderInfo
	.syntax unified
	.thumb
	.thumb_func
	.fpu softvfp
	.type	FtlLoadVonderInfo, %function
FtlLoadVonderInfo:
.LFB279:
	.loc 2 1609 0
	.cfi_startproc
	@ args = 0, pretend = 0, frame = 0
	@ frame_needed = 0, uses_anonymous_args = 0
	push	{r3, lr}
	.cfi_def_cfa_offset 8
	.cfi_offset 3, -8
	.cfi_offset 14, -4
	.loc 2 1610 0
	ldr	r3, .L923
	ldr	r0, .L923+4
	ldrh	r3, [r3]
	strh	r3, [r0, #10]	@ movhi
	.loc 2 1611 0
	movw	r3, #61574
	strh	r3, [r0, #4]	@ movhi
	.loc 2 1612 0
	ldr	r3, .L923+8
	ldrh	r3, [r3]
	strh	r3, [r0, #8]	@ movhi
	.loc 2 1613 0
	ldr	r3, .L923+12
	ldrh	r3, [r3]
	strh	r3, [r0, #6]	@ movhi
	.loc 2 1614 0
	ldr	r3, .L923+16
	ldr	r3, [r3]
	str	r3, [r0, #12]
	.loc 2 1615 0
	ldr	r3, .L923+20
	ldr	r3, [r3]
	str	r3, [r0, #16]
	.loc 2 1616 0
	ldr	r3, .L923+24
	ldr	r3, [r3]
	str	r3, [r0, #20]
	.loc 2 1617 0
	ldr	r3, .L923+28
	ldr	r3, [r3]
	str	r3, [r0, #24]
	.loc 2 1619 0
	bl	FtlMapTblRecovery
.LVL1043:
	.loc 2 1622 0
	movs	r0, #0
	pop	{r3, pc}
.L924:
	.align	2
.L923:
	.word	.LANCHOR27
	.word	.LANCHOR149
	.word	.LANCHOR35
	.word	.LANCHOR28
	.word	.LANCHOR36
	.word	.LANCHOR132
	.word	.LANCHOR131
	.word	.LANCHOR133
	.cfi_endproc
.LFE279:
	.size	FtlLoadVonderInfo, .-FtlLoadVonderInfo
	.section	.text.FtlL2PDataInit,"ax",%progbits
	.align	1
	.global	FtlL2PDataInit
	.syntax unified
	.thumb
	.thumb_func
	.fpu softvfp
	.type	FtlL2PDataInit, %function
FtlL2PDataInit:
.LFB280:
	.loc 2 1625 0
	.cfi_startproc
	@ args = 0, pretend = 0, frame = 0
	@ frame_needed = 0, uses_anonymous_args = 0
	push	{r4, r5, r6, r7, r8, lr}
	.cfi_def_cfa_offset 24
	.cfi_offset 4, -24
	.cfi_offset 5, -20
	.cfi_offset 6, -16
	.cfi_offset 7, -12
	.cfi_offset 8, -8
	.cfi_offset 14, -4
	.loc 2 1627 0
	movs	r1, #0
	ldr	r5, .L928
	ldr	r4, .L928+4
	ldr	r2, [r5]
	.loc 2 1628 0
	ldr	r7, .L928+8
	ldr	r6, .L928+12
	.loc 2 1627 0
	ldr	r0, [r4]
	lsls	r2, r2, #1
	.loc 2 1628 0
	ldr	r8, .L928+44
	.loc 2 1627 0
	bl	ftl_memset
.LVL1044:
	.loc 2 1628 0
	ldrh	r3, [r7]
	movs	r1, #255
	ldrh	r2, [r6]
	ldr	r0, [r8]
	muls	r2, r3, r2
	bl	ftl_memset
.LVL1045:
	ldr	r3, .L928+16
	movw	r0, #65535
	ldrh	r1, [r6]
	.loc 2 1633 0
	ldr	ip, [r8]
	ldr	r2, [r3]
	movs	r3, #12
	ldrh	r7, [r7]
	mla	r3, r1, r3, r3
	adds	r1, r2, r3
	.loc 2 1629 0
	movs	r3, #0
	.loc 2 1631 0
	mov	lr, r3
.LVL1046:
.L926:
	adds	r2, r2, #12
	adds	r6, r3, r7
	.loc 2 1629 0 discriminator 1
	cmp	r2, r1
	bne	.L927
	.loc 2 1635 0
	ldr	r3, .L928+20
	.loc 2 1637 0
	ldr	r2, [r5]
	.loc 2 1635 0
	strh	r0, [r3, #2]	@ movhi
	.loc 2 1637 0
	strh	r2, [r3, #10]	@ movhi
	.loc 2 1638 0
	movw	r2, #61634
	strh	r2, [r3, #4]	@ movhi
	.loc 2 1639 0
	ldr	r2, .L928+24
	.loc 2 1636 0
	strh	r0, [r3]	@ movhi
	.loc 2 1639 0
	ldrh	r2, [r2]
	strh	r2, [r3, #8]	@ movhi
	.loc 2 1640 0
	ldr	r2, .L928+28
	ldrh	r2, [r2]
	strh	r2, [r3, #6]	@ movhi
	.loc 2 1641 0
	ldr	r2, .L928+32
	ldr	r2, [r2]
	str	r2, [r3, #12]
	.loc 2 1642 0
	ldr	r2, .L928+36
	ldr	r2, [r2]
	str	r2, [r3, #16]
	.loc 2 1643 0
	ldr	r2, [r4]
	str	r2, [r3, #20]
	.loc 2 1644 0
	ldr	r2, .L928+40
	ldr	r2, [r2]
	str	r2, [r3, #24]
	pop	{r4, r5, r6, r7, r8, pc}
.L927:
	.loc 2 1633 0 discriminator 3
	bic	r3, r3, #3
	.loc 2 1631 0 discriminator 3
	str	lr, [r2, #-8]
	.loc 2 1633 0 discriminator 3
	add	r3, r3, ip
	.loc 2 1632 0 discriminator 3
	strh	r0, [r2, #-12]	@ movhi
	.loc 2 1633 0 discriminator 3
	str	r3, [r2, #-4]
	mov	r3, r6
	b	.L926
.L929:
	.align	2
.L928:
	.word	.LANCHOR30
	.word	.LANCHOR130
	.word	.LANCHOR23
	.word	.LANCHOR33
	.word	.LANCHOR55
	.word	.LANCHOR144
	.word	.LANCHOR147
	.word	.LANCHOR32
	.word	.LANCHOR129
	.word	.LANCHOR135
	.word	.LANCHOR134
	.word	.LANCHOR136
	.cfi_endproc
.LFE280:
	.size	FtlL2PDataInit, .-FtlL2PDataInit
	.section	.text.FtlLoadMapInfo,"ax",%progbits
	.align	1
	.global	FtlLoadMapInfo
	.syntax unified
	.thumb
	.thumb_func
	.fpu softvfp
	.type	FtlLoadMapInfo, %function
FtlLoadMapInfo:
.LFB281:
	.loc 2 1648 0
	.cfi_startproc
	@ args = 0, pretend = 0, frame = 0
	@ frame_needed = 0, uses_anonymous_args = 0
	push	{r3, lr}
	.cfi_def_cfa_offset 8
	.cfi_offset 3, -8
	.cfi_offset 14, -4
	.loc 2 1649 0
	bl	FtlL2PDataInit
.LVL1047:
	.loc 2 1651 0
	ldr	r0, .L931
	bl	FtlMapTblRecovery
.LVL1048:
	.loc 2 1654 0
	movs	r0, #0
	pop	{r3, pc}
.L932:
	.align	2
.L931:
	.word	.LANCHOR144
	.cfi_endproc
.LFE281:
	.size	FtlLoadMapInfo, .-FtlLoadMapInfo
	.section	.text.FtlVariablesInit,"ax",%progbits
	.align	1
	.global	FtlVariablesInit
	.syntax unified
	.thumb
	.thumb_func
	.fpu softvfp
	.type	FtlVariablesInit, %function
FtlVariablesInit:
.LFB210:
	.loc 3 494 0
	.cfi_startproc
	@ args = 0, pretend = 0, frame = 0
	@ frame_needed = 0, uses_anonymous_args = 0
	push	{r3, r4, r5, lr}
	.cfi_def_cfa_offset 16
	.cfi_offset 3, -16
	.cfi_offset 4, -12
	.cfi_offset 5, -8
	.cfi_offset 14, -4
	.loc 3 497 0
	movw	r2, #65535
	ldr	r3, .L934
	.loc 3 498 0
	movs	r4, #0
	.loc 3 502 0
	mov	r1, r4
	.loc 3 503 0
	ldr	r5, .L934+4
	.loc 3 497 0
	strh	r2, [r3]	@ movhi
	.loc 3 500 0
	mov	r2, #-1
	.loc 3 498 0
	ldr	r3, .L934+8
	str	r4, [r3]
	.loc 3 499 0
	ldr	r3, .L934+12
	str	r4, [r3]
	.loc 3 500 0
	ldr	r3, .L934+16
	str	r2, [r3]
	.loc 3 501 0
	ldr	r3, .L934+20
	strh	r4, [r3]	@ movhi
	.loc 3 502 0
	ldr	r3, .L934+24
	ldrh	r2, [r3]
	ldr	r3, .L934+28
	lsls	r2, r2, #1
	ldr	r0, [r3]
	bl	ftl_memset
.LVL1049:
	.loc 3 503 0
	ldrh	r2, [r5]
	mov	r1, r4
	ldr	r3, .L934+32
	lsls	r2, r2, #1
	ldr	r0, [r3]
	bl	ftl_memset
.LVL1050:
	.loc 3 504 0
	ldrh	r2, [r5]
	mov	r1, r4
	ldr	r3, .L934+36
	lsls	r2, r2, #1
	ldr	r0, [r3]
	bl	ftl_memset
.LVL1051:
	.loc 3 505 0
	mov	r1, r4
	movs	r2, #48
	ldr	r0, .L934+40
	bl	ftl_memset
.LVL1052:
	.loc 3 506 0
	mov	r2, #512
	mov	r1, r4
	ldr	r0, .L934+44
	bl	ftl_memset
.LVL1053:
	.loc 3 507 0
	bl	FtlGcBufInit
.LVL1054:
	.loc 3 508 0
	bl	FtlL2PDataInit
.LVL1055:
	.loc 3 510 0
	mov	r0, r4
	pop	{r3, r4, r5, pc}
.L935:
	.align	2
.L934:
	.word	.LANCHOR150
	.word	.LANCHOR6
	.word	.LANCHOR151
	.word	.LANCHOR152
	.word	.LANCHOR153
	.word	.LANCHOR35
	.word	.LANCHOR27
	.word	.LANCHOR36
	.word	.LANCHOR43
	.word	.LANCHOR126
	.word	.LANCHOR39
	.word	.LANCHOR81
	.cfi_endproc
.LFE210:
	.size	FtlVariablesInit, .-FtlVariablesInit
	.section	.text.SupperBlkListInit,"ax",%progbits
	.align	1
	.global	SupperBlkListInit
	.syntax unified
	.thumb
	.thumb_func
	.fpu softvfp
	.type	SupperBlkListInit, %function
SupperBlkListInit:
.LFB288:
	.loc 2 2116 0
	.cfi_startproc
	@ args = 0, pretend = 0, frame = 16
	@ frame_needed = 0, uses_anonymous_args = 0
	push	{r0, r1, r2, r3, r4, r5, r6, r7, r8, r10, fp, lr}
	.cfi_def_cfa_offset 48
	.cfi_offset 4, -32
	.cfi_offset 5, -28
	.cfi_offset 6, -24
	.cfi_offset 7, -20
	.cfi_offset 8, -16
	.cfi_offset 10, -12
	.cfi_offset 11, -8
	.cfi_offset 14, -4
	.loc 2 2120 0
	movs	r2, #6
	ldr	r3, .L947
	movs	r1, #0
	.loc 2 2121 0
	movs	r4, #0
	.loc 2 2120 0
	ldr	r5, .L947+4
	.loc 2 2126 0
	mov	r8, r4
	.loc 2 2120 0
	ldrh	r3, [r3]
	.loc 2 2126 0
	mov	r6, r4
	.loc 2 2120 0
	ldr	r0, [r5]
	mov	r10, r5
	muls	r2, r3, r2
	bl	ftl_memset
.LVL1056:
	.loc 2 2121 0
	ldr	r3, .L947+8
	.loc 2 2124 0
	ldr	r2, .L947+12
	.loc 2 2121 0
	str	r4, [r3]
	.loc 2 2122 0
	ldr	r3, .L947+16
	.loc 2 2124 0
	strh	r4, [r2]	@ movhi
	str	r2, [sp, #4]
	.loc 2 2122 0
	str	r4, [r3]
	.loc 2 2123 0
	ldr	r3, .L947+20
	str	r4, [r3]
	.loc 2 2125 0
	ldr	r3, .L947+24
	mov	fp, r3
	strh	r4, [r3]	@ movhi
.LVL1057:
.L937:
	.loc 2 2128 0 discriminator 1
	ldr	r3, .L947+28
	uxth	r7, r4
.LVL1058:
	ldrh	r3, [r3]
	cmp	r7, r3
	bcs	.L943
	.loc 2 2130 0
	ldr	r3, .L947+32
	ldrh	r2, [r3]
	.loc 2 2133 0
	ldr	r3, .L947+36
	ldrh	r3, [r3]
	str	r3, [sp]
	movs	r3, #0
	mov	r5, r3
	b	.L944
.LVL1059:
.L939:
	str	r2, [sp, #12]
	.loc 2 2131 0
	mov	r1, r7
	ldr	r2, .L947+40
	str	r3, [sp, #8]
	ldrb	r0, [r2, r3]	@ zero_extendqisi2
	bl	V2P_block
.LVL1060:
	.loc 2 2132 0
	bl	FtlBbmIsBadBlock
.LVL1061:
	ldr	r3, [sp, #8]
	ldr	r2, [sp, #12]
	cbnz	r0, .L938
	.loc 2 2133 0
	ldr	r1, [sp]
	add	r5, r5, r1
.LVL1062:
	uxth	r5, r5
.LVL1063:
.L938:
	adds	r3, r3, #1
.LVL1064:
.L944:
	.loc 2 2130 0 discriminator 1
	uxth	r1, r3
	cmp	r2, r1
	bhi	.L939
	.loc 2 2135 0
	cbz	r5, .L946
	.loc 2 2136 0
	mov	r1, r5
	mov	r0, #32768
	bl	__aeabi_idiv
.LVL1065:
.L940:
	.loc 2 2137 0
	ldr	r1, [r10]
	uxth	r2, r4
	movs	r3, #6
	mla	r3, r3, r2, r1
	strh	r0, [r3, #4]	@ movhi
	.loc 2 2139 0
	ldr	r3, .L947+44
	ldrh	r3, [r3]
	cmp	r3, r7
	beq	.L941
	.loc 2 2140 0 discriminator 1
	ldr	r3, .L947+48
	.loc 2 2139 0 discriminator 1
	ldrh	r3, [r3]
	cmp	r3, r7
	beq	.L941
	.loc 2 2141 0
	ldr	r3, .L947+52
	.loc 2 2140 0
	ldrh	r3, [r3]
	cmp	r3, r7
	beq	.L941
	.loc 2 2143 0
	ldr	r3, .L947+56
	ldr	r3, [r3]
	ldrh	r3, [r3, r2, lsl #1]
	cbnz	r3, .L942
	.loc 2 2144 0
	add	r8, r8, #1
.LVL1066:
	.loc 2 2145 0
	mov	r0, r7
.LVL1067:
	.loc 2 2144 0
	uxth	r8, r8
.LVL1068:
	.loc 2 2145 0
	bl	INSERT_FREE_LIST
.LVL1069:
.L941:
	adds	r4, r4, #1
.LVL1070:
	b	.L937
.LVL1071:
.L946:
	mov	r0, r5
	b	.L940
.LVL1072:
.L942:
	.loc 2 2147 0
	adds	r6, r6, #1
.LVL1073:
	.loc 2 2148 0
	mov	r0, r7
.LVL1074:
	.loc 2 2147 0
	uxth	r6, r6
.LVL1075:
	.loc 2 2148 0
	bl	INSERT_DATA_LIST
.LVL1076:
	b	.L941
.L943:
	.loc 2 2152 0
	ldr	r2, [sp, #4]
	.loc 2 2153 0
	strh	r8, [fp]	@ movhi
	.loc 2 2152 0
	strh	r6, [r2]	@ movhi
	.loc 2 2154 0
	add	r6, r6, r8
.LVL1077:
	cmp	r6, r3
	ble	.L945
	.loc 2 2154 0 is_stmt 0 discriminator 1
	movw	r2, #2154
	ldr	r1, .L947+60
	ldr	r0, .L947+64
	bl	printf
.LVL1078:
.L945:
	.loc 2 2156 0 is_stmt 1
	movs	r0, #0
	add	sp, sp, #16
	.cfi_def_cfa_offset 32
	@ sp needed
	pop	{r4, r5, r6, r7, r8, r10, fp, pc}
.LVL1079:
.L948:
	.align	2
.L947:
	.word	.LANCHOR6
	.word	.LANCHOR40
	.word	.LANCHOR47
	.word	.LANCHOR45
	.word	.LANCHOR41
	.word	.LANCHOR44
	.word	.LANCHOR48
	.word	.LANCHOR5
	.word	.LANCHOR3
	.word	.LANCHOR19
	.word	.LANCHOR13
	.word	.LANCHOR51
	.word	.LANCHOR52
	.word	.LANCHOR53
	.word	.LANCHOR42
	.word	.LANCHOR154
	.word	.LC1
	.cfi_endproc
.LFE288:
	.size	SupperBlkListInit, .-SupperBlkListInit
	.section	.text.ftl_check_vpc,"ax",%progbits
	.align	1
	.global	ftl_check_vpc
	.syntax unified
	.thumb
	.thumb_func
	.fpu softvfp
	.type	ftl_check_vpc, %function
ftl_check_vpc:
.LFB293:
	.loc 2 2273 0
	.cfi_startproc
	@ args = 0, pretend = 0, frame = 8
	@ frame_needed = 0, uses_anonymous_args = 0
.LVL1080:
	push	{r0, r1, r4, r5, r6, r7, r8, r10, fp, lr}
	.cfi_def_cfa_offset 40
	.cfi_offset 4, -32
	.cfi_offset 5, -28
	.cfi_offset 6, -24
	.cfi_offset 7, -20
	.cfi_offset 8, -16
	.cfi_offset 10, -12
	.cfi_offset 11, -8
	.cfi_offset 14, -4
	.loc 2 2282 0
	movs	r4, #0
	ldr	r6, .L973
	.loc 2 2288 0
	ldr	r5, .L973+4
	.loc 2 2279 0
	ldr	r1, .L973+8
	ldr	r0, .L973+12
	bl	printf
.LVL1081:
	.loc 2 2281 0
	mov	r2, #8192
	movs	r1, #0
	ldr	r0, .L973+4
	bl	ftl_memset
.LVL1082:
.L950:
	.loc 2 2282 0 discriminator 1
	ldr	r3, [r6]
	cmp	r4, r3
	bcc	.L952
	.loc 2 2293 0 discriminator 1
	ldr	r10, .L973+48
	movs	r4, #0
.LVL1083:
	.loc 2 2295 0 discriminator 1
	ldr	r7, .L973+16
	mov	r6, r4
.LVL1084:
.L953:
	.loc 2 2293 0 discriminator 1
	ldrh	r2, [r10]
	uxth	r3, r4
	cmp	r2, r3
	bhi	.L955
	.loc 2 2305 0
	ldr	r3, .L973+20
	ldr	r4, [r3]
.LVL1085:
	cbz	r4, .L956
.LBB275:
	.loc 2 2307 0
	ldr	r3, .L973+24
	.loc 2 2309 0
	mov	r8, #0
	.loc 2 2308 0
	ldr	r5, .L973+28
	.loc 2 2311 0
	ldr	r10, .L973+16
	.loc 2 2307 0
	ldrh	r7, [r3]
.LVL1086:
	.loc 2 2308 0
	ldr	r3, [r5]
	.loc 2 2313 0
	ldr	fp, .L973+4
	.loc 2 2308 0
	subs	r4, r4, r3
	ldr	r3, .L973+32
	asrs	r4, r4, #1
	muls	r4, r3, r4
	uxth	r4, r4
.LVL1087:
.L957:
	.loc 2 2309 0 discriminator 1
	uxth	r3, r8
	cmp	r7, r3
	bls	.L956
	.loc 2 2311 0
	ldr	r3, [r10]
	ldrh	r2, [r3, r4, lsl #1]
	cbz	r2, .L958
	.loc 2 2314 0
	movs	r6, #1
	.loc 2 2313 0
	ldrh	r3, [fp, r4, lsl #1]
	mov	r1, r4
	ldr	r0, .L973+36
	bl	printf
.LVL1088:
.L958:
	.loc 2 2316 0
	movs	r3, #6
	ldr	r2, [r5]
	muls	r4, r3, r4
.LVL1089:
	movw	r3, #65535
	add	r8, r8, #1
.LVL1090:
	ldrh	r4, [r2, r4]
	cmp	r4, r3
	bne	.L957
.LVL1091:
.L956:
.LBE275:
	.loc 2 2321 0
	cbz	r6, .L949
.LVL1092:
	.loc 2 2321 0 is_stmt 0 discriminator 1
	movw	r2, #2321
	ldr	r1, .L973+8
	ldr	r0, .L973+40
	bl	printf
.LVL1093:
.L949:
	.loc 2 2322 0 is_stmt 1
	add	sp, sp, #8
	.cfi_remember_state
	.cfi_def_cfa_offset 32
	@ sp needed
	pop	{r4, r5, r6, r7, r8, r10, fp, pc}
.LVL1094:
.L952:
	.cfi_restore_state
	.loc 2 2284 0
	movs	r2, #0
	add	r1, sp, #4
	mov	r0, r4
	bl	log2phys
.LVL1095:
	.loc 2 2285 0
	ldr	r0, [sp, #4]
	adds	r3, r0, #1
	beq	.L951
	.loc 2 2287 0
	ubfx	r0, r0, #10, #16
	bl	P2V_block_in_plane
.LVL1096:
	.loc 2 2288 0
	ldrh	r3, [r5, r0, lsl #1]
	adds	r3, r3, #1
	strh	r3, [r5, r0, lsl #1]	@ movhi
.LVL1097:
.L951:
	.loc 2 2282 0 discriminator 2
	adds	r4, r4, #1
.LVL1098:
	b	.L950
.LVL1099:
.L955:
	.loc 2 2295 0
	ldr	r3, [r7]
	uxth	r5, r4
	ldr	r8, .L973+4
	ldrh	r2, [r3, r5, lsl #1]
	ldrh	r3, [r8, r5, lsl #1]
	cmp	r2, r3
	beq	.L954
	.loc 2 2297 0
	mov	r1, r5
	ldr	r0, .L973+44
	bl	printf
.LVL1100:
	.loc 2 2298 0
	ldr	r3, [r7]
	movw	r2, #65535
	ldrh	r3, [r3, r5, lsl #1]
	cmp	r3, r2
	beq	.L954
	.loc 2 2298 0 is_stmt 0 discriminator 1
	ldrh	r2, [r8, r5, lsl #1]
	.loc 2 2300 0 is_stmt 1 discriminator 1
	cmp	r2, r3
	it	hi
	movhi	r6, #1
.LVL1101:
.L954:
	adds	r4, r4, #1
.LVL1102:
	b	.L953
.L974:
	.align	2
.L973:
	.word	.LANCHOR61
	.word	check_vpc_table
	.word	.LANCHOR155
	.word	.LC94
	.word	.LANCHOR42
	.word	.LANCHOR47
	.word	.LANCHOR48
	.word	.LANCHOR40
	.word	-1431655765
	.word	.LC96
	.word	.LC1
	.word	.LC95
	.word	.LANCHOR5
	.cfi_endproc
.LFE293:
	.size	ftl_check_vpc, .-ftl_check_vpc
	.section	.text.FtlGcPageVarInit,"ax",%progbits
	.align	1
	.global	FtlGcPageVarInit
	.syntax unified
	.thumb
	.thumb_func
	.fpu softvfp
	.type	FtlGcPageVarInit, %function
FtlGcPageVarInit:
.LFB312:
	.loc 5 202 0
	.cfi_startproc
	@ args = 0, pretend = 0, frame = 0
	@ frame_needed = 0, uses_anonymous_args = 0
	.loc 5 203 0
	ldr	r2, .L976
	movs	r3, #0
	.loc 5 202 0
	push	{r4, lr}
	.cfi_def_cfa_offset 8
	.cfi_offset 4, -8
	.cfi_offset 14, -4
	.loc 5 205 0
	movs	r1, #255
	ldr	r4, .L976+4
	.loc 5 203 0
	strh	r3, [r2]	@ movhi
	.loc 5 204 0
	ldr	r2, .L976+8
	strh	r3, [r2]	@ movhi
	.loc 5 205 0
	ldrh	r2, [r4]
	ldr	r3, .L976+12
	lsls	r2, r2, #1
	ldr	r0, [r3]
	bl	ftl_memset
.LVL1103:
	.loc 5 206 0
	ldrh	r3, [r4]
	movs	r2, #12
	movs	r1, #255
	muls	r2, r3, r2
	ldr	r3, .L976+16
	ldr	r0, [r3]
	bl	ftl_memset
.LVL1104:
	.loc 5 208 0
	pop	{r4, lr}
	.cfi_restore 14
	.cfi_restore 4
	.cfi_def_cfa_offset 0
	.loc 5 207 0
	b	FtlGcBufInit
.LVL1105:
.L977:
	.align	2
.L976:
	.word	.LANCHOR96
	.word	.LANCHOR21
	.word	.LANCHOR97
	.word	.LANCHOR95
	.word	.LANCHOR98
	.cfi_endproc
.LFE312:
	.size	FtlGcPageVarInit, .-FtlGcPageVarInit
	.section	.text.FtlGcScanTempBlk,"ax",%progbits
	.align	1
	.global	FtlGcScanTempBlk
	.syntax unified
	.thumb
	.thumb_func
	.fpu softvfp
	.type	FtlGcScanTempBlk, %function
FtlGcScanTempBlk:
.LFB313:
	.loc 5 211 0
	.cfi_startproc
	@ args = 0, pretend = 0, frame = 24
	@ frame_needed = 0, uses_anonymous_args = 0
.LVL1106:
	.loc 5 220 0
	ldr	r3, .L1001
	.loc 5 211 0
	push	{r4, r5, r6, r7, r8, r10, fp, lr}
	.cfi_def_cfa_offset 32
	.cfi_offset 4, -32
	.cfi_offset 5, -28
	.cfi_offset 6, -24
	.cfi_offset 7, -20
	.cfi_offset 8, -16
	.cfi_offset 10, -12
	.cfi_offset 11, -8
	.cfi_offset 14, -4
	sub	sp, sp, #24
	.cfi_def_cfa_offset 56
	.loc 5 211 0
	mov	r5, r0
	str	r1, [sp, #8]
	.loc 5 220 0
	ldrh	r4, [r3]
.LVL1107:
	.loc 5 221 0
	movw	r3, #65535
	cmp	r4, r3
	beq	.L995
	.loc 5 223 0
	cbnz	r4, .L979
.L980:
	.loc 5 224 0
	bl	FtlGcPageVarInit
.LVL1108:
	b	.L981
.LVL1109:
.L995:
	.loc 5 222 0
	movs	r4, #0
.LVL1110:
.L979:
	.loc 5 223 0 discriminator 1
	ldr	r3, .L1001+4
	ldr	r2, [sp, #8]
	ldrh	r3, [r3]
	cmp	r3, r2
	beq	.L980
.LVL1111:
.L981:
	.loc 5 222 0
	movs	r7, #0
.LVL1112:
.L989:
	.loc 5 228 0
	ldrh	r2, [r5]
	movw	r3, #65535
	.loc 5 226 0
	movs	r0, #0
	strb	r0, [r5, #8]
.LVL1113:
	.loc 5 228 0
	cmp	r2, r3
	beq	.L982
.L992:
.LVL1114:
	.loc 5 231 0
	ldr	r3, .L1001+8
	movs	r2, #0
	add	ip, r5, #16
	.loc 5 230 0
	mov	r6, r2
	.loc 5 233 0
	movw	lr, #65535
	.loc 5 234 0
	mov	r8, #20
	.loc 5 231 0
	ldrh	fp, [r3]
	.loc 5 234 0
	ldr	r3, .L1001+12
	ldr	r3, [r3]
	str	r3, [sp, #4]
	.loc 5 235 0
	ldr	r3, .L1001+16
	ldr	r3, [r3]
	str	r3, [sp, #12]
	ldr	r3, .L1001+20
	ldrh	r3, [r3]
	str	r3, [sp, #16]
	.loc 5 236 0
	ldr	r3, .L1001+24
	ldr	r3, [r3]
	str	r3, [sp, #20]
	ldr	r3, .L1001+28
	ldrh	r10, [r3]
.LVL1115:
.L983:
	.loc 5 231 0 discriminator 1
	uxth	r3, r2
	cmp	fp, r3
	bhi	.L985
	.loc 5 241 0
	mov	r8, #0
	.loc 5 242 0
	mov	fp, #20
	.loc 5 240 0
	movs	r2, #0
.LVL1116:
	mov	r1, r6
	ldr	r0, [sp, #4]
	bl	FlashReadPages
.LVL1117:
.L986:
	.loc 5 241 0 discriminator 1
	uxth	r3, r8
	cmp	r6, r3
	bhi	.L990
	.loc 5 268 0
	ldr	r3, [sp, #8]
	.loc 5 266 0
	adds	r7, r7, #1
.LVL1118:
	.loc 5 264 0
	adds	r4, r4, #1
.LVL1119:
	ldr	r2, .L1001+4
	uxth	r4, r4
.LVL1120:
	.loc 5 268 0
	cmp	r3, r7
	bls	.L991
.L993:
	.loc 5 274 0
	ldrh	r3, [r2]
	cmp	r3, r4
	bhi	.L992
	.loc 5 265 0
	movs	r0, #0
	b	.L982
.LVL1121:
.L985:
	.loc 5 232 0
	ldrh	r3, [ip], #2
.LVL1122:
	.loc 5 233 0
	cmp	r3, lr
	beq	.L984
	.loc 5 234 0
	ldr	r1, [sp, #4]
	orr	r3, r4, r3, lsl #10
.LVL1123:
	.loc 5 235 0
	ldr	r0, [sp, #12]
	.loc 5 234 0
	mla	r1, r8, r6, r1
	str	r3, [r1, #4]
	.loc 5 235 0
	ldr	r3, [sp, #16]
	muls	r3, r6, r3
	bic	r3, r3, #3
	add	r3, r3, r0
	.loc 5 236 0
	ldr	r0, [sp, #20]
	.loc 5 235 0
	str	r3, [r1, #8]
	.loc 5 236 0
	mul	r3, r10, r6
	.loc 5 237 0
	adds	r6, r6, #1
.LVL1124:
	uxth	r6, r6
.LVL1125:
	.loc 5 236 0
	bic	r3, r3, #3
	add	r3, r3, r0
	str	r3, [r1, #12]
.L984:
.LVL1126:
	adds	r2, r2, #1
.LVL1127:
	b	.L983
.LVL1128:
.L990:
	.loc 5 242 0
	ldr	r3, .L1001+12
	mul	r10, fp, r8
	ldr	r2, [r3]
	add	r3, r2, r10
	str	r2, [sp, #16]
	ldr	r1, [r3, #4]
	str	r3, [sp, #12]
.LVL1129:
	.loc 5 243 0
	ubfx	r0, r1, #10, #16
	str	r1, [sp, #4]
	bl	P2V_plane
.LVL1130:
	.loc 5 245 0
	ldr	r2, [sp, #16]
	ldr	r2, [r2, r10]
	cbnz	r2, .L987
	.loc 5 247 0
	ldr	r3, [sp, #12]
	.loc 5 248 0
	movw	r2, #65535
	add	r8, r8, #1
.LVL1131:
	ldr	r1, [sp, #4]
	.loc 5 247 0
	ldr	r3, [r3, #12]
.LVL1132:
	.loc 5 248 0
	ldrh	ip, [r3]
	cmp	ip, r2
	bne	.L988
	.loc 5 249 0
	ldr	r3, .L1001+32
.LVL1133:
	movs	r2, #1
	str	r2, [r3]
.LVL1134:
.L982:
	.loc 5 281 0
	ldr	r3, .L1001
	movw	r2, #65535
	.loc 5 283 0
	strb	r0, [r5, #6]
	.loc 5 284 0
	mov	r1, r4
	.loc 5 282 0
	strh	r4, [r5, #2]	@ movhi
	.loc 5 281 0
	strh	r2, [r3]	@ movhi
	.loc 5 284 0
	mov	r2, r0
	mov	r0, r5
.LVL1135:
	bl	ftl_sb_update_avl_pages
.LVL1136:
	.loc 5 285 0
	b	.L994
.LVL1137:
.L988:
	.loc 5 252 0
	ldr	r2, [r3, #8]
	ldr	r0, [r3, #12]
.LVL1138:
	bl	FtlGcUpdatePage
.LVL1139:
	b	.L986
.LVL1140:
.L987:
	.loc 5 256 0
	ldr	r3, .L1001+36
	movs	r4, #0
.LVL1141:
	ldrh	r2, [r5]
	ldr	r3, [r3]
	strh	r4, [r3, r2, lsl #1]	@ movhi
	.loc 5 257 0
	ldrh	r0, [r5]
.LVL1142:
	bl	INSERT_FREE_LIST
.LVL1143:
	.loc 5 258 0
	movw	r3, #65535
	strh	r3, [r5]	@ movhi
.LVL1144:
	.loc 5 260 0
	bl	FtlGcPageVarInit
.LVL1145:
	.loc 5 261 0
	b	.L989
.LVL1146:
.L991:
	.loc 5 268 0 discriminator 1
	ldr	r1, .L1001
	movw	r0, #65535
	ldrh	r3, [r1]
	cmp	r3, r0
	beq	.L993
	.loc 5 269 0
	add	r3, r3, r7
	strh	r3, [r1]	@ movhi
	.loc 5 270 0
	ldrh	r3, [r2]
	cmp	r3, r4
	bls	.L993
.LVL1147:
.L994:
	.loc 5 286 0
	mov	r0, #-1
	add	sp, sp, #24
	.cfi_def_cfa_offset 32
	@ sp needed
	pop	{r4, r5, r6, r7, r8, r10, fp, pc}
.LVL1148:
.L1002:
	.align	2
.L1001:
	.word	.LANCHOR156
	.word	.LANCHOR19
	.word	.LANCHOR3
	.word	.LANCHOR120
	.word	.LANCHOR91
	.word	.LANCHOR23
	.word	.LANCHOR92
	.word	.LANCHOR24
	.word	.LANCHOR152
	.word	.LANCHOR42
	.cfi_endproc
.LFE313:
	.size	FtlGcScanTempBlk, .-FtlGcScanTempBlk
	.section	.text.FlashTestBlk,"ax",%progbits
	.align	1
	.global	FlashTestBlk
	.syntax unified
	.thumb
	.thumb_func
	.fpu softvfp
	.type	FlashTestBlk, %function
FlashTestBlk:
.LFB347:
	.loc 1 197 0
	.cfi_startproc
	@ args = 0, pretend = 0, frame = 88
	@ frame_needed = 0, uses_anonymous_args = 0
.LVL1149:
	.loc 1 202 0
	cmp	r0, #11
	.loc 1 197 0
	push	{r4, r5, lr}
	.cfi_def_cfa_offset 12
	.cfi_offset 4, -12
	.cfi_offset 5, -8
	.cfi_offset 14, -4
	mov	r4, r0
	sub	sp, sp, #92
	.cfi_def_cfa_offset 104
	.loc 1 202 0
	bls	.L1005
.LVL1150:
.LBB278:
.LBB279:
	.loc 1 206 0
	ldr	r5, .L1006
	.loc 1 207 0
	add	r0, sp, #24
.LVL1151:
	.loc 1 208 0
	movs	r2, #32
	movs	r1, #165
	.loc 1 207 0
	str	r0, [sp, #16]
	.loc 1 210 0
	lsls	r4, r4, #10
.LVL1152:
	.loc 1 206 0
	str	r5, [sp, #12]
	.loc 1 208 0
	bl	ftl_memset
.LVL1153:
	.loc 1 209 0
	movs	r2, #8
	movs	r1, #90
	mov	r0, r5
	bl	ftl_memset
.LVL1154:
	.loc 1 211 0
	movs	r2, #1
	add	r0, sp, #4
	mov	r1, r2
	.loc 1 210 0
	str	r4, [sp, #8]
	.loc 1 211 0
	bl	FlashEraseBlocks
.LVL1155:
	.loc 1 212 0
	movs	r3, #1
	add	r0, sp, #4
	mov	r2, r3
	mov	r1, r3
	bl	FlashProgPages
.LVL1156:
	.loc 1 213 0
	ldr	r4, [sp, #4]
	.loc 1 219 0
	movs	r2, #1
	movs	r1, #0
	add	r0, sp, #4
	.loc 1 213 0
	adds	r4, r4, #0
	it	ne
	movne	r4, #1
	negs	r4, r4
.LDL1:
.LVL1157:
	.loc 1 219 0
	bl	FlashEraseBlocks
.LVL1158:
.L1003:
.LBE279:
.LBE278:
	.loc 1 221 0
	mov	r0, r4
	add	sp, sp, #92
	.cfi_remember_state
	.cfi_def_cfa_offset 12
	@ sp needed
	pop	{r4, r5, pc}
.LVL1159:
.L1005:
	.cfi_restore_state
	.loc 1 203 0
	movs	r4, #0
	b	.L1003
.L1007:
	.align	2
.L1006:
	.word	ftl_temp_buf
	.cfi_endproc
.LFE347:
	.size	FlashTestBlk, .-FlashTestBlk
	.section	.text.FlashGetBadBlockList,"ax",%progbits
	.align	1
	.global	FlashGetBadBlockList
	.syntax unified
	.thumb
	.thumb_func
	.fpu softvfp
	.type	FlashGetBadBlockList, %function
FlashGetBadBlockList:
.LFB348:
	.loc 1 224 0
	.cfi_startproc
	@ args = 0, pretend = 0, frame = 0
	@ frame_needed = 0, uses_anonymous_args = 0
.LVL1160:
	push	{r3, r4, r5, lr}
	.cfi_def_cfa_offset 16
	.cfi_offset 3, -16
	.cfi_offset 4, -12
	.cfi_offset 5, -8
	.cfi_offset 14, -4
	.loc 1 227 0
	mov	r2, #256
	.loc 1 224 0
	mov	r5, r1
	.loc 1 227 0
	movs	r1, #255
.LVL1161:
	.loc 1 224 0
	mov	r4, r0
	.loc 1 227 0
	bl	ftl_memset
.LVL1162:
	.loc 1 228 0
	ldr	r3, .L1015
	mov	r1, r5
	mov	r0, r4
	ldr	r3, [r3]
	blx	r3
.LVL1163:
	uxth	r0, r0
.LVL1164:
	.loc 1 229 0
	cmp	r0, #50
	bls	.L1009
	.loc 1 230 0
	mov	r2, #256
	movs	r1, #255
	mov	r0, r4
.LVL1165:
	bl	ftl_memset
.LVL1166:
	.loc 1 231 0
	movs	r0, #0
.LVL1167:
.L1009:
	.loc 1 233 0
	ldr	r3, .L1015+4
	ldrh	r3, [r3, #14]
	cmp	r3, #4
	bne	.L1014
	add	r1, r4, r0, lsl #1
	mov	r3, r4
.L1011:
	.loc 1 234 0 discriminator 1
	cmp	r3, r1
	bne	.L1012
.L1014:
	.loc 1 239 0
	pop	{r3, r4, r5, pc}
.LVL1168:
.L1012:
	.loc 1 235 0 discriminator 3
	ldrh	r2, [r3]
	lsrs	r2, r2, #1
	strh	r2, [r3], #2	@ movhi
	b	.L1011
.L1016:
	.align	2
.L1015:
	.word	.LANCHOR105
	.word	.LANCHOR0
	.cfi_endproc
.LFE348:
	.size	FlashGetBadBlockList, .-FlashGetBadBlockList
	.section	.text.ftl_memcpy,"ax",%progbits
	.align	1
	.global	ftl_memcpy
	.syntax unified
	.thumb
	.thumb_func
	.fpu softvfp
	.type	ftl_memcpy, %function
ftl_memcpy:
.LFB350:
	.loc 1 247 0
	.cfi_startproc
	@ args = 0, pretend = 0, frame = 0
	@ frame_needed = 0, uses_anonymous_args = 0
	@ link register save eliminated.
.LVL1169:
	.loc 1 248 0
	b	memcpy
.LVL1170:
	.cfi_endproc
.LFE350:
	.size	ftl_memcpy, .-ftl_memcpy
	.section	.text.FtlBbmTblFlush,"ax",%progbits
	.align	1
	.global	FtlBbmTblFlush
	.syntax unified
	.thumb
	.thumb_func
	.fpu softvfp
	.type	FtlBbmTblFlush, %function
FtlBbmTblFlush:
.LFB229:
	.loc 4 80 0
	.cfi_startproc
	@ args = 0, pretend = 0, frame = 8
	@ frame_needed = 0, uses_anonymous_args = 0
.LVL1171:
	push	{r0, r1, r2, r3, r4, r5, r6, r7, r8, r10, fp, lr}
	.cfi_def_cfa_offset 48
	.cfi_offset 4, -32
	.cfi_offset 5, -28
	.cfi_offset 6, -24
	.cfi_offset 7, -20
	.cfi_offset 8, -16
	.cfi_offset 10, -12
	.cfi_offset 11, -8
	.cfi_offset 14, -4
	.loc 4 91 0
	movs	r4, #0
	.loc 4 88 0
	ldr	r7, .L1027
	.loc 4 89 0
	movs	r1, #0
	.loc 4 87 0
	ldr	r5, .L1027+4
	.loc 4 88 0
	ldr	r3, [r7]
	mov	fp, r7
	.loc 4 87 0
	ldr	r8, .L1027+48
	ldr	r6, .L1027+8
	.loc 4 88 0
	str	r3, [r5, #12]
	.loc 4 91 0
	ldr	r7, .L1027+12
	.loc 4 89 0
	ldr	r3, .L1027+16
	.loc 4 92 0
	ldr	r10, .L1027+52
	.loc 4 87 0
	ldr	r0, [r8]
	.loc 4 89 0
	ldrh	r2, [r3]
	.loc 4 87 0
	str	r0, [r5, #8]
	.loc 4 89 0
	bl	ftl_memset
.LVL1172:
.L1019:
	.loc 4 91 0 discriminator 1
	ldrh	r3, [r7]
	cmp	r4, r3
	blt	.L1020
	.loc 4 94 0
	ldr	r6, [r5, #12]
.LVL1173:
	.loc 4 95 0
	movs	r2, #16
	.loc 4 98 0
	ldr	r4, .L1027+20
.LVL1174:
	.loc 4 95 0
	movs	r1, #255
	.loc 4 84 0
	movs	r7, #0
	.loc 4 95 0
	mov	r0, r6
	bl	ftl_memset
.LVL1175:
	.loc 4 97 0
	movw	r3, #61649
	mov	r10, r4
	strh	r3, [r6]	@ movhi
	.loc 4 98 0
	ldr	r3, [r4, #8]
	.loc 4 82 0
	str	r7, [sp, #12]
	.loc 4 98 0
	str	r3, [r6, #4]
	.loc 4 99 0
	ldrh	r3, [r4]
	strh	r3, [r6, #2]	@ movhi
	.loc 4 100 0
	ldrh	r3, [r4, #4]
	strh	r3, [r6, #8]	@ movhi
	.loc 4 101 0
	ldrh	r3, [r4, #6]
	strh	r3, [r6, #10]	@ movhi
	.loc 4 102 0
	ldr	r3, .L1027+24
	ldr	r3, [r3]
	strh	r3, [r6, #12]	@ movhi
.LVL1176:
.L1021:
	.loc 4 104 0
	ldr	r3, [r8]
	.loc 4 107 0
	ldrh	r1, [r4]
	ldrh	r2, [r4, #2]
	.loc 4 104 0
	str	r3, [r5, #8]
	.loc 4 105 0
	ldr	r3, [fp]
	.loc 4 108 0
	ldrh	r0, [r6, #10]
	.loc 4 105 0
	str	r3, [r5, #12]
	.loc 4 106 0
	movs	r3, #0
	str	r3, [r5]
	.loc 4 107 0
	orr	r3, r2, r1, lsl #10
	str	r3, [r5, #4]
	.loc 4 108 0
	ldrh	r3, [r4, #4]
	str	r0, [sp]
	ldr	r0, .L1027+28
	bl	printf
.LVL1177:
	.loc 4 109 0
	movs	r3, #1
	ldr	r0, .L1027+4
	mov	r2, r3
	mov	r1, r3
	bl	FlashProgPages
.LVL1178:
	.loc 4 110 0
	ldr	r3, .L1027+32
	ldrh	r2, [r4, #2]
	ldrh	r3, [r3]
	subs	r3, r3, #1
	cmp	r2, r3
	blt	.L1022
	.loc 4 113 0
	ldr	r3, [r4, #8]
	.loc 4 117 0
	mov	r1, #0	@ movhi
	.loc 4 115 0
	ldrh	r2, [r4]
	.loc 4 117 0
	strh	r1, [r4, #2]	@ movhi
	.loc 4 113 0
	adds	r3, r3, #1
	str	r3, [r4, #8]
	.loc 4 114 0
	str	r3, [r6, #4]
	.loc 4 115 0
	strh	r2, [r6, #8]	@ movhi
	.loc 4 116 0
	ldrh	r3, [r4, #4]
	.loc 4 118 0
	strh	r2, [r4, #4]	@ movhi
	.loc 4 121 0
	ldr	r2, .L1027+36
	.loc 4 116 0
	strh	r3, [r4]	@ movhi
	.loc 4 119 0
	lsls	r3, r3, #10
	.loc 4 121 0
	ldr	r0, [r2]
	.loc 4 122 0
	movs	r2, #1
	.loc 4 119 0
	str	r3, [r5, #4]
	.loc 4 122 0
	mov	r1, r2
	.loc 4 121 0
	str	r3, [r0, #4]
	.loc 4 122 0
	bl	FlashEraseBlocks
.LVL1179:
	.loc 4 123 0
	movs	r3, #1
	ldr	r0, .L1027+4
	mov	r2, r3
	mov	r1, r3
	bl	FlashProgPages
.LVL1180:
.L1022:
	.loc 4 126 0
	ldrh	r3, [r10, #2]
	adds	r3, r3, #1
	strh	r3, [r10, #2]	@ movhi
	.loc 4 127 0
	ldr	r3, [r5]
	adds	r3, r3, #1
	bne	.L1023
	.loc 4 130 0
	adds	r7, r7, #1
.LVL1181:
	.loc 4 129 0
	ldr	r1, [r5, #4]
	.loc 4 130 0
	uxth	r7, r7
	.loc 4 129 0
	ldr	r0, .L1027+40
	bl	printf
.LVL1182:
	.loc 4 131 0
	cmp	r7, #3
	bls	.L1021
	.loc 4 132 0
	mov	r2, r7
	ldr	r1, [r5, #4]
	ldr	r0, .L1027+44
	bl	printf
.LVL1183:
.L1025:
	b	.L1025
.LVL1184:
.L1020:
	.loc 4 92 0 discriminator 3
	ldrh	r2, [r10]
	ldr	r3, [r5, #8]
	ldr	r1, [r6, #4]!
	mul	r0, r2, r4
	lsls	r2, r2, #2
	.loc 4 91 0 discriminator 3
	adds	r4, r4, #1
.LVL1185:
	.loc 4 92 0 discriminator 3
	add	r0, r3, r0, lsl #2
	bl	ftl_memcpy
.LVL1186:
	b	.L1019
.LVL1187:
.L1026:
	movs	r3, #1
.LVL1188:
	str	r3, [sp, #12]
.LVL1189:
	b	.L1021
.LVL1190:
.L1023:
	.loc 4 139 0
	ldr	r3, [sp, #12]
	cmp	r3, #0
	beq	.L1026
	.loc 4 146 0
	movs	r0, #0
	add	sp, sp, #16
	.cfi_def_cfa_offset 32
	@ sp needed
	pop	{r4, r5, r6, r7, r8, r10, fp, pc}
.LVL1191:
.L1028:
	.align	2
.L1027:
	.word	.LANCHOR108
	.word	.LANCHOR106
	.word	.LANCHOR37+24
	.word	.LANCHOR10
	.word	.LANCHOR23
	.word	.LANCHOR37
	.word	.LANCHOR2
	.word	.LC97
	.word	.LANCHOR20
	.word	.LANCHOR111
	.word	.LC98
	.word	.LC99
	.word	.LANCHOR107
	.word	.LANCHOR137
	.cfi_endproc
.LFE229:
	.size	FtlBbmTblFlush, .-FtlBbmTblFlush
	.section	.text.allocate_data_superblock,"ax",%progbits
	.align	1
	.global	allocate_data_superblock
	.syntax unified
	.thumb
	.thumb_func
	.fpu softvfp
	.type	allocate_data_superblock, %function
allocate_data_superblock:
.LFB301:
	.loc 2 2582 0
	.cfi_startproc
	@ args = 0, pretend = 0, frame = 16
	@ frame_needed = 0, uses_anonymous_args = 0
.LVL1192:
	push	{r0, r1, r2, r3, r4, r5, r6, r7, r8, r10, fp, lr}
	.cfi_def_cfa_offset 48
	.cfi_offset 4, -32
	.cfi_offset 5, -28
	.cfi_offset 6, -24
	.cfi_offset 7, -20
	.cfi_offset 8, -16
	.cfi_offset 10, -12
	.cfi_offset 11, -8
	.cfi_offset 14, -4
	.loc 2 2582 0
	mov	r4, r0
	ldr	r8, .L1067
.LVL1193:
.L1030:
	.loc 2 2588 0
	ldr	r3, .L1067
	ldr	r6, .L1067+4
	ldr	fp, .L1067+76
	ldrh	r3, [r3]
	ldrh	r2, [r6]
	add	r3, r3, r2
	ldrh	r2, [fp]
	cmp	r3, r2
	ble	.L1031
	.loc 2 2588 0 is_stmt 0 discriminator 1
	movw	r2, #2588
	ldr	r1, .L1067+8
	ldr	r0, .L1067+12
	bl	printf
.LVL1194:
.L1031:
	.loc 2 2590 0 is_stmt 1
	ldr	r3, .L1067+16
	cmp	r4, r3
	bne	.L1056
	.loc 2 2591 0
	ldr	r2, .L1067+20
	ldrh	r3, [r8]
	ldr	r2, [r2]
	lsrs	r1, r3, #1
	muls	r2, r3, r2
	adds	r1, r1, #1
	add	r1, r1, r2, lsr #2
	uxth	r1, r1
.LVL1195:
	.loc 2 2595 0
	cbz	r1, .L1032
	.loc 2 2596 0
	subs	r1, r1, #1
.LVL1196:
	uxth	r1, r1
.LVL1197:
.L1032:
	.loc 2 2597 0
	ldr	r0, .L1067+24
	bl	List_pop_index_node
.LVL1198:
	ldrh	r3, [r8]
	mov	r5, r0
	uxth	r7, r0
.LVL1199:
	cbnz	r3, .L1033
	.loc 2 2597 0 is_stmt 0 discriminator 1
	movw	r2, #2597
	ldr	r1, .L1067+8
	ldr	r0, .L1067+12
	bl	printf
.LVL1200:
.L1033:
	.loc 2 2597 0 discriminator 3
	ldrh	r3, [r8]
	.loc 2 2601 0 is_stmt 1 discriminator 3
	mov	r0, r4
	.loc 2 2597 0 discriminator 3
	subs	r3, r3, #1
	strh	r3, [r8]	@ movhi
	.loc 2 2600 0 discriminator 3
	strh	r7, [r4]	@ movhi
	.loc 2 2601 0 discriminator 3
	bl	make_superblock
.LVL1201:
	.loc 2 2602 0 discriminator 3
	ldrb	r3, [r4, #7]	@ zero_extendqisi2
	cbnz	r3, .L1034
	.loc 2 2606 0
	ldr	r3, .L1067+28
	uxth	r5, r5
	movw	r2, #65535
	.loc 2 2607 0
	mov	r0, r7
	.loc 2 2606 0
	ldr	r3, [r3]
	strh	r2, [r3, r5, lsl #1]	@ movhi
	.loc 2 2607 0
	bl	INSERT_DATA_LIST
.LVL1202:
	.loc 2 2608 0
	ldrh	r2, [r6]
	ldrh	r3, [r8]
	add	r3, r3, r2
	ldrh	r2, [fp]
	cmp	r3, r2
	ble	.L1030
	.loc 2 2608 0 is_stmt 0 discriminator 1
	mov	r2, #2608
	ldr	r1, .L1067+8
	ldr	r0, .L1067+12
	bl	printf
.LVL1203:
	b	.L1030
.LVL1204:
.L1056:
	movs	r1, #0
	b	.L1032
.LVL1205:
.L1034:
	.loc 2 2611 0 is_stmt 1
	ldrh	r2, [r6]
	ldrh	r3, [r8]
	add	r3, r3, r2
	ldrh	r2, [fp]
	cmp	r3, r2
	ble	.L1036
	.loc 2 2611 0 is_stmt 0 discriminator 1
	movw	r2, #2611
	ldr	r1, .L1067+8
	ldr	r0, .L1067+12
	bl	printf
.LVL1206:
.L1036:
	.loc 2 2615 0 is_stmt 1 discriminator 1
	ldr	r3, .L1067+32
	movs	r6, #0
	.loc 2 2614 0 discriminator 1
	ldr	r2, .L1067+36
	add	ip, r4, #16
	.loc 2 2615 0 discriminator 1
	mov	lr, r6
	.loc 2 2617 0 discriminator 1
	movw	r10, #65535
	.loc 2 2615 0 discriminator 1
	ldr	r0, [r3]
	ldrh	r1, [r2]
	movs	r2, #20
	.loc 2 2618 0 discriminator 1
	str	r2, [sp, #4]
	mov	r3, r0
	mla	r1, r2, r1, r0
	str	r1, [sp]
.L1037:
.LVL1207:
	.loc 2 2614 0 discriminator 1
	ldr	r2, [sp]
	cmp	r2, r3
	bne	.L1039
	.loc 2 2622 0
	cbnz	r6, .L1040
	.loc 2 2622 0 is_stmt 0 discriminator 1
	movw	r2, #2622
	ldr	r1, .L1067+8
	ldr	r0, .L1067+12
	bl	printf
.LVL1208:
.L1040:
	.loc 2 2624 0 is_stmt 1
	ldr	r3, .L1067+40
	ldrh	r3, [r3]
	cmp	r3, r7
	bne	.L1041
	.loc 2 2624 0 is_stmt 0 discriminator 1
	mov	r2, #2624
	ldr	r1, .L1067+8
	ldr	r0, .L1067+12
	bl	printf
.LVL1209:
.L1041:
	.loc 2 2625 0 is_stmt 1
	ldrb	r1, [r4, #8]	@ zero_extendqisi2
	uxth	r5, r5
	ldr	r2, .L1067+44
	ldr	r3, .L1067+48
	ldr	r10, .L1067+80
	cmp	r1, #0
	bne	.L1042
	.loc 2 2626 0
	ldr	r0, [r2]
	ldrh	lr, [r0, r5, lsl #1]
	cmp	lr, #0
	beq	.L1043
	.loc 2 2627 0
	ldr	r1, .L1067+52
	ldrh	ip, [r1]
	add	r1, lr, ip
.L1066:
	.loc 2 2629 0
	strh	r1, [r0, r5, lsl #1]	@ movhi
	.loc 2 2631 0
	mov	r0, r7
	.loc 2 2630 0
	ldr	r1, [r3]
	str	r2, [sp, #4]
	str	r3, [sp]
	adds	r1, r1, #1
	str	r1, [r3]
	.loc 2 2631 0
	movs	r1, #0
	bl	ftl_set_blk_mode
.LVL1210:
	ldr	r3, [sp]
	ldr	r2, [sp, #4]
.L1045:
	.loc 2 2638 0
	ldr	r2, [r2]
	lsls	r1, r5, #1
	str	r1, [sp]
	ldrh	r0, [r2, r5, lsl #1]
	ldr	r2, .L1067+56
	ldr	r1, [r2]
	cmp	r0, r1
	.loc 2 2641 0
	ldrh	r1, [fp]
	.loc 2 2639 0
	it	hi
	strhi	r0, [r2]
	.loc 2 2641 0
	ldr	r2, .L1067+52
	ldr	r0, [r3]
	ldr	r3, [r10]
	ldrh	r2, [r2]
	mla	r0, r0, r2, r3
	bl	__aeabi_uidiv
.LVL1211:
	ldr	r3, .L1067+60
	.loc 2 2645 0
	ldr	ip, .L1067+84
	.loc 2 2641 0
	str	r0, [r3]
	.loc 2 2642 0
	ldr	r3, .L1067+64
	ldr	r2, [r3]
	ldr	r3, [r2, #16]
	adds	r3, r3, #1
	str	r3, [r2, #16]
.LVL1212:
	movs	r2, #20
	.loc 2 2645 0
	ldr	r3, .L1067+32
	ldr	r0, [r3]
	adds	r3, r0, #4
	mla	r2, r2, r6, r0
	adds	r2, r2, #24
.LVL1213:
.L1047:
	adds	r3, r3, #20
	.loc 2 2644 0 discriminator 1
	cmp	r2, r3
	bne	.L1048
	.loc 2 2646 0
	ldrb	r1, [r4, #8]	@ zero_extendqisi2
	mov	r2, r6
	.loc 2 2648 0
	mov	r10, #0
	.loc 2 2646 0
	bl	FlashEraseBlocks
.LVL1214:
	.loc 2 2647 0
	mov	r3, r10
	.loc 2 2649 0
	movs	r1, #20
.LVL1215:
.L1049:
	.loc 2 2648 0 discriminator 1
	uxth	r2, r10
	cmp	r6, r2
	bhi	.L1051
	.loc 2 2659 0
	cbz	r3, .L1052
	.loc 2 2660 0
	mov	r0, r7
	bl	update_multiplier_value
.LVL1216:
	.loc 2 2661 0
	bl	FtlBbmTblFlush
.LVL1217:
.L1052:
	.loc 2 2664 0
	ldrb	r2, [r4, #7]	@ zero_extendqisi2
	ldr	r1, .L1067+28
	cmp	r2, #0
	bne	.L1053
	.loc 2 2666 0
	ldr	r3, [r1]
	movw	r2, #65535
	.loc 2 2667 0
	mov	r0, r7
	.loc 2 2666 0
	strh	r2, [r3, r5, lsl #1]	@ movhi
	.loc 2 2667 0
	bl	INSERT_DATA_LIST
.LVL1218:
	.loc 2 2668 0
	b	.L1030
.LVL1219:
.L1039:
	.loc 2 2617 0
	ldrh	r1, [ip], #2
	.loc 2 2615 0
	str	lr, [r3, #8]
	.loc 2 2616 0
	str	lr, [r3, #12]
	.loc 2 2617 0
	cmp	r1, r10
	beq	.L1038
	.loc 2 2618 0
	ldr	r2, [sp, #4]
	lsls	r1, r1, #10
	mla	r2, r2, r6, r0
	.loc 2 2619 0
	adds	r6, r6, #1
.LVL1220:
	uxth	r6, r6
.LVL1221:
	.loc 2 2618 0
	str	r1, [r2, #4]
.L1038:
	adds	r3, r3, #20
	b	.L1037
.L1043:
	.loc 2 2629 0
	movs	r1, #2
	b	.L1066
.L1042:
	.loc 2 2633 0
	ldr	r0, [r2]
	str	r3, [sp, #4]
	str	r2, [sp]
	ldrh	r1, [r0, r5, lsl #1]
	adds	r1, r1, #1
	strh	r1, [r0, r5, lsl #1]	@ movhi
.LBB280:
.LBB281:
	mov	r0, r7
.LBE281:
.LBE280:
	.loc 2 2634 0
	ldr	r1, [r10]
	adds	r1, r1, #1
	str	r1, [r10]
.LVL1222:
.LBB283:
.LBB282:
	bl	ftl_set_blk_mode.part.6
.LVL1223:
	ldm	sp, {r2, r3}
	b	.L1045
.LVL1224:
.L1048:
.LBE282:
.LBE283:
	.loc 2 2645 0 discriminator 3
	ldr	r1, [r3, #-20]
	and	r1, r1, ip
	str	r1, [r3, #-20]
	b	.L1047
.LVL1225:
.L1051:
	.loc 2 2649 0
	ldr	r0, .L1067+32
	mul	r2, r1, r10
	ldr	r0, [r0]
	add	ip, r0, r2
	ldr	r2, [r0, r2]
	adds	r0, r2, #1
	bne	.L1050
	.loc 2 2651 0
	ldr	r0, [ip, #4]
	.loc 2 2650 0
	adds	r3, r3, #1
.LVL1226:
	str	r1, [sp, #12]
	str	r2, [sp, #8]
	.loc 2 2652 0
	ubfx	r0, r0, #10, #16
	.loc 2 2650 0
	str	r3, [sp, #4]
.LVL1227:
	.loc 2 2652 0
	bl	FtlBbmMapBadBlock
.LVL1228:
	.loc 2 2653 0
	ldr	r2, [sp, #8]
	add	r0, r4, r10, lsl #1
	.loc 2 2654 0
	ldr	r1, [sp, #12]
	ldr	r3, [sp, #4]
	.loc 2 2653 0
	strh	r2, [r0, #16]	@ movhi
	.loc 2 2654 0
	ldrb	r2, [r4, #7]	@ zero_extendqisi2
	subs	r2, r2, #1
	strb	r2, [r4, #7]
.LVL1229:
.L1050:
	add	r10, r10, #1
.LVL1230:
	b	.L1049
.LVL1231:
.L1053:
	.loc 2 2671 0
	ldr	r3, .L1067+68
	.loc 2 2675 0
	ldr	r0, .L1067+72
	.loc 2 2671 0
	ldrh	r3, [r3]
	.loc 2 2672 0
	strh	r7, [r4]	@ movhi
	.loc 2 2671 0
	smulbb	r3, r3, r2
	.loc 2 2673 0
	movs	r2, #0
	strh	r2, [r4, #2]	@ movhi
	.loc 2 2674 0
	strb	r2, [r4, #6]
	.loc 2 2675 0
	ldr	r2, [r0]
	.loc 2 2671 0
	uxth	r3, r3
	strh	r3, [r4, #4]	@ movhi
	.loc 2 2675 0
	str	r2, [r4, #12]
	adds	r2, r2, #1
	str	r2, [r0]
	.loc 2 2676 0
	ldr	r2, [r1]
	ldr	r1, [sp]
	strh	r3, [r2, r1]	@ movhi
	.loc 2 2677 0
	ldrh	r3, [r4, #4]
	cbz	r3, .L1054
	.loc 2 2677 0 is_stmt 0 discriminator 2
	ldrb	r3, [r4, #7]	@ zero_extendqisi2
	cbnz	r3, .L1055
.L1054:
	.loc 2 2677 0 discriminator 3
	movw	r2, #2677
	ldr	r1, .L1067+8
	ldr	r0, .L1067+12
	bl	printf
.LVL1232:
.L1055:
	.loc 2 2679 0 is_stmt 1
	movs	r0, #0
	add	sp, sp, #16
	.cfi_def_cfa_offset 32
	@ sp needed
	pop	{r4, r5, r6, r7, r8, r10, fp, pc}
.LVL1233:
.L1068:
	.align	2
.L1067:
	.word	.LANCHOR48
	.word	.LANCHOR45
	.word	.LANCHOR157
	.word	.LC1
	.word	.LANCHOR53
	.word	.LANCHOR87
	.word	.LANCHOR47
	.word	.LANCHOR42
	.word	.LANCHOR111
	.word	.LANCHOR3
	.word	.LANCHOR80
	.word	.LANCHOR43
	.word	.LANCHOR72
	.word	.LANCHOR14
	.word	.LANCHOR76
	.word	.LANCHOR74
	.word	.LANCHOR127
	.word	.LANCHOR19
	.word	.LANCHOR70
	.word	.LANCHOR5
	.word	.LANCHOR73
	.word	-1024
	.cfi_endproc
.LFE301:
	.size	allocate_data_superblock, .-allocate_data_superblock
	.section	.text.FtlGcFreeBadSuperBlk,"ax",%progbits
	.align	1
	.global	FtlGcFreeBadSuperBlk
	.syntax unified
	.thumb
	.thumb_func
	.fpu softvfp
	.type	FtlGcFreeBadSuperBlk, %function
FtlGcFreeBadSuperBlk:
.LFB320:
	.loc 5 390 0
	.cfi_startproc
	@ args = 0, pretend = 0, frame = 8
	@ frame_needed = 0, uses_anonymous_args = 0
.LVL1234:
	push	{r0, r1, r4, r5, r6, r7, r8, r10, fp, lr}
	.cfi_def_cfa_offset 40
	.cfi_offset 4, -32
	.cfi_offset 5, -28
	.cfi_offset 6, -24
	.cfi_offset 7, -20
	.cfi_offset 8, -16
	.cfi_offset 10, -12
	.cfi_offset 11, -8
	.cfi_offset 14, -4
	.loc 5 390 0
	mov	r10, r0
	.loc 5 395 0
	ldr	r4, .L1081
	ldrh	r3, [r4]
	cbz	r3, .L1070
.LBB286:
.LBB287:
	.loc 5 399 0
	ldr	r8, .L1081+16
.LBE287:
.LBE286:
	movs	r6, #0
.LVL1235:
.L1071:
.LBB290:
.LBB288:
	.loc 5 396 0
	ldr	r3, .L1081+4
	ldrh	r2, [r3]
	uxth	r3, r6
	cmp	r2, r3
	bhi	.L1077
	.loc 5 412 0
	bl	FtlGcReFreshBadBlk
.LVL1236:
.L1070:
.LBE288:
.LBE290:
	.loc 5 415 0
	movs	r0, #0
	add	sp, sp, #8
	.cfi_remember_state
	.cfi_def_cfa_offset 32
	@ sp needed
	pop	{r4, r5, r6, r7, r8, r10, fp, pc}
.LVL1237:
.L1077:
	.cfi_restore_state
.LBB291:
.LBB289:
	.loc 5 397 0
	ldr	r2, .L1081+8
	uxth	r3, r6
	mov	r1, r10
	movs	r7, #0
	ldrb	r0, [r2, r3]	@ zero_extendqisi2
	bl	V2P_block
.LVL1238:
	.loc 5 401 0
	ldr	r2, .L1081+12
	.loc 5 397 0
	mov	fp, r0
.LVL1239:
.L1072:
	.loc 5 398 0
	ldrh	r3, [r4]
	uxth	r5, r7
.LVL1240:
	cmp	r3, r5
	bhi	.L1076
.LVL1241:
	adds	r6, r6, #1
.LVL1242:
	b	.L1071
.LVL1243:
.L1076:
	.loc 5 399 0
	uxth	r3, r7
	ldrh	r1, [r8, r3, lsl #1]
	cmp	r1, fp
	bne	.L1073
	.loc 5 401 0
	mov	r1, fp
	mov	r0, r2
	str	r3, [sp, #4]
	str	r2, [sp]
	bl	printf
.LVL1244:
	.loc 5 403 0
	mov	r0, fp
	bl	FtlBbmMapBadBlock
.LVL1245:
	.loc 5 404 0
	bl	FtlBbmTblFlush
.LVL1246:
	ldr	r3, [sp, #4]
	.loc 5 405 0
	ldrh	r1, [r4]
	ldr	r2, [sp]
	add	r3, r8, r3, lsl #1
.LVL1247:
.L1074:
	cmp	r5, r1
	bcc	.L1075
	.loc 5 407 0
	subs	r1, r1, #1
	strh	r1, [r4]	@ movhi
.LVL1248:
.L1073:
	adds	r7, r7, #1
.LVL1249:
	b	.L1072
.LVL1250:
.L1075:
	.loc 5 406 0
	ldrh	r0, [r3, #2]!
	.loc 5 405 0
	adds	r5, r5, #1
.LVL1251:
	uxth	r5, r5
.LVL1252:
	.loc 5 406 0
	strh	r0, [r3, #-2]	@ movhi
	b	.L1074
.L1082:
	.align	2
.L1081:
	.word	.LANCHOR101
	.word	.LANCHOR3
	.word	.LANCHOR13
	.word	.LC100
	.word	.LANCHOR102
.LBE289:
.LBE291:
	.cfi_endproc
.LFE320:
	.size	FtlGcFreeBadSuperBlk, .-FtlGcFreeBadSuperBlk
	.section	.text.update_vpc_list,"ax",%progbits
	.align	1
	.global	update_vpc_list
	.syntax unified
	.thumb
	.thumb_func
	.fpu softvfp
	.type	update_vpc_list, %function
update_vpc_list:
.LFB304:
	.loc 2 2738 0
	.cfi_startproc
	@ args = 0, pretend = 0, frame = 0
	@ frame_needed = 0, uses_anonymous_args = 0
.LVL1253:
	push	{r3, r4, r5, lr}
	.cfi_def_cfa_offset 16
	.cfi_offset 3, -16
	.cfi_offset 4, -12
	.cfi_offset 5, -8
	.cfi_offset 14, -4
	.loc 2 2738 0
	mov	r4, r0
	.loc 2 2739 0
	ldr	r3, .L1093
	ldr	r3, [r3]
	ldrh	r3, [r3, r0, lsl #1]
	cmp	r3, #0
	bne	.L1084
	.loc 2 2740 0
	ldr	r2, .L1093+4
	ldrh	r1, [r2]
	cmp	r1, r0
	bne	.L1085
	.loc 2 2742 0
	movw	r3, #65535
	strh	r3, [r2]	@ movhi
.L1086:
.LVL1254:
.LBB294:
.LBB295:
	.loc 2 2747 0
	ldr	r5, .L1093+8
	mov	r1, r4
	ldr	r0, .L1093+12
.LVL1255:
	bl	List_remove_node
.LVL1256:
	ldrh	r3, [r5]
	cbnz	r3, .L1088
	movw	r2, #2747
	ldr	r1, .L1093+16
	ldr	r0, .L1093+20
	bl	printf
.LVL1257:
.L1088:
	ldrh	r3, [r5]
	.loc 2 2748 0
	mov	r0, r4
	.loc 2 2747 0
	subs	r3, r3, #1
	strh	r3, [r5]	@ movhi
	.loc 2 2748 0
	bl	free_data_superblock
.LVL1258:
	.loc 2 2749 0
	mov	r0, r4
	bl	FtlGcFreeBadSuperBlk
.LVL1259:
	.loc 2 2750 0
	ldr	r3, .L1093+24
	ldrh	r2, [r5]
	ldrh	r3, [r3]
	add	r3, r3, r2
	ldr	r2, .L1093+28
	ldrh	r2, [r2]
	cmp	r3, r2
	ble	.L1092
	movw	r2, #2750
	ldr	r1, .L1093+16
	ldr	r0, .L1093+20
	bl	printf
.LVL1260:
.L1092:
	movs	r3, #1
	b	.L1083
.LVL1261:
.L1085:
.LBE295:
.LBE294:
	.loc 2 2743 0
	ldr	r2, .L1093+32
	ldrh	r2, [r2]
	cmp	r2, r0
	beq	.L1083
	.loc 2 2743 0 is_stmt 0 discriminator 1
	ldr	r2, .L1093+36
	ldrh	r2, [r2]
	cmp	r2, r0
	beq	.L1083
	.loc 2 2743 0 discriminator 2
	ldr	r2, .L1093+40
	ldrh	r2, [r2]
	cmp	r2, r0
	bne	.L1086
.LVL1262:
.L1083:
	.loc 2 2756 0 is_stmt 1
	mov	r0, r3
	pop	{r3, r4, r5, pc}
.LVL1263:
.L1084:
	.loc 2 2753 0
	bl	List_update_data_list
.LVL1264:
	.loc 2 2755 0
	movs	r3, #0
	b	.L1083
.L1094:
	.align	2
.L1093:
	.word	.LANCHOR42
	.word	.LANCHOR80
	.word	.LANCHOR45
	.word	.LANCHOR41
	.word	.LANCHOR158
	.word	.LC1
	.word	.LANCHOR48
	.word	.LANCHOR5
	.word	.LANCHOR51
	.word	.LANCHOR52
	.word	.LANCHOR53
	.cfi_endproc
.LFE304:
	.size	update_vpc_list, .-update_vpc_list
	.section	.text.decrement_vpc_count,"ax",%progbits
	.align	1
	.global	decrement_vpc_count
	.syntax unified
	.thumb
	.thumb_func
	.fpu softvfp
	.type	decrement_vpc_count, %function
decrement_vpc_count:
.LFB305:
	.loc 2 2759 0
	.cfi_startproc
	@ args = 0, pretend = 0, frame = 0
	@ frame_needed = 0, uses_anonymous_args = 0
.LVL1265:
	.loc 2 2762 0
	movw	r3, #65535
	.loc 2 2759 0
	push	{r4, r5, r6, lr}
	.cfi_def_cfa_offset 16
	.cfi_offset 4, -16
	.cfi_offset 5, -12
	.cfi_offset 6, -8
	.cfi_offset 14, -4
	.loc 2 2762 0
	cmp	r0, r3
	.loc 2 2759 0
	mov	r4, r0
	.loc 2 2762 0
	beq	.L1096
	.loc 2 2763 0
	ldr	r5, .L1104
	ldr	r3, [r5]
	ldrh	r2, [r3, r0, lsl #1]
	cbnz	r2, .L1097
	.loc 2 2764 0
	mov	r1, r0
	ldr	r0, .L1104+4
.LVL1266:
	bl	printf
.LVL1267:
	.loc 2 2765 0
	ldr	r3, [r5]
	ldrh	r5, [r3, r4, lsl #1]
	cbz	r5, .L1098
.L1102:
	.loc 2 2774 0
	movs	r5, #0
.LVL1268:
.L1095:
	.loc 2 2784 0
	mov	r0, r5
	pop	{r4, r5, r6, pc}
.LVL1269:
.L1098:
	.loc 2 2765 0 discriminator 1
	movw	r2, #2765
.LVL1270:
.L1103:
	.loc 2 2781 0 discriminator 2
	ldr	r1, .L1104+8
	ldr	r0, .L1104+12
	bl	printf
.LVL1271:
	b	.L1095
.LVL1272:
.L1097:
	.loc 2 2768 0
	subs	r2, r2, #1
	strh	r2, [r3, r0, lsl #1]	@ movhi
.L1096:
	.loc 2 2772 0
	ldr	r6, .L1104+16
	movw	r3, #65535
	ldrh	r0, [r6]
.LVL1273:
	cmp	r0, r3
	bne	.L1100
	.loc 2 2773 0
	strh	r4, [r6]	@ movhi
	b	.L1102
.L1100:
	.loc 2 2775 0
	cmp	r4, r0
	beq	.L1102
	.loc 2 2778 0
	bl	update_vpc_list
.LVL1274:
	.loc 2 2781 0
	ldr	r3, .L1104+20
	.loc 2 2778 0
	adds	r5, r0, #0
	.loc 2 2781 0
	ldr	r2, .L1104+24
	.loc 2 2778 0
	it	ne
	movne	r5, #1
.LVL1275:
	.loc 2 2780 0
	strh	r4, [r6]	@ movhi
	.loc 2 2781 0
	ldr	r3, [r3]
	ldr	r2, [r2]
	subs	r3, r3, r2
	asrs	r2, r3, #1
	ldr	r3, .L1104+28
	muls	r3, r2, r3
	ldr	r2, .L1104
	ldr	r2, [r2]
	uxth	r1, r3
	ldrh	r2, [r2, r1, lsl #1]
	cmp	r2, #0
	bne	.L1095
	.loc 2 2781 0 is_stmt 0 discriminator 1
	cmp	r4, r1
	beq	.L1095
	.loc 2 2781 0 discriminator 2
	movw	r2, #2781
	b	.L1103
.L1105:
	.align	2
.L1104:
	.word	.LANCHOR42
	.word	.LC101
	.word	.LANCHOR159
	.word	.LC1
	.word	.LANCHOR150
	.word	.LANCHOR41
	.word	.LANCHOR40
	.word	-1431655765
	.cfi_endproc
.LFE305:
	.size	decrement_vpc_count, .-decrement_vpc_count
	.section	.text.FtlWriteDump_data,"ax",%progbits
	.align	1
	.global	FtlWriteDump_data
	.syntax unified
	.thumb
	.thumb_func
	.fpu softvfp
	.type	FtlWriteDump_data, %function
FtlWriteDump_data:
.LFB271:
	.loc 2 996 0 is_stmt 1
	.cfi_startproc
	@ args = 0, pretend = 0, frame = 24
	@ frame_needed = 0, uses_anonymous_args = 0
	push	{r4, r5, r6, r7, r8, r10, fp, lr}
	.cfi_def_cfa_offset 32
	.cfi_offset 4, -32
	.cfi_offset 5, -28
	.cfi_offset 6, -24
	.cfi_offset 7, -20
	.cfi_offset 8, -16
	.cfi_offset 10, -12
	.cfi_offset 11, -8
	.cfi_offset 14, -4
	sub	sp, sp, #24
	.cfi_def_cfa_offset 56
	.loc 2 997 0
	ldr	r4, .L1125
	ldrh	r2, [r4, #4]
	cmp	r2, #0
	beq	.L1107
	.loc 2 997 0 is_stmt 0 discriminator 1
	ldrb	r3, [r4, #8]	@ zero_extendqisi2
	cmp	r3, #0
	bne	.L1107
	.loc 2 998 0 is_stmt 1
	ldr	r3, .L1125+4
	ldrb	r1, [r4, #7]	@ zero_extendqisi2
	ldrh	r3, [r3]
	muls	r3, r1, r3
	cmp	r2, r3
	beq	.L1107
.LVL1276:
.LBB299:
.LBB300:
	.loc 2 1005 0
	ldrb	r7, [r4, #10]	@ zero_extendqisi2
	cbnz	r7, .L1106
	.loc 2 1000 0
	ldr	r3, .L1125+8
	.loc 2 1007 0
	mov	r2, r7
	mov	r1, sp
	.loc 2 1000 0
	ldr	r6, [r3]
	.loc 2 1002 0
	ldr	r3, .L1125+12
	.loc 2 1000 0
	subs	r6, r6, #1
	.loc 2 1007 0
	mov	r0, r6
	.loc 2 1002 0
	ldrh	r8, [r3]
	.loc 2 1007 0
	bl	log2phys
.LVL1277:
	.loc 2 1012 0
	ldr	r2, .L1125+16
	.loc 2 1010 0
	ldr	r3, [sp]
	.loc 2 1011 0
	str	r6, [sp, #20]
	.loc 2 1012 0
	ldr	r0, [r2]
	.loc 2 1013 0
	ldr	r2, .L1125+20
	.loc 2 1010 0
	str	r3, [sp, #8]
	.loc 2 1016 0
	adds	r3, r3, #1
	.loc 2 1012 0
	str	r0, [sp, #12]
	.loc 2 1013 0
	ldr	r5, [r2]
	str	r5, [sp, #16]
.LVL1278:
	.loc 2 1015 0
	str	r7, [r5, #4]
	.loc 2 1016 0
	beq	.L1109
	.loc 2 1018 0
	mov	r2, r7
	movs	r1, #1
	add	r0, sp, #4
	bl	FlashReadPages
.LVL1279:
.L1110:
	.loc 2 1035 0
	ldr	fp, .L1125
	.loc 2 1002 0
	lsl	r8, r8, #2
.LVL1280:
	.loc 2 1036 0
	ldr	r10, .L1125+28
	.loc 2 1024 0
	movs	r7, #0
	movw	r3, #61589
	strh	r3, [r5]	@ movhi
.L1111:
	.loc 2 1025 0
	cmp	r8, r7
	bne	.L1115
.L1112:
	.loc 2 1041 0
	movs	r3, #1
.LVL1281:
.L1124:
.LBE300:
.LBE299:
	.loc 2 1047 0
	strb	r3, [r4, #10]
.L1106:
	.loc 2 1049 0
	add	sp, sp, #24
	.cfi_remember_state
	.cfi_def_cfa_offset 32
	@ sp needed
	pop	{r4, r5, r6, r7, r8, r10, fp, pc}
.LVL1282:
.L1109:
	.cfi_restore_state
.LBB302:
.LBB301:
	.loc 2 1022 0
	ldr	r3, .L1125+24
	movs	r1, #255
	ldrh	r2, [r3]
	bl	ftl_memset
.LVL1283:
	b	.L1110
.LVL1284:
.L1115:
	.loc 2 1027 0
	ldrh	r3, [r4, #4]
	cmp	r3, #0
	beq	.L1112
	.loc 2 1032 0
	ldr	r3, [sp, #8]
	.loc 2 1035 0
	mov	r0, fp
	.loc 2 1031 0
	str	r6, [r5, #8]
	adds	r7, r7, #1
	.loc 2 1032 0
	str	r3, [r5, #12]
	.loc 2 1033 0
	ldrh	r3, [r4]
	strh	r3, [r5, #2]	@ movhi
	.loc 2 1035 0
	bl	get_new_active_ppa
.LVL1285:
	.loc 2 1036 0
	ldr	r3, [r10]
	.loc 2 1037 0
	movs	r1, #1
	.loc 2 1035 0
	str	r0, [sp, #8]
	.loc 2 1037 0
	add	r0, sp, #4
	.loc 2 1036 0
	str	r3, [r5, #4]
	adds	r3, r3, #1
	adds	r2, r3, #1
	it	eq
	moveq	r3, #0
	str	r3, [r10]
	.loc 2 1037 0
	movs	r3, #0
	mov	r2, r3
	bl	FlashProgPages
.LVL1286:
	.loc 2 1039 0
	ldrh	r0, [r4]
	bl	decrement_vpc_count
.LVL1287:
	b	.L1111
.LVL1288:
.L1107:
.LBE301:
.LBE302:
	.loc 2 1047 0
	movs	r3, #0
	b	.L1124
.L1126:
	.align	2
.L1125:
	.word	.LANCHOR51
	.word	.LANCHOR19
	.word	.LANCHOR61
	.word	.LANCHOR3
	.word	.LANCHOR107
	.word	.LANCHOR108
	.word	.LANCHOR23
	.word	.LANCHOR71
	.cfi_endproc
.LFE271:
	.size	FtlWriteDump_data, .-FtlWriteDump_data
	.section	.text.l2p_flush,"ax",%progbits
	.align	1
	.global	l2p_flush
	.syntax unified
	.thumb
	.thumb_func
	.fpu softvfp
	.type	l2p_flush, %function
l2p_flush:
.LFB264:
	.loc 2 789 0
	.cfi_startproc
	@ args = 0, pretend = 0, frame = 0
	@ frame_needed = 0, uses_anonymous_args = 0
	push	{r4, r5, r6, lr}
	.cfi_def_cfa_offset 16
	.cfi_offset 4, -16
	.cfi_offset 5, -12
	.cfi_offset 6, -8
	.cfi_offset 14, -4
	.loc 2 795 0
	movs	r4, #0
	ldr	r5, .L1131
	.loc 2 796 0
	ldr	r6, .L1131+4
	.loc 2 793 0
	bl	FtlWriteDump_data
.LVL1289:
.L1128:
	.loc 2 795 0 discriminator 1
	ldrh	r3, [r5]
	uxth	r0, r4
.LVL1290:
	cmp	r3, r0
	bhi	.L1130
	.loc 2 799 0
	movs	r0, #0
.LVL1291:
	pop	{r4, r5, r6, pc}
.LVL1292:
.L1130:
	.loc 2 796 0
	ldr	r2, [r6]
	uxth	r3, r4
	movs	r1, #12
	mla	r3, r1, r3, r2
	ldr	r3, [r3, #4]
	cmp	r3, #0
	bge	.L1129
	.loc 2 797 0
	bl	flush_l2p_region
.LVL1293:
.L1129:
	adds	r4, r4, #1
.LVL1294:
	b	.L1128
.L1132:
	.align	2
.L1131:
	.word	.LANCHOR33
	.word	.LANCHOR55
	.cfi_endproc
.LFE264:
	.size	l2p_flush, .-l2p_flush
	.section	.text.FtlRecoverySuperblock,"ax",%progbits
	.align	1
	.global	FtlRecoverySuperblock
	.syntax unified
	.thumb
	.thumb_func
	.fpu softvfp
	.type	FtlRecoverySuperblock, %function
FtlRecoverySuperblock:
.LFB284:
	.loc 2 1705 0
	.cfi_startproc
	@ args = 0, pretend = 0, frame = 48
	@ frame_needed = 0, uses_anonymous_args = 0
.LVL1295:
	.loc 2 1719 0
	ldrh	r3, [r0]
	movw	r2, #65535
	.loc 2 1705 0
	push	{r4, r5, r6, r7, r8, r10, fp, lr}
	.cfi_def_cfa_offset 32
	.cfi_offset 4, -32
	.cfi_offset 5, -28
	.cfi_offset 6, -24
	.cfi_offset 7, -20
	.cfi_offset 8, -16
	.cfi_offset 10, -12
	.cfi_offset 11, -8
	.cfi_offset 14, -4
	mov	r8, r0
	sub	sp, sp, #48
	.cfi_def_cfa_offset 80
	.loc 2 1719 0
	cmp	r3, r2
	beq	.L1262
	.loc 2 1724 0
	ldrh	r3, [r0, #2]
	str	r3, [sp, #4]
.LVL1296:
	.loc 2 1725 0
	ldrb	r3, [r0, #6]	@ zero_extendqisi2
	.loc 2 1730 0
	ldr	r1, [sp, #4]
	.loc 2 1725 0
	str	r3, [sp, #20]
.LVL1297:
	.loc 2 1730 0
	ldr	r3, .L1270
	ldrh	r3, [r3]
	cmp	r3, r1
	mov	r3, #0
	bne	.L1136
	.loc 2 1731 0
	strh	r3, [r0, #4]	@ movhi
.LVL1298:
.L1268:
	.loc 2 2038 0
	strb	r3, [r8, #6]
.LVL1299:
.L1262:
	.loc 2 2059 0
	movs	r0, #0
	add	sp, sp, #48
	.cfi_remember_state
	.cfi_def_cfa_offset 32
	@ sp needed
	pop	{r4, r5, r6, r7, r8, r10, fp, pc}
.LVL1300:
.L1136:
	.cfi_restore_state
	.loc 2 1738 0
	ldrh	r0, [r0, #16]
.LVL1301:
.L1137:
	.loc 2 1739 0
	cmp	r0, r2
	uxth	r5, r3
.LVL1302:
	add	r3, r3, #1
	beq	.L1138
	.loc 2 1746 0
	movs	r1, #1
	bl	FtlGetLastWrittenPage
.LVL1303:
	mov	r4, r0
.LVL1304:
	.loc 2 1754 0
	adds	r0, r0, #1
.LVL1305:
	beq	.L1139
	.loc 2 1766 0
	ldr	r3, .L1270+4
	.loc 2 1771 0
	movs	r2, #0
	mov	r5, r2
.LVL1306:
	.loc 2 1768 0
	movw	fp, #65535
	.loc 2 1769 0
	mov	r10, #20
	.loc 2 1766 0
	ldrh	ip, [r3]
	.loc 2 1769 0
	ldr	r3, .L1270+8
	ldr	r0, [r3]
	.loc 2 1770 0
	ldr	r3, .L1270+12
	ldr	r3, [r3]
	str	r3, [sp, #8]
	ldr	r3, .L1270+16
	ldrh	r7, [r3]
	.loc 2 1771 0
	ldr	r3, .L1270+20
	ldr	r3, [r3]
	str	r3, [sp, #12]
	ldr	r3, .L1270+24
	ldrh	lr, [r3]
	add	r3, r8, #16
	str	r3, [sp, #16]
	str	r3, [sp]
.L1140:
.LVL1307:
	.loc 2 1766 0 discriminator 1
	uxth	r3, r2
	cmp	ip, r3
	bhi	.L1144
	.loc 2 1776 0
	movs	r2, #0
.LVL1308:
	mov	r1, r5
	bl	FlashReadPages
.LVL1309:
	.loc 2 1777 0
	ldr	r2, .L1270+28
	.loc 2 1791 0
	uxth	r1, r4
	.loc 2 1715 0
	movw	fp, #65535
	.loc 2 1791 0
	str	r1, [sp, #12]
	.loc 2 1777 0
	ldr	r3, [r2]
	subs	r3, r3, #1
	str	r3, [sp]
.LVL1310:
	.loc 2 1779 0
	ldr	r3, .L1270+8
.LVL1311:
	ldr	r10, [r3]
	.loc 2 1778 0
	movs	r3, #0
	mov	r7, r10
.LVL1312:
.L1145:
	uxth	r1, r3
.LVL1313:
	.loc 2 1778 0 is_stmt 0 discriminator 1
	cmp	r5, r1
	bhi	.L1150
	.loc 2 1794 0 is_stmt 1
	bne	.L1148
	.loc 2 1796 0
	adds	r3, r4, #1
	uxth	r3, r3
	str	r3, [sp, #8]
.LVL1314:
.L1263:
	.loc 2 1802 0
	ldr	r0, [r10, #4]
	ubfx	r0, r0, #10, #16
	bl	P2V_plane
.LVL1315:
	.loc 2 1807 0
	ldr	r3, .L1270
	.loc 2 1802 0
	mov	r10, r0
.LVL1316:
	.loc 2 1807 0
	ldr	r2, [sp, #8]
	ldrh	r3, [r3]
	cmp	r3, r2
	bne	.L1152
	.loc 2 1808 0
	ldrh	r3, [sp, #8]
	strh	r3, [r8, #2]	@ movhi
	.loc 2 1809 0
	movs	r3, #0
	strb	r3, [r8, #6]
	.loc 2 1810 0
	strh	r3, [r8, #4]	@ movhi
.L1152:
	.loc 2 1813 0
	ldr	r3, [sp, #8]
	ldr	r2, [sp, #4]
	cmp	r3, r2
	bne	.L1153
	.loc 2 1813 0 is_stmt 0 discriminator 1
	ldr	r3, [sp, #20]
	cmp	r10, r3
	bne	.L1153
	.loc 2 1814 0 is_stmt 1
	ldr	r1, [sp, #8]
	mov	r2, r10
.LVL1317:
.L1269:
	.loc 2 2053 0
	mov	r0, r8
	bl	ftl_sb_update_avl_pages
.LVL1318:
	b	.L1262
.LVL1319:
.L1138:
	.loc 2 1741 0
	uxth	r1, r3
	adds	r1, r1, #8
	ldrh	r0, [r8, r1, lsl #1]
.LVL1320:
	b	.L1137
.LVL1321:
.L1139:
	.loc 2 1755 0
	ldr	r3, [sp, #4]
	cbz	r3, .L1141
	.loc 2 1755 0 is_stmt 0 discriminator 1
	movw	r2, #1755
	ldr	r1, .L1270+32
	ldr	r0, .L1270+36
	bl	printf
.LVL1322:
.L1141:
	.loc 2 1756 0 is_stmt 1
	ldr	r3, [sp, #20]
	cbz	r3, .L1142
	.loc 2 1756 0 is_stmt 0 discriminator 1
	cmp	r5, r3
	beq	.L1142
	.loc 2 1756 0 discriminator 2
	movw	r2, #1756
	ldr	r1, .L1270+32
	ldr	r0, .L1270+36
	bl	printf
.LVL1323:
.L1142:
	.loc 2 1757 0 is_stmt 1
	movs	r3, #0
	strh	r3, [r8, #2]	@ movhi
	b	.L1268
.LVL1324:
.L1144:
	.loc 2 1767 0
	ldr	r1, [sp]
	ldrh	r3, [r1], #2
	.loc 2 1768 0
	cmp	r3, fp
	.loc 2 1767 0
	str	r1, [sp]
.LVL1325:
	.loc 2 1768 0
	beq	.L1143
	.loc 2 1769 0
	mla	r1, r10, r5, r0
	.loc 2 1770 0
	ldr	r6, [sp, #8]
	.loc 2 1769 0
	orr	r3, r4, r3, lsl #10
.LVL1326:
	str	r3, [r1, #4]
	.loc 2 1770 0
	mul	r3, r7, r5
	bic	r3, r3, #3
	add	r3, r3, r6
	.loc 2 1771 0
	ldr	r6, [sp, #12]
	.loc 2 1770 0
	str	r3, [r1, #8]
	.loc 2 1771 0
	mul	r3, lr, r5
	.loc 2 1772 0
	adds	r5, r5, #1
.LVL1327:
	uxth	r5, r5
.LVL1328:
	.loc 2 1771 0
	bic	r3, r3, #3
	add	r3, r3, r6
	str	r3, [r1, #12]
.L1143:
.LVL1329:
	adds	r2, r2, #1
.LVL1330:
	b	.L1140
.LVL1331:
.L1150:
	.loc 2 1779 0
	ldr	r1, [r7]
.LVL1332:
	cbnz	r1, .L1146
	.loc 2 1780 0
	ldr	r1, [r7, #12]
	.loc 2 1781 0
	ldr	r6, [r1, #4]
	.loc 2 1780 0
	str	r1, [sp, #8]
.LVL1333:
	.loc 2 1781 0
	adds	r1, r6, #1
.LVL1334:
	beq	.L1147
	.loc 2 1782 0
	ldr	r1, [r2]
	mov	r0, r6
	bl	ftl_cmp_data_ver
.LVL1335:
	cbz	r0, .L1147
	.loc 2 1784 0
	adds	r6, r6, #1
	str	r6, [r2]
.L1147:
	.loc 2 1787 0
	ldr	r1, [sp, #8]
	ldr	r1, [r1]
	adds	r1, r1, #1
	bne	.L1149
.LVL1336:
.L1148:
	.loc 2 1801 0
	uxth	r2, r4
	.loc 2 1802 0
	uxth	r3, r3
	.loc 2 1801 0
	str	r2, [sp, #8]
.LVL1337:
	.loc 2 1802 0
	movs	r2, #20
	mla	r10, r2, r3, r10
	b	.L1263
.LVL1338:
.L1146:
	.loc 2 1791 0
	ldr	fp, [sp, #12]
.LVL1339:
.L1149:
	adds	r3, r3, #1
.LVL1340:
	adds	r7, r7, #20
	b	.L1145
.LVL1341:
.L1153:
	.loc 2 1819 0
	movw	r3, #65535
	cmp	fp, r3
	bne	.L1154
	.loc 2 1819 0 is_stmt 0 discriminator 1
	ldrb	r3, [r8, #8]	@ zero_extendqisi2
	cmp	r3, #0
	bne	.L1155
.L1154:
.LVL1342:
.LBB303:
	.loc 2 1824 0 is_stmt 1
	ldr	r3, .L1270+40
	.loc 2 1823 0
	uxth	r6, r4
.LVL1343:
	.loc 2 1827 0
	uxth	r4, r4
.LVL1344:
	.loc 2 1834 0
	ldr	r7, .L1270+8
	.loc 2 1824 0
	ldr	r2, [r3]
	adds	r2, r2, #1
	.loc 2 1825 0
	itt	eq
	ldreq	r2, [sp]
	streq	r2, [r3]
.LVL1345:
	.loc 2 1827 0
	ldr	r3, [sp, #4]
	adds	r3, r3, #7
	cmp	r4, r3
	.loc 2 1828 0
	itet	gt
	subgt	r4, r6, #7
	ldrle	r4, [sp, #4]
	uxthgt	r4, r4
.LVL1346:
.L1158:
	.loc 2 1829 0 discriminator 1
	cmp	r4, r6
	bhi	.L1168
	.loc 2 1831 0
	ldr	r3, .L1270+4
	.loc 2 1833 0
	movw	lr, #65535
	.loc 2 1834 0
	ldr	r0, [r7]
	mov	ip, #20
	.loc 2 1831 0
	ldrh	fp, [r3]
	.loc 2 1834 0
	ldr	r3, [sp, #16]
	str	r3, [sp, #12]
	movs	r3, #0
	mov	r5, r3
	b	.L1169
.LVL1347:
.L1160:
	.loc 2 1832 0
	ldr	r1, [sp, #12]
	ldrh	r2, [r1], #2
	.loc 2 1833 0
	cmp	r2, lr
	.loc 2 1832 0
	str	r1, [sp, #12]
.LVL1348:
	.loc 2 1833 0
	beq	.L1159
	.loc 2 1834 0
	mla	r1, ip, r5, r0
	.loc 2 1835 0
	adds	r5, r5, #1
.LVL1349:
	.loc 2 1834 0
	orr	r2, r4, r2, lsl #10
.LVL1350:
	.loc 2 1835 0
	uxth	r5, r5
.LVL1351:
	.loc 2 1834 0
	str	r2, [r1, #4]
.L1159:
.LVL1352:
	adds	r3, r3, #1
.LVL1353:
.L1169:
	.loc 2 1831 0 discriminator 1
	uxth	r2, r3
	cmp	fp, r2
	bhi	.L1160
	.loc 2 1838 0
	mov	r1, r5
	movs	r2, #0
	bl	FlashReadPages
.LVL1354:
	ldr	r3, .L1270+40
	movs	r1, #20
	.loc 2 1839 0
	movs	r0, #0
	.loc 2 1842 0
	movw	ip, #65535
	ldr	r2, [r3]
	ldr	r3, [r7]
	mla	r5, r1, r5, r3
.LVL1355:
.L1161:
	.loc 2 1839 0 discriminator 1
	cmp	r3, r5
	bne	.L1166
	cbz	r0, .L1167
	ldr	r3, .L1270+40
	str	r2, [r3]
.L1167:
	.loc 2 1829 0
	adds	r4, r4, #1
.LVL1356:
	uxth	r4, r4
.LVL1357:
	b	.L1158
.L1271:
	.align	2
.L1270:
	.word	.LANCHOR19
	.word	.LANCHOR3
	.word	.LANCHOR120
	.word	.LANCHOR91
	.word	.LANCHOR23
	.word	.LANCHOR92
	.word	.LANCHOR24
	.word	.LANCHOR71
	.word	.LANCHOR160
	.word	.LC1
	.word	.LANCHOR153
.L1166:
	.loc 2 1840 0
	ldr	r1, [r3]
	cmp	r1, #0
	beq	.L1162
	cbz	r0, .L1155
.L1264:
	.loc 2 1858 0
	ldr	r3, .L1272
	str	r2, [r3]
.LVL1358:
.L1155:
.LBE303:
	.loc 2 1863 0
	ldr	r3, .L1272+4
	movs	r2, #1
	.loc 2 1864 0
	ldr	r0, .L1272+8
	.loc 2 1873 0
	ldr	r6, .L1272+12
	.loc 2 1863 0
	strh	r2, [r3]	@ movhi
	.loc 2 1864 0
	bl	FtlMapBlkWriteDump_data
.LVL1359:
	ldr	fp, [sp, #4]
.LVL1360:
.L1170:
	.loc 2 1870 0
	ldr	r3, .L1272+16
	.loc 2 1872 0
	movw	lr, #65535
	.loc 2 1873 0
	ldr	r0, [r6]
	movs	r7, #20
	.loc 2 1870 0
	ldr	r1, [sp, #16]
	ldrh	r4, [r3]
	movs	r3, #0
	.loc 2 1869 0
	str	r3, [sp, #12]
.LVL1361:
.L1171:
	.loc 2 1870 0 discriminator 1
	uxth	r2, r3
	cmp	r2, r4
	bcc	.L1173
	.loc 2 1877 0
	movs	r2, #0
	ldr	r1, [sp, #12]
	bl	FlashReadPages
.LVL1362:
	.loc 2 1878 0
	movs	r3, #0
.LVL1363:
.L1267:
	str	r3, [sp, #24]
.LVL1364:
	.loc 2 1878 0 is_stmt 0 discriminator 2
	ldr	r2, [sp, #12]
	ldrh	r3, [sp, #24]
	cmp	r2, r3
	bhi	.L1202
	.loc 2 2032 0 is_stmt 1
	ldr	r3, .L1272+20
	.loc 2 2031 0
	add	fp, fp, #1
.LVL1365:
	uxth	fp, fp
.LVL1366:
	.loc 2 2032 0
	ldrh	r3, [r3]
	cmp	r3, fp
	bne	.L1170
	.loc 2 2035 0
	ldr	r2, .L1272+16
	.loc 2 2037 0
	movw	r0, #65535
	.loc 2 2034 0
	movs	r3, #0
	.loc 2 2033 0
	strh	fp, [r8, #2]	@ movhi
	.loc 2 2034 0
	strh	r3, [r8, #4]	@ movhi
.LVL1367:
	.loc 2 2035 0
	ldrh	r2, [r2]
.LVL1368:
.L1203:
	.loc 2 2035 0 is_stmt 0 discriminator 1
	uxth	r1, r3
	cmp	r1, r2
	bcs	.L1262
	.loc 2 2036 0 is_stmt 1
	ldr	r1, [sp, #16]
	ldrh	r4, [r1], #2
	.loc 2 2037 0
	cmp	r4, r0
	.loc 2 2036 0
	str	r1, [sp, #16]
.LVL1369:
	add	r1, r3, #1
	.loc 2 2037 0
	bne	.L1268
	mov	r3, r1
.LVL1370:
	b	.L1203
.LVL1371:
.L1162:
.LBB304:
	.loc 2 1841 0
	ldr	r1, [r3, #12]
.LVL1372:
	.loc 2 1842 0
	ldrh	lr, [r1]
	cmp	lr, ip
	beq	.L1165
	.loc 2 1844 0
	ldr	r1, [r1, #4]
.LVL1373:
	cmp	r1, #-1
	itt	ne
	movne	r2, r1
	movne	r0, #1
.L1165:
	adds	r3, r3, #20
.LVL1374:
	b	.L1161
.LVL1375:
.L1168:
	.loc 2 1858 0
	mov	r2, #-1
	b	.L1264
.LVL1376:
.L1173:
.LBE304:
	.loc 2 1871 0
	ldrh	r2, [r1], #2
.LVL1377:
	.loc 2 1872 0
	cmp	r2, lr
	beq	.L1172
	.loc 2 1873 0
	ldr	r5, [sp, #12]
	orr	r2, fp, r2, lsl #10
.LVL1378:
	mla	ip, r7, r5, r0
	str	r2, [ip, #4]
	.loc 2 1874 0
	mov	r2, r5
	adds	r2, r2, #1
	uxth	r2, r2
	str	r2, [sp, #12]
.LVL1379:
.L1172:
	adds	r3, r3, #1
.LVL1380:
	b	.L1171
.LVL1381:
.L1202:
	ldr	r3, [sp, #24]
	movs	r5, #20
	muls	r5, r3, r5
	.loc 2 1879 0
	ldr	r3, [r6]
	str	r3, [sp, #28]
	adds	r7, r3, r5
	ldr	r4, [r7, #4]
	.loc 2 1880 0
	ubfx	r0, r4, #10, #16
	.loc 2 1879 0
	str	r4, [sp, #44]
	.loc 2 1880 0
	bl	P2V_plane
.LVL1382:
	.loc 2 1882 0
	ldr	r3, [sp, #4]
	cmp	fp, r3
	bcc	.L1175
	.loc 2 1882 0 is_stmt 0 discriminator 1
	ldr	r3, [sp, #28]
	bne	.L1176
	.loc 2 1883 0 is_stmt 1
	ldr	r2, [sp, #20]
	cmp	r2, r0
	bhi	.L1175
.L1176:
	.loc 2 1886 0
	ldr	r2, [sp, #8]
	cmp	fp, r2
	bne	.L1177
	.loc 2 1886 0 is_stmt 0 discriminator 1
	cmp	r10, r0
	beq	.L1178
.L1177:
.LVL1383:
	.loc 2 1890 0 is_stmt 1
	ldr	r3, [r3, r5]
	adds	r3, r3, #1
	beq	.L1179
	.loc 2 1891 0
	ldr	r3, [r7, #12]
.LVL1384:
	.loc 2 1892 0
	movw	r2, #61589
	ldrh	r1, [r3]
	cmp	r1, r2
	beq	.L1180
.LVL1385:
.L1186:
.LBB305:
	.loc 2 1925 0
	ldrh	r0, [r8]
.LVL1386:
.L1266:
.LBE305:
	.loc 2 2009 0
	bl	decrement_vpc_count
.LVL1387:
.L1175:
	ldr	r3, [sp, #24]
	adds	r3, r3, #1
	b	.L1267
.LVL1388:
.L1180:
	.loc 2 1898 0
	ldr	r2, [r3, #4]
	str	r2, [sp]
.LVL1389:
	.loc 2 1899 0
	adds	r2, r2, #1
.LVL1390:
	beq	.L1181
	.loc 2 1900 0 discriminator 1
	ldr	r2, .L1272+24
	ldr	r0, [sp]
.LVL1391:
	ldr	r1, [r2]
	bl	ftl_cmp_data_ver
.LVL1392:
	.loc 2 1899 0 discriminator 1
	cbz	r0, .L1181
	.loc 2 1902 0
	ldr	r1, [sp]
	adds	r1, r1, #1
	str	r1, [r2]
.L1181:
	.loc 2 1906 0
	ldr	r4, [r3, #8]
.LVL1393:
	.loc 2 1908 0
	add	r1, sp, #40
	.loc 2 1907 0
	ldr	r3, [r3, #12]
.LVL1394:
	.loc 2 1908 0
	movs	r2, #0
	mov	r0, r4
	.loc 2 1907 0
	str	r3, [sp, #36]
	.loc 2 1908 0
	bl	log2phys
.LVL1395:
	.loc 2 1909 0
	ldr	r3, .L1272
	ldr	r1, [r3]
	adds	r3, r1, #1
	beq	.L1182
	.loc 2 1910 0 discriminator 1
	ldr	r0, [sp]
	bl	ftl_cmp_data_ver
.LVL1396:
	.loc 2 1909 0 discriminator 1
	cmp	r0, #0
	beq	.L1182
.LBB306:
	.loc 2 1914 0
	ldr	r3, [sp, #36]
	adds	r7, r3, #1
	beq	.L1183
	.loc 2 1915 0
	ldr	r0, [r6]
	.loc 2 1917 0
	movs	r2, #0
	movs	r1, #1
	.loc 2 1915 0
	add	r0, r0, r5
	.loc 2 1916 0
	str	r3, [r0, #4]
	.loc 2 1915 0
	ldr	r7, [r0, #12]
.LVL1397:
	.loc 2 1917 0
	bl	FlashReadPages
.LVL1398:
	.loc 2 1930 0
	ldr	r2, [r6]
	ldr	r1, [r2, r5]
	adds	r3, r2, r5
	adds	r1, r1, #1
	bne	.L1184
.LVL1399:
.L1185:
	.loc 2 1962 0
	mov	r3, #-1
	.loc 2 1963 0
	ldrh	r0, [r8]
	.loc 2 1962 0
	str	r3, [sp, #36]
	.loc 2 1963 0
	bl	decrement_vpc_count
.LVL1400:
.L1193:
.LBE306:
	.loc 2 2003 0
	ldr	r7, [sp, #36]
	adds	r0, r7, #1
	beq	.L1175
.L1206:
	.loc 2 2005 0
	ubfx	r0, r7, #10, #16
	bl	P2V_block_in_plane
.LVL1401:
	.loc 2 2006 0
	ldr	r3, .L1272+28
	.loc 2 2005 0
	mov	r4, r0
.LVL1402:
	.loc 2 2006 0
	ldrh	r3, [r3]
	cmp	r3, r0
	bhi	.L1198
	.loc 2 2006 0 is_stmt 0 discriminator 1
	movw	r2, #2006
	ldr	r1, .L1272+32
	ldr	r0, .L1272+36
.LVL1403:
	bl	printf
.LVL1404:
.L1198:
	.loc 2 2007 0 is_stmt 1
	ldr	r3, .L1272+40
	ldr	r3, [r3]
	ldrh	r3, [r3, r4, lsl #1]
	cmp	r3, #0
	beq	.L1199
	.loc 2 2009 0
	mov	r0, r4
	b	.L1266
.LVL1405:
.L1183:
.LBB307:
	.loc 2 1921 0
	ldr	r3, [sp, #44]
	ldr	r2, [sp, #40]
	cmp	r2, r3
	bne	.L1186
	.loc 2 1922 0
	movs	r2, #1
	add	r1, sp, #36
	mov	r0, r4
	bl	log2phys
.LVL1406:
	b	.L1186
.LVL1407:
.L1184:
	.loc 2 1930 0 discriminator 1
	ldr	r1, [r7, #8]
	cmp	r4, r1
	bne	.L1185
	.loc 2 1931 0 discriminator 2
	ldr	r0, .L1272
	.loc 2 1918 0 discriminator 2
	ldr	r1, [r7, #4]
	.loc 2 1931 0 discriminator 2
	ldr	r0, [r0]
	.loc 2 1918 0 discriminator 2
	str	r1, [sp, #28]
	.loc 2 1931 0 discriminator 2
	bl	ftl_cmp_data_ver
.LVL1408:
	.loc 2 1930 0 discriminator 2
	cmp	r0, #0
	beq	.L1185
	.loc 2 1932 0
	ldr	r1, [sp, #40]
	ldr	r0, [sp, #44]
	cmp	r1, r0
	bne	.L1188
.L1191:
	.loc 2 1958 0
	ldr	r1, [sp, #36]
	mov	r0, r4
	bl	FtlReUsePrevPpa
.LVL1409:
	b	.L1185
.L1188:
	.loc 2 1935 0
	ldr	r0, [sp, #36]
	cmp	r1, r0
	beq	.L1185
	.loc 2 1936 0
	adds	r0, r1, #1
	beq	.L1189
.LVL1410:
	.loc 2 1938 0
	str	r1, [r3, #4]
	.loc 2 1939 0
	movs	r2, #0
	movs	r1, #1
	mov	r0, r3
	.loc 2 1937 0
	ldr	r7, [r3, #12]
	.loc 2 1939 0
	bl	FlashReadPages
.LVL1411:
.L1190:
	.loc 2 1944 0
	ldr	r3, [r6]
	ldr	r3, [r3, r5]
	adds	r3, r3, #1
	beq	.L1191
	.loc 2 1945 0
	ldr	r3, [r7, #4]
.LVL1412:
	.loc 2 1946 0
	ldr	r2, .L1272
	mov	r1, r3
	ldr	r0, [r2]
	bl	ftl_cmp_data_ver
.LVL1413:
	cmp	r0, #0
	beq	.L1191
	.loc 2 1947 0
	mov	r1, r3
	ldr	r0, [sp, #28]
	bl	ftl_cmp_data_ver
.LVL1414:
	cmp	r0, #0
	beq	.L1185
.LVL1415:
	b	.L1191
.LVL1416:
.L1189:
	.loc 2 1941 0
	str	r1, [r2, r5]
	b	.L1190
.L1273:
	.align	2
.L1272:
	.word	.LANCHOR153
	.word	.LANCHOR161
	.word	.LANCHOR144
	.word	.LANCHOR120
	.word	.LANCHOR3
	.word	.LANCHOR19
	.word	.LANCHOR71
	.word	.LANCHOR5
	.word	.LANCHOR160
	.word	.LC1
	.word	.LANCHOR42
.LVL1417:
.L1182:
.LBE307:
	.loc 2 1964 0
	ldr	r3, [sp, #44]
	ldr	r2, [sp, #40]
	cmp	r2, r3
	beq	.L1193
	.loc 2 1966 0
	movs	r2, #1
	add	r1, sp, #44
	mov	r0, r4
	bl	log2phys
.LVL1418:
	.loc 2 1967 0
	ldr	r7, [sp, #40]
	adds	r5, r7, #1
	beq	.L1193
	.loc 2 1967 0 is_stmt 0 discriminator 1
	ldr	r3, [sp, #36]
	cmp	r7, r3
	beq	.L1206
	.loc 2 1968 0 is_stmt 1
	ubfx	r0, r7, #10, #16
	bl	P2V_block_in_plane
.LVL1419:
	.loc 2 1970 0
	ldr	r3, .L1274
	ldrh	r3, [r3]
	cmp	r3, r0
	beq	.L1197
	.loc 2 1971 0 discriminator 1
	ldr	r3, .L1274+4
	.loc 2 1970 0 discriminator 1
	ldrh	r3, [r3]
	cmp	r3, r0
	beq	.L1197
	.loc 2 1972 0
	ldr	r3, .L1274+8
	.loc 2 1971 0
	ldrh	r3, [r3]
	cmp	r3, r0
	bne	.L1193
.L1197:
.LVL1420:
.LBB308:
	.loc 2 1976 0
	ldr	r0, [r6]
.LVL1421:
	.loc 2 1979 0
	movs	r2, #0
	movs	r1, #1
	.loc 2 1978 0
	str	r7, [r0, #4]
	.loc 2 1976 0
	ldr	r5, [r0, #12]
.LVL1422:
	.loc 2 1979 0
	bl	FlashReadPages
.LVL1423:
	.loc 2 1982 0
	ldr	r3, [r6]
	ldr	r3, [r3]
	adds	r3, r3, #1
	beq	.L1193
	.loc 2 1983 0
	ldr	r1, [r5, #4]
	ldr	r0, [sp]
	bl	ftl_cmp_data_ver
.LVL1424:
	cmp	r0, #0
	bne	.L1193
	.loc 2 1990 0
	movs	r2, #1
	add	r1, sp, #40
.LVL1425:
	mov	r0, r4
	bl	log2phys
.LVL1426:
	b	.L1193
.LVL1427:
.L1199:
.LBE308:
	.loc 2 2011 0
	mov	r1, r4
	ldr	r0, .L1274+12
	bl	printf
.LVL1428:
	b	.L1175
.LVL1429:
.L1179:
	.loc 2 2018 0
	ldr	r3, .L1274+16
	ldr	r3, [r3]
	cmp	r3, #31
	bhi	.L1200
	.loc 2 2019 0
	ldr	r2, .L1274+20
	str	r4, [r2, r3, lsl #2]
	.loc 2 2020 0
	adds	r3, r3, #1
	ldr	r2, .L1274+16
	str	r3, [r2]
.L1200:
	.loc 2 2022 0
	ldrh	r0, [r8]
.LVL1430:
	bl	decrement_vpc_count
.LVL1431:
	.loc 2 2024 0
	ldr	r3, .L1274+24
	ldr	r2, [r3]
	adds	r1, r2, #1
	bne	.L1201
	.loc 2 2025 0
	ldr	r2, [sp]
.L1265:
	.loc 2 2027 0
	str	r2, [r3]
	b	.L1175
.L1201:
	.loc 2 2026 0
	ldr	r1, [sp]
	cmp	r1, r2
	bcs	.L1175
	.loc 2 2027 0
	mov	r2, r1
	b	.L1265
.LVL1432:
.L1178:
	.loc 2 2051 0
	strb	r10, [r8, #6]
	.loc 2 2053 0
	mov	r2, r10
	.loc 2 2052 0
	strh	fp, [r8, #2]	@ movhi
	.loc 2 2053 0
	mov	r1, fp
	b	.L1269
.L1275:
	.align	2
.L1274:
	.word	.LANCHOR51
	.word	.LANCHOR52
	.word	.LANCHOR53
	.word	.LC102
	.word	.LANCHOR162
	.word	.LANCHOR163
	.word	.LANCHOR153
	.cfi_endproc
.LFE284:
	.size	FtlRecoverySuperblock, .-FtlRecoverySuperblock
	.section	.text.FtlSuperblockPowerLostFix,"ax",%progbits
	.align	1
	.global	FtlSuperblockPowerLostFix
	.syntax unified
	.thumb
	.thumb_func
	.fpu softvfp
	.type	FtlSuperblockPowerLostFix, %function
FtlSuperblockPowerLostFix:
.LFB291:
	.loc 2 2205 0
	.cfi_startproc
	@ args = 0, pretend = 0, frame = 24
	@ frame_needed = 0, uses_anonymous_args = 0
.LVL1433:
	push	{r4, r5, r6, r7, r8, lr}
	.cfi_def_cfa_offset 24
	.cfi_offset 4, -24
	.cfi_offset 5, -20
	.cfi_offset 6, -16
	.cfi_offset 7, -12
	.cfi_offset 8, -8
	.cfi_offset 14, -4
	.loc 2 2211 0
	mov	r3, #-1
	.loc 2 2205 0
	sub	sp, sp, #24
	.cfi_def_cfa_offset 48
	.loc 2 2213 0
	ldr	r2, .L1287
	.loc 2 2219 0
	movs	r6, #0
	.loc 2 2205 0
	mov	r4, r0
	.loc 2 2211 0
	str	r3, [sp, #20]
	.loc 2 2223 0
	movs	r7, #7
	.loc 2 2212 0
	ldr	r3, .L1287+4
	.loc 2 2213 0
	ldr	r5, [r2]
	.loc 2 2216 0
	mvn	r2, #2
	.loc 2 2229 0
	ldr	r8, .L1287+16
	.loc 2 2212 0
	ldr	r3, [r3]
	.loc 2 2213 0
	str	r5, [sp, #16]
.LVL1434:
	.loc 2 2212 0
	str	r3, [sp, #12]
	.loc 2 2216 0
	str	r2, [r5, #8]
	.loc 2 2217 0
	mvn	r2, #1
	str	r2, [r5, #12]
	.loc 2 2218 0
	ldrh	r2, [r0]
	.loc 2 2219 0
	strh	r6, [r5]	@ movhi
	.loc 2 2218 0
	strh	r2, [r5, #2]	@ movhi
	.loc 2 2220 0
	movw	r2, #61589
	str	r2, [r3]
	.loc 2 2221 0
	add	r2, r2, #304087040
	add	r2, r2, #1269760
	addw	r2, r2, #1507
	str	r2, [r3, #4]
.LVL1435:
.L1277:
	.loc 2 2223 0
	subs	r7, r7, #1
.LVL1436:
	beq	.L1279
.LVL1437:
	.loc 2 2224 0
	ldrh	r3, [r4, #4]
	cbnz	r3, .L1278
.LVL1438:
.L1279:
	.loc 2 2234 0
	ldr	r3, .L1287+8
	ldrh	r1, [r4]
	ldrh	r0, [r4, #4]
	ldr	r2, [r3]
	ldrh	r3, [r2, r1, lsl #1]
	subs	r3, r3, r0
	strh	r3, [r2, r1, lsl #1]	@ movhi
	.loc 2 2235 0
	ldr	r3, .L1287+12
	ldrh	r3, [r3]
	strh	r3, [r4, #2]	@ movhi
	.loc 2 2236 0
	movs	r3, #0
	strb	r3, [r4, #6]
	.loc 2 2237 0
	strh	r3, [r4, #4]	@ movhi
	.loc 2 2238 0
	add	sp, sp, #24
	.cfi_remember_state
	.cfi_def_cfa_offset 24
	@ sp needed
	pop	{r4, r5, r6, r7, r8, pc}
.LVL1439:
.L1278:
	.cfi_restore_state
	.loc 2 2226 0
	mov	r0, r4
	bl	get_new_active_ppa
.LVL1440:
	str	r0, [sp, #8]
	.loc 2 2227 0
	adds	r0, r0, #1
	beq	.L1279
	.loc 2 2229 0
	ldr	r3, [r8]
	.loc 2 2230 0
	movs	r1, #1
	add	r0, sp, #4
	.loc 2 2229 0
	str	r3, [r5, #4]
	adds	r3, r3, #1
	adds	r2, r3, #1
	it	eq
	moveq	r3, r6
	str	r3, [r8]
	.loc 2 2230 0
	movs	r3, #0
	mov	r2, r3
	bl	FlashProgPages
.LVL1441:
	.loc 2 2231 0
	ldrh	r0, [r4]
	bl	decrement_vpc_count
.LVL1442:
	b	.L1277
.L1288:
	.align	2
.L1287:
	.word	.LANCHOR108
	.word	.LANCHOR107
	.word	.LANCHOR42
	.word	.LANCHOR19
	.word	.LANCHOR71
	.cfi_endproc
.LFE291:
	.size	FtlSuperblockPowerLostFix, .-FtlSuperblockPowerLostFix
	.section	.text.FtlLoadBbt,"ax",%progbits
	.align	1
	.global	FtlLoadBbt
	.syntax unified
	.thumb
	.thumb_func
	.fpu softvfp
	.type	FtlLoadBbt, %function
FtlLoadBbt:
.LFB232:
	.loc 4 173 0
	.cfi_startproc
	@ args = 0, pretend = 0, frame = 0
	@ frame_needed = 0, uses_anonymous_args = 0
	push	{r3, r4, r5, r6, r7, r8, r10, lr}
	.cfi_def_cfa_offset 32
	.cfi_offset 3, -32
	.cfi_offset 4, -28
	.cfi_offset 5, -24
	.cfi_offset 6, -20
	.cfi_offset 7, -16
	.cfi_offset 8, -12
	.cfi_offset 10, -8
	.cfi_offset 14, -4
	.loc 4 180 0
	ldr	r8, .L1318+40
	ldr	r4, .L1318
	ldr	r3, [r8]
	.loc 4 184 0
	ldr	r7, .L1318+4
	.loc 4 186 0
	mov	r10, r4
	.loc 4 180 0
	str	r3, [r4, #8]
	.loc 4 181 0
	ldr	r3, .L1318+8
	ldr	r6, [r3]
	str	r6, [r4, #12]
.LVL1443:
	.loc 4 183 0
	bl	FtlBbtMemInit
.LVL1444:
	.loc 4 184 0
	ldrh	r5, [r7]
	subs	r5, r5, #1
	uxth	r5, r5
.LVL1445:
.L1290:
	.loc 4 184 0 is_stmt 0 discriminator 1
	ldrh	r3, [r7]
	subs	r3, r3, #15
	cmp	r3, r5
	bgt	.L1293
	.loc 4 185 0 is_stmt 1
	lsls	r3, r5, #10
	.loc 4 186 0
	movs	r2, #1
	mov	r1, r2
	mov	r0, r10
	.loc 4 185 0
	str	r3, [r4, #4]
	.loc 4 186 0
	bl	FlashReadPages
.LVL1446:
	.loc 4 187 0
	ldr	r3, [r4]
	adds	r3, r3, #1
	bne	.L1291
	.loc 4 188 0
	ldr	r3, [r4, #4]
	.loc 4 189 0
	movs	r2, #1
	mov	r1, r2
	mov	r0, r10
	.loc 4 188 0
	adds	r3, r3, #1
	str	r3, [r4, #4]
	.loc 4 189 0
	bl	FlashReadPages
.LVL1447:
.L1291:
	.loc 4 191 0
	ldr	r3, [r4]
	adds	r3, r3, #1
	beq	.L1292
	.loc 4 196 0
	ldrh	r2, [r6]
	movw	r3, #61649
	cmp	r2, r3
	bne	.L1292
	.loc 4 198 0
	ldr	r3, .L1318+12
	.loc 4 199 0
	ldr	r2, [r6, #4]
	.loc 4 198 0
	strh	r5, [r3]	@ movhi
	.loc 4 199 0
	str	r2, [r3, #8]
	.loc 4 200 0
	ldrh	r2, [r6, #8]
	strh	r2, [r3, #4]	@ movhi
.L1293:
	.loc 4 216 0
	ldr	r5, .L1318+12
.LVL1448:
	movw	r2, #65535
	ldrh	r3, [r5]
	cmp	r3, r2
	beq	.L1307
	.loc 4 222 0
	ldrh	r3, [r5, #4]
	cmp	r3, r2
	beq	.L1297
	.loc 4 224 0
	lsls	r3, r3, #10
	.loc 4 225 0
	movs	r2, #1
	mov	r1, r2
	ldr	r0, .L1318
	.loc 4 224 0
	str	r3, [r4, #4]
	.loc 4 225 0
	bl	FlashReadPages
.LVL1449:
	.loc 4 226 0
	ldr	r3, [r4]
	adds	r3, r3, #1
	beq	.L1297
	.loc 4 229 0
	ldrh	r2, [r6]
	movw	r3, #61649
	cmp	r2, r3
	bne	.L1297
	.loc 4 229 0 is_stmt 0 discriminator 1
	ldr	r3, [r6, #4]
	ldr	r2, [r5, #8]
	cmp	r3, r2
	bls	.L1297
	.loc 4 231 0 is_stmt 1
	ldrh	r2, [r5, #4]
	.loc 4 232 0
	str	r3, [r5, #8]
	.loc 4 233 0
	ldrh	r3, [r6, #8]
	.loc 4 231 0
	strh	r2, [r5]	@ movhi
	.loc 4 233 0
	strh	r3, [r5, #4]	@ movhi
.L1297:
	.loc 4 245 0
	ldr	r10, .L1318
	.loc 4 238 0
	movs	r1, #1
	ldrh	r0, [r5]
	bl	FtlGetLastWrittenPage
.LVL1450:
	sxth	r7, r0
.LVL1451:
	.loc 4 239 0
	adds	r0, r0, #1
	strh	r0, [r5, #2]	@ movhi
.L1299:
	.loc 4 241 0
	cmp	r7, #0
	bge	.L1302
	.loc 4 254 0
	movs	r2, #254
	ldr	r1, .L1318+16
	ldr	r0, .L1318+20
	bl	printf
.LVL1452:
.L1301:
	.loc 4 255 0
	ldrh	r3, [r6, #10]
	.loc 4 257 0
	ldrh	r0, [r6, #12]
	.loc 4 255 0
	strh	r3, [r5, #6]	@ movhi
	.loc 4 257 0
	movw	r3, #65535
	cmp	r0, r3
	beq	.L1304
	.loc 4 259 0
	ldr	r3, .L1318+24
	ldr	r2, [r3]
	cmp	r0, r2
	beq	.L1304
	.loc 4 259 0 is_stmt 0 discriminator 1
	ldr	r3, .L1318+28
	ldrh	r3, [r3]
	lsrs	r3, r3, #2
	cmp	r2, r3
	bcs	.L1304
	.loc 4 261 0 is_stmt 1
	cmp	r0, r3
	bcs	.L1304
	.loc 4 263 0
	bl	FtlSysBlkNumInit
.LVL1453:
.L1304:
	ldr	r6, .L1318+32
.LVL1454:
	.loc 4 173 0 discriminator 1
	movs	r5, #0
	.loc 4 268 0 discriminator 1
	ldr	r7, .L1318+36
.LVL1455:
	.loc 4 269 0 discriminator 1
	ldr	r8, .L1318+44
.L1305:
.LVL1456:
	.loc 4 268 0 discriminator 1
	ldrh	r3, [r7]
	cmp	r5, r3
	bcc	.L1306
	.loc 4 275 0
	movs	r0, #0
	pop	{r3, r4, r5, r6, r7, r8, r10, pc}
.LVL1457:
.L1292:
	.loc 4 184 0 discriminator 2
	subs	r5, r5, #1
.LVL1458:
	uxth	r5, r5
.LVL1459:
	b	.L1290
.LVL1460:
.L1302:
	.loc 4 243 0
	ldrh	r3, [r5]
	.loc 4 245 0
	movs	r2, #1
	mov	r1, r2
	mov	r0, r10
	.loc 4 243 0
	orr	r3, r7, r3, lsl #10
	str	r3, [r4, #4]
	.loc 4 244 0
	ldr	r3, [r8]
	str	r3, [r4, #8]
	.loc 4 245 0
	bl	FlashReadPages
.LVL1461:
	.loc 4 247 0
	ldr	r3, [r4]
	adds	r3, r3, #1
	beq	.L1300
	.loc 4 247 0 is_stmt 0 discriminator 1
	ldrh	r2, [r6]
	movw	r3, #61649
	cmp	r2, r3
	beq	.L1301
.L1300:
	subs	r7, r7, #1
.LVL1462:
	sxth	r7, r7
.LVL1463:
	b	.L1299
.LVL1464:
.L1306:
	.loc 4 269 0 is_stmt 1 discriminator 3
	ldrh	r2, [r8]
	ldr	r1, [r4, #8]
	ldr	r0, [r6, #4]!
	lsls	r2, r2, #2
	mla	r1, r5, r2, r1
	.loc 4 268 0 discriminator 3
	adds	r5, r5, #1
.LVL1465:
	.loc 4 269 0 discriminator 3
	bl	ftl_memcpy
.LVL1466:
	b	.L1305
.LVL1467:
.L1307:
	.loc 4 218 0
	mov	r0, #-1
	pop	{r3, r4, r5, r6, r7, r8, r10, pc}
.LVL1468:
.L1319:
	.align	2
.L1318:
	.word	.LANCHOR106
	.word	.LANCHOR17
	.word	.LANCHOR108
	.word	.LANCHOR37
	.word	.LANCHOR164
	.word	.LC1
	.word	.LANCHOR2
	.word	.LANCHOR6
	.word	.LANCHOR37+24
	.word	.LANCHOR10
	.word	.LANCHOR107
	.word	.LANCHOR137
	.cfi_endproc
.LFE232:
	.size	FtlLoadBbt, .-FtlLoadBbt
	.section	.text.FtlMakeBbt,"ax",%progbits
	.align	1
	.global	FtlMakeBbt
	.syntax unified
	.thumb
	.thumb_func
	.fpu softvfp
	.type	FtlMakeBbt, %function
FtlMakeBbt:
.LFB234:
	.loc 4 317 0
	.cfi_startproc
	@ args = 0, pretend = 0, frame = 8
	@ frame_needed = 0, uses_anonymous_args = 0
	push	{r0, r1, r4, r5, r6, r7, r8, r10, fp, lr}
	.cfi_def_cfa_offset 40
	.cfi_offset 4, -32
	.cfi_offset 5, -28
	.cfi_offset 6, -24
	.cfi_offset 7, -20
	.cfi_offset 8, -16
	.cfi_offset 10, -12
	.cfi_offset 11, -8
	.cfi_offset 14, -4
	.loc 4 327 0
	movs	r6, #0
	ldr	r7, .L1339
	.loc 4 325 0
	bl	FtlBbtMemInit
.LVL1469:
	sub	r8, r7, #18
	.loc 4 326 0
	bl	FtlLoadFactoryBbt
.LVL1470:
.L1321:
	.loc 4 327 0 discriminator 1
	ldr	r3, .L1339+4
