/*
 * Copyright (c) 2018 Fuzhou Rockchip Electronics Co., Ltd
 *
 * SPDX-License-Identifier:	GPL-2.0
 * date: 2018-07-13
 */
	.arch armv8-a+nosimd
	.file	"rk_sftl.c"
	.text
.Ltext0:
	.cfi_sections	.debug_frame
	.section	.text.l2p_addr_tran.isra.0,"ax",@progbits
	.align	2
	.type	l2p_addr_tran.isra.0, %function
l2p_addr_tran.isra.0:
.LFB349:
	.file 1 "drivers/rkflash/rksftl/sftl_flash.c"
	.loc 1 58 0
	.cfi_startproc
.LVL0:
	.loc 1 66 0
	adrp	x4, .LANCHOR0
	add	x4, x4, :lo12:.LANCHOR0
	ldrh	w3, [x4, 8]
.LVL1:
	.loc 1 67 0
	ldrh	w6, [x4, 10]
.LVL2:
	.loc 1 68 0
	ldrh	w4, [x4, 14]
	cmp	w4, 4
	bne	.L2
	.loc 1 69 0
	lsr	w3, w3, 1
.LVL3:
	.loc 1 70 0
	ubfiz	w6, w6, 1, 15
.LVL4:
.L2:
	.loc 1 74 0
	lsr	w5, w0, 10
.LVL5:
	.loc 1 78 0
	and	w0, w0, 1023
.LVL6:
	.loc 1 75 0
	and	w4, w5, 65535
	.loc 1 76 0
	and	w5, w5, 65535
.LVL7:
	.loc 1 75 0
	udiv	w4, w4, w3
.LVL8:
	.loc 1 76 0
	msub	w3, w3, w4, w5
.LVL9:
	.loc 1 78 0
	madd	w3, w3, w6, w0
	.loc 1 82 0
	mov	w0, 0
	.loc 1 78 0
	str	w3, [x1]
	.loc 1 79 0
	str	w4, [x2]
	.loc 1 82 0
	ret
	.cfi_endproc
.LFE349:
	.size	l2p_addr_tran.isra.0, .-l2p_addr_tran.isra.0
	.section	.text.ftl_set_blk_mode.part.6,"ax",@progbits
	.align	2
	.type	ftl_set_blk_mode.part.6, %function
ftl_set_blk_mode.part.6:
.LFB355:
	.file 2 "drivers/rkflash/rksftl/sftl_sys.c"
	.loc 2 1395 0
	.cfi_startproc
.LVL10:
	.loc 2 1395 0
	and	w0, w0, 65535
	.loc 2 1398 0
	adrp	x2, .LANCHOR1
	ubfx	x1, x0, 5, 11
	ldr	x3, [x2, #:lo12:.LANCHOR1]
	lsl	x1, x1, 2
	mov	w2, 1
	lsl	w2, w2, w0
	ldr	w0, [x3, x1]
.LVL11:
	orr	w0, w0, w2
	str	w0, [x3, x1]
	ret
	.cfi_endproc
.LFE355:
	.size	ftl_set_blk_mode.part.6, .-ftl_set_blk_mode.part.6
	.section	.text.Ftl_log2,"ax",@progbits
	.align	2
	.global	Ftl_log2
	.type	Ftl_log2, %function
Ftl_log2:
.LFB202:
	.file 3 "drivers/rkflash/rksftl/sftl_plat.c"
	.loc 3 128 0
	.cfi_startproc
.LVL12:
	.loc 3 130 0
	mov	w2, 1
	.loc 3 132 0
	mov	w1, 0
.LVL13:
.L5:
	.loc 3 132 0 is_stmt 0 discriminator 1
	cmp	w2, w0
	bls	.L6
.LVL14:
	.loc 3 134 0 is_stmt 1
	sub	w0, w1, #1
.LVL15:
	.loc 3 136 0
	ret
.LVL16:
.L6:
	.loc 3 132 0 discriminator 3
	add	w1, w1, 1
.LVL17:
	.loc 3 133 0 discriminator 3
	lsl	w2, w2, 1
.LVL18:
	.loc 3 132 0 discriminator 3
	and	w1, w1, 65535
.LVL19:
	b	.L5
	.cfi_endproc
.LFE202:
	.size	Ftl_log2, .-Ftl_log2
	.section	.text.FtlPrintInfo,"ax",@progbits
	.align	2
	.global	FtlPrintInfo
	.type	FtlPrintInfo, %function
FtlPrintInfo:
.LFB203:
	.loc 3 160 0
	.cfi_startproc
.LVL20:
	ret
	.cfi_endproc
.LFE203:
	.size	FtlPrintInfo, .-FtlPrintInfo
	.section	.text.FtlSysBlkNumInit,"ax",@progbits
	.align	2
	.global	FtlSysBlkNumInit
	.type	FtlSysBlkNumInit, %function
FtlSysBlkNumInit:
.LFB204:
	.loc 3 166 0
	.cfi_startproc
.LVL21:
	.loc 3 166 0
	and	w0, w0, 65535
	mov	w1, 24
	cmp	w0, 24
	.loc 3 170 0
	adrp	x2, .LANCHOR4
	csel	w0, w0, w1, cs
.LVL22:
	.loc 3 169 0
	adrp	x1, .LANCHOR2
	and	w0, w0, 65535
.LVL23:
	str	w0, [x1, #:lo12:.LANCHOR2]
	.loc 3 170 0
	adrp	x1, .LANCHOR3
	ldrh	w1, [x1, #:lo12:.LANCHOR3]
	mul	w1, w1, w0
	str	w1, [x2, #:lo12:.LANCHOR4]
	.loc 3 171 0
	adrp	x2, .LANCHOR6
	ldrh	w2, [x2, #:lo12:.LANCHOR6]
	sub	w0, w2, w0
.LVL24:
	adrp	x2, .LANCHOR5
	strh	w0, [x2, #:lo12:.LANCHOR5]
	.loc 3 172 0
	adrp	x0, .LANCHOR8
	ldr	w0, [x0, #:lo12:.LANCHOR8]
	sub	w1, w0, w1
	adrp	x0, .LANCHOR7
	str	w1, [x0, #:lo12:.LANCHOR7]
	.loc 3 175 0
	mov	w0, 0
	ret
	.cfi_endproc
.LFE204:
	.size	FtlSysBlkNumInit, .-FtlSysBlkNumInit
	.section	.text.FtlConstantsInit,"ax",@progbits
	.align	2
	.global	FtlConstantsInit
	.type	FtlConstantsInit, %function
FtlConstantsInit:
.LFB205:
	.loc 3 184 0
	.cfi_startproc
.LVL25:
	stp	x29, x30, [sp, -16]!
	.cfi_def_cfa_offset 16
	.cfi_offset 29, -16
	.cfi_offset 30, -8
	mov	x5, x0
	.loc 3 191 0
	adrp	x1, .LANCHOR11
	.loc 3 184 0
	add	x29, sp, 0
	.cfi_def_cfa_register 29
	.loc 3 189 0
	ldrh	w2, [x0]
	adrp	x0, .LANCHOR9
.LVL26:
	.loc 3 190 0
	ldrh	w4, [x5, 2]
	.loc 3 189 0
	strh	w2, [x0, #:lo12:.LANCHOR9]
	.loc 3 190 0
	adrp	x0, .LANCHOR10
	strh	w4, [x0, #:lo12:.LANCHOR10]
	.loc 3 191 0
	ldrh	w0, [x5, 4]
	strh	w0, [x1, #:lo12:.LANCHOR11]
	.loc 3 192 0
	ldrh	w1, [x5, 14]
	cmp	w1, 4
	bne	.L10
	.loc 3 193 0
	ldrh	w1, [x5, 6]
	adrp	x3, .LANCHOR6
	lsr	w1, w1, 1
	strh	w1, [x3, #:lo12:.LANCHOR6]
	.loc 3 194 0
	adrp	x1, .LANCHOR12
	mov	w3, 8
	strh	w3, [x1, #:lo12:.LANCHOR12]
.L10:
	.loc 3 198 0 discriminator 3
	adrp	x3, .LANCHOR13
	add	x3, x3, :lo12:.LANCHOR13
	.loc 3 184 0 discriminator 3
	mov	x1, 0
.L11:
.LVL27:
	.loc 3 198 0 discriminator 3
	strb	w1, [x1, x3]
.LVL28:
	add	x1, x1, 1
.LVL29:
	.loc 3 197 0 discriminator 3
	cmp	x1, 32
	bne	.L11
	.loc 3 199 0
	adrp	x1, .LANCHOR14
	mov	w3, 5
	.loc 3 201 0
	cmp	w2, 1
	.loc 3 199 0
	strh	w3, [x1, #:lo12:.LANCHOR14]
	.loc 3 200 0
	adrp	x3, .LANCHOR15
	strh	wzr, [x3, #:lo12:.LANCHOR15]
	.loc 3 201 0
	bne	.L12
	.loc 3 202 0
	strh	w2, [x1, #:lo12:.LANCHOR14]
.L12:
	.loc 3 203 0
	adrp	x1, .LANCHOR16
	mov	w2, 640
	.loc 3 205 0
	mul	w4, w4, w0
	.loc 3 203 0
	strh	w2, [x1, #:lo12:.LANCHOR16]
	.loc 3 205 0
	adrp	x1, .LANCHOR3
	and	w4, w4, 65535
	strh	w4, [x1, #:lo12:.LANCHOR3]
	.loc 3 206 0
	adrp	x1, .LANCHOR6
	ldrh	w3, [x1, #:lo12:.LANCHOR6]
	adrp	x1, .LANCHOR17
	mul	w0, w0, w3
	and	w0, w0, 65535
	strh	w0, [x1, #:lo12:.LANCHOR17]
	.loc 3 207 0
	bl	Ftl_log2
.LVL30:
	.loc 3 208 0
	ldrh	w7, [x5, 12]
	.loc 3 207 0
	adrp	x1, .LANCHOR18
	.loc 3 208 0
	adrp	x8, .LANCHOR19
	.loc 3 207 0
	strh	w0, [x1, #:lo12:.LANCHOR18]
	.loc 3 209 0
	adrp	x0, .LANCHOR20
	.loc 3 210 0
	mul	w1, w4, w7
	.loc 3 208 0
	strh	w7, [x8, #:lo12:.LANCHOR19]
	.loc 3 209 0
	strh	w7, [x0, #:lo12:.LANCHOR20]
	.loc 3 210 0
	adrp	x0, .LANCHOR21
	strh	w1, [x0, #:lo12:.LANCHOR21]
	.loc 3 211 0
	adrp	x0, .LANCHOR12
	ldrh	w6, [x0, #:lo12:.LANCHOR12]
	mov	w0, w6
	bl	Ftl_log2
.LVL31:
	and	w1, w0, 65535
	adrp	x2, .LANCHOR22
	.loc 3 213 0
	adrp	x10, .LANCHOR23
	.loc 3 215 0
	ldrh	w5, [x5, 20]
.LVL32:
	.loc 3 211 0
	strh	w0, [x2, #:lo12:.LANCHOR22]
	.loc 3 213 0
	ubfiz	w0, w6, 9, 7
	strh	w0, [x10, #:lo12:.LANCHOR23]
	.loc 3 214 0
	adrp	x10, .LANCHOR24
	ubfx	w0, w0, 8, 8
	strh	w0, [x10, #:lo12:.LANCHOR24]
	.loc 3 215 0
	adrp	x0, .LANCHOR25
	strh	w5, [x0, #:lo12:.LANCHOR25]
	.loc 3 217 0
	mul	w0, w4, w3
	adrp	x5, .LANCHOR8
	str	w0, [x5, #:lo12:.LANCHOR8]
	.loc 3 218 0
	adrp	x5, .LANCHOR26
	mul	w0, w0, w6
	.loc 3 219 0
	mul	w6, w6, w7
	.loc 3 218 0
	mul	w0, w0, w7
	mov	x7, x2
	asr	w0, w0, 11
	str	w0, [x5, #:lo12:.LANCHOR26]
	.loc 3 219 0
	mov	w0, 5120
	adrp	x5, .LANCHOR27
	sdiv	w0, w0, w6
	and	w0, w0, 65535
	.loc 3 220 0
	cmp	w0, 4
	bls	.L13
.L19:
	.loc 3 221 0
	strh	w0, [x5, #:lo12:.LANCHOR27]
	.loc 3 222 0
	adrp	x2, .LANCHOR28
	mov	w0, 640
	.loc 3 224 0
	lsl	w3, w3, 6
	.loc 3 222 0
	asr	w0, w0, w1
	add	w0, w0, 2
	.loc 3 224 0
	add	w1, w1, 9
	.loc 3 222 0
	strh	w0, [x2, #:lo12:.LANCHOR28]
	.loc 3 224 0
	adrp	x0, .LANCHOR29
	.loc 3 228 0
	cmp	w4, 1
	.loc 3 224 0
	asr	w3, w3, w1
	.loc 3 225 0
	adrp	x1, .LANCHOR30
	.loc 3 224 0
	strh	w3, [x0, #:lo12:.LANCHOR29]
	and	w3, w3, 65535
	adrp	x6, .LANCHOR2
	.loc 3 225 0
	mul	w0, w3, w4
	.loc 3 227 0
	add	w3, w3, 8
	.loc 3 225 0
	str	w0, [x1, #:lo12:.LANCHOR30]
	.loc 3 227 0
	ldrh	w0, [x5, #:lo12:.LANCHOR27]
	udiv	w0, w0, w4
	mov	x4, x1
	add	w3, w0, w3
	.loc 3 228 0
	beq	.L15
.L20:
	.loc 3 229 0
	str	w3, [x6, #:lo12:.LANCHOR2]
	.loc 3 232 0
	ldrh	w0, [x6, #:lo12:.LANCHOR2]
	bl	FtlSysBlkNumInit
.LVL33:
	.loc 3 233 0
	ldr	w1, [x6, #:lo12:.LANCHOR2]
	adrp	x0, .LANCHOR31
	.loc 3 264 0
	ldp	x29, x30, [sp], 16
	.cfi_remember_state
	.cfi_restore 30
	.cfi_restore 29
	.cfi_def_cfa 31, 0
	.loc 3 233 0
	str	w1, [x0, #:lo12:.LANCHOR31]
	.loc 3 235 0
	adrp	x0, .LANCHOR7
	ldrh	w1, [x8, #:lo12:.LANCHOR19]
	ldr	w0, [x0, #:lo12:.LANCHOR7]
	lsl	w0, w0, 2
	mul	w0, w0, w1
	ldrh	w1, [x7, #:lo12:.LANCHOR22]
	add	w1, w1, 9
	lsr	w0, w0, w1
	adrp	x1, .LANCHOR32
	add	w0, w0, 2
	strh	w0, [x1, #:lo12:.LANCHOR32]
	.loc 3 236 0
	adrp	x0, .LANCHOR33
	mov	w1, 32
	strh	w1, [x0, #:lo12:.LANCHOR33]
	.loc 3 237 0
	adrp	x0, .LANCHOR34
	str	wzr, [x0, #:lo12:.LANCHOR34]
	.loc 3 238 0
	ldrh	w0, [x5, #:lo12:.LANCHOR27]
	add	w0, w0, 3
	strh	w0, [x5, #:lo12:.LANCHOR27]
	.loc 3 239 0
	ldr	w0, [x4, #:lo12:.LANCHOR30]
	add	w0, w0, 3
	str	w0, [x4, #:lo12:.LANCHOR30]
	.loc 3 264 0
	mov	w0, 0
	ret
.L13:
	.cfi_restore_state
	.loc 3 221 0
	mov	w0, 4
	b	.L19
.L15:
	.loc 3 229 0
	add	w3, w3, 4
	b	.L20
	.cfi_endproc
.LFE205:
	.size	FtlConstantsInit, .-FtlConstantsInit
	.section	.text.IsBlkInVendorPart,"ax",@progbits
	.align	2
	.global	IsBlkInVendorPart
	.type	IsBlkInVendorPart, %function
IsBlkInVendorPart:
.LFB208:
	.loc 3 514 0
	.cfi_startproc
.LVL34:
	.loc 3 517 0
	adrp	x1, .LANCHOR35
	.loc 3 514 0
	and	w0, w0, 65535
	.loc 3 517 0
	ldrh	w1, [x1, #:lo12:.LANCHOR35]
	cbz	w1, .L25
.LBB185:
.LBB186:
	.loc 3 518 0
	adrp	x1, .LANCHOR27
	ldrh	w2, [x1, #:lo12:.LANCHOR27]
	.loc 3 519 0
	adrp	x1, .LANCHOR36
	ldr	x3, [x1, #:lo12:.LANCHOR36]
	mov	x1, 0
.L23:
.LVL35:
	.loc 3 518 0
	cmp	w2, w1, uxth
	bhi	.L24
.LVL36:
.L25:
.LBE186:
.LBE185:
	.loc 3 524 0
	mov	w0, 0
.LVL37:
	ret
.LVL38:
.L24:
	add	x1, x1, 1
.LVL39:
.LBB188:
.LBB187:
	.loc 3 519 0
	add	x4, x3, x1, lsl 1
	ldrh	w4, [x4, -2]
	cmp	w4, w0
	bne	.L23
	.loc 3 520 0
	mov	w0, 1
.LBE187:
.LBE188:
	.loc 3 525 0
	ret
	.cfi_endproc
.LFE208:
	.size	IsBlkInVendorPart, .-IsBlkInVendorPart
	.section	.text.FtlCacheWriteBack,"ax",@progbits
	.align	2
	.global	FtlCacheWriteBack
	.type	FtlCacheWriteBack, %function
FtlCacheWriteBack:
.LFB216:
	.loc 3 952 0
	.cfi_startproc
	.loc 3 954 0
	mov	w0, 0
	ret
	.cfi_endproc
.LFE216:
	.size	FtlCacheWriteBack, .-FtlCacheWriteBack
	.section	.text.sftl_get_density,"ax",@progbits
	.align	2
	.global	sftl_get_density
	.type	sftl_get_density, %function
sftl_get_density:
.LFB221:
	.loc 3 1178 0
	.cfi_startproc
	.loc 3 1180 0
	adrp	x0, .LANCHOR34
	ldr	w0, [x0, #:lo12:.LANCHOR34]
	ret
	.cfi_endproc
.LFE221:
	.size	sftl_get_density, .-sftl_get_density
	.section	.text.FtlBbmMapBadBlock,"ax",@progbits
	.align	2
	.global	FtlBbmMapBadBlock
	.type	FtlBbmMapBadBlock, %function
FtlBbmMapBadBlock:
.LFB222:
	.file 4 "drivers/rkflash/rksftl/sftl_bbm.c"
	.loc 4 5 0
	.cfi_startproc
.LVL40:
	stp	x29, x30, [sp, -32]!
	.cfi_def_cfa_offset 32
	.cfi_offset 29, -32
	.cfi_offset 30, -24
	and	w1, w0, 65535
	.loc 4 10 0
	adrp	x0, .LANCHOR17
.LVL41:
	.loc 4 15 0
	mov	w4, 1
	.loc 4 5 0
	add	x29, sp, 0
	.cfi_def_cfa_register 29
	.loc 4 10 0
	ldrh	w0, [x0, #:lo12:.LANCHOR17]
	.loc 4 5 0
	str	x19, [sp, 16]
	.cfi_offset 19, -16
	.loc 4 13 0
	adrp	x19, .LANCHOR37
	add	x19, x19, :lo12:.LANCHOR37
	.loc 4 10 0
	udiv	w3, w1, w0
	and	w2, w3, 65535
.LVL42:
	msub	w3, w3, w0, w1
	.loc 4 13 0
	add	x0, x19, x2, uxth 3
	and	w3, w3, 65535
.LVL43:
	.loc 4 15 0
	ldr	x0, [x0, 32]
	ubfx	x5, x3, 5, 11
	lsl	x5, x5, 2
	lsl	w4, w4, w3
	ldr	w6, [x0, x5]
	orr	w4, w4, w6
	str	w4, [x0, x5]
	.loc 4 16 0
	adrp	x0, .LC0
	add	x0, x0, :lo12:.LC0
	bl	printf
.LVL44:
	.loc 4 17 0
	ldrh	w0, [x19, 6]
	add	w0, w0, 1
	strh	w0, [x19, 6]
	.loc 4 19 0
	mov	w0, 0
	ldr	x19, [sp, 16]
	ldp	x29, x30, [sp], 32
	.cfi_restore 30
	.cfi_restore 29
	.cfi_restore 19
	.cfi_def_cfa 31, 0
	ret
	.cfi_endproc
.LFE222:
	.size	FtlBbmMapBadBlock, .-FtlBbmMapBadBlock
	.section	.text.FtlBbmIsBadBlock,"ax",@progbits
	.align	2
	.global	FtlBbmIsBadBlock
	.type	FtlBbmIsBadBlock, %function
FtlBbmIsBadBlock:
.LFB223:
	.loc 4 24 0
	.cfi_startproc
.LVL45:
	.loc 4 30 0
	adrp	x1, .LANCHOR17
	.loc 4 24 0
	and	w0, w0, 65535
	.loc 4 30 0
	ldrh	w1, [x1, #:lo12:.LANCHOR17]
.LVL46:
	.loc 4 31 0
	udiv	w2, w0, w1
	msub	w0, w2, w1, w0
.LVL47:
	.loc 4 33 0
	adrp	x1, .LANCHOR37
.LVL48:
	add	x1, x1, :lo12:.LANCHOR37
	add	x2, x1, x2, uxth 3
	.loc 4 31 0
	and	w0, w0, 65535
.LVL49:
	.loc 4 34 0
	ubfx	x3, x0, 5, 11
	ldr	x1, [x2, 32]
	ldr	w1, [x1, x3, lsl 2]
	lsr	w0, w1, w0
.LVL50:
	.loc 4 36 0
	and	w0, w0, 1
	ret
	.cfi_endproc
.LFE223:
	.size	FtlBbmIsBadBlock, .-FtlBbmIsBadBlock
	.section	.text.FtlBbtInfoPrint,"ax",@progbits
	.align	2
	.global	FtlBbtInfoPrint
	.type	FtlBbtInfoPrint, %function
FtlBbtInfoPrint:
.LFB224:
	.loc 4 39 0
	.cfi_startproc
	ret
	.cfi_endproc
.LFE224:
	.size	FtlBbtInfoPrint, .-FtlBbtInfoPrint
	.section	.text.FtlBbtCalcTotleCnt,"ax",@progbits
	.align	2
	.global	FtlBbtCalcTotleCnt
	.type	FtlBbtCalcTotleCnt, %function
FtlBbtCalcTotleCnt:
.LFB228:
	.loc 4 157 0
	.cfi_startproc
.LVL51:
	.loc 4 160 0
	adrp	x0, .LANCHOR17
	mov	w4, 0
	.loc 4 159 0
	mov	w5, 0
.LVL52:
	.loc 4 160 0
	ldrh	w6, [x0, #:lo12:.LANCHOR17]
	adrp	x0, .LANCHOR10
	ldrh	w0, [x0, #:lo12:.LANCHOR10]
	mul	w6, w6, w0
	cmp	w4, w6
	blt	.L43
	.loc 4 169 0
	mov	w0, w5
	ret
.L43:
	.loc 4 157 0
	stp	x29, x30, [sp, -16]!
	.cfi_def_cfa_offset 16
	.cfi_offset 29, -16
	.cfi_offset 30, -8
	add	x29, sp, 0
	.cfi_def_cfa_register 29
.L36:
	.loc 4 162 0
	mov	w0, w4
	bl	FtlBbmIsBadBlock
.LVL53:
	cbz	w0, .L35
	.loc 4 164 0
	add	w5, w5, 1
.LVL54:
	and	w5, w5, 65535
.LVL55:
.L35:
	.loc 4 160 0 discriminator 2
	add	w4, w4, 1
.LVL56:
	and	w4, w4, 65535
.LVL57:
	cmp	w4, w6
	blt	.L36
	.loc 4 169 0
	mov	w0, w5
	ldp	x29, x30, [sp], 16
	.cfi_restore 30
	.cfi_restore 29
	.cfi_def_cfa 31, 0
	ret
	.cfi_endproc
.LFE228:
	.size	FtlBbtCalcTotleCnt, .-FtlBbtCalcTotleCnt
	.section	.text.V2P_block,"ax",@progbits
	.align	2
	.global	V2P_block
	.type	V2P_block, %function
V2P_block:
.LFB232:
	.loc 2 5 0
	.cfi_startproc
.LVL58:
	.loc 2 8 0
	adrp	x2, .LANCHOR11
	.loc 2 5 0
	and	w0, w0, 65535
	.loc 2 8 0
	adrp	x4, .LANCHOR17
	.loc 2 5 0
	and	w1, w1, 65535
	.loc 2 8 0
	ldrh	w2, [x2, #:lo12:.LANCHOR11]
.LVL59:
	ldrh	w4, [x4, #:lo12:.LANCHOR17]
	udiv	w3, w0, w2
	msub	w0, w3, w2, w0
.LVL60:
	madd	w2, w2, w1, w0
.LVL61:
	madd	w0, w3, w4, w2
	.loc 2 10 0
	ret
	.cfi_endproc
.LFE232:
	.size	V2P_block, .-V2P_block
	.section	.text.P2V_plane,"ax",@progbits
	.align	2
	.global	P2V_plane
	.type	P2V_plane, %function
P2V_plane:
.LFB233:
	.loc 2 13 0
	.cfi_startproc
.LVL62:
	.loc 2 13 0
	and	w3, w0, 65535
	.loc 2 16 0
	adrp	x0, .LANCHOR11
.LVL63:
	ldrh	w1, [x0, #:lo12:.LANCHOR11]
.LVL64:
	adrp	x0, .LANCHOR17
	ldrh	w2, [x0, #:lo12:.LANCHOR17]
	udiv	w0, w3, w1
	udiv	w2, w3, w2
	msub	w0, w0, w1, w3
	madd	w0, w1, w2, w0
	.loc 2 18 0
	ret
	.cfi_endproc
.LFE233:
	.size	P2V_plane, .-P2V_plane
	.section	.text.P2V_block_in_plane,"ax",@progbits
	.align	2
	.global	P2V_block_in_plane
	.type	P2V_block_in_plane, %function
P2V_block_in_plane:
.LFB234:
	.loc 2 21 0
	.cfi_startproc
.LVL65:
	.loc 2 21 0
	and	w2, w0, 65535
	.loc 2 24 0
	adrp	x0, .LANCHOR17
.LVL66:
	ldrh	w1, [x0, #:lo12:.LANCHOR17]
	udiv	w0, w2, w1
	msub	w0, w0, w1, w2
	.loc 2 25 0
	adrp	x1, .LANCHOR11
	ldrh	w1, [x1, #:lo12:.LANCHOR11]
	.loc 2 24 0
	and	w0, w0, 65535
.LVL67:
	.loc 2 27 0
	udiv	w0, w0, w1
.LVL68:
	ret
	.cfi_endproc
.LFE234:
	.size	P2V_block_in_plane, .-P2V_block_in_plane
	.section	.text.ftl_cmp_data_ver,"ax",@progbits
	.align	2
	.global	ftl_cmp_data_ver
	.type	ftl_cmp_data_ver, %function
ftl_cmp_data_ver:
.LFB235:
	.loc 2 31 0
	.cfi_startproc
.LVL69:
	.loc 2 34 0
	cmp	w0, w1
	mov	w2, -2147483648
	bls	.L48
	.loc 2 36 0
	sub	w1, w0, w1
.LVL70:
	cmp	w1, w2
	cset	w0, ls
.LVL71:
	ret
.LVL72:
.L48:
	.loc 2 40 0
	sub	w1, w1, w0
.LVL73:
	cmp	w1, w2
	cset	w0, hi
.LVL74:
	.loc 2 44 0
	ret
	.cfi_endproc
.LFE235:
	.size	ftl_cmp_data_ver, .-ftl_cmp_data_ver
	.section	.text.FtlFreeSysBlkQueueEmpty,"ax",@progbits
	.align	2
	.global	FtlFreeSysBlkQueueEmpty
	.type	FtlFreeSysBlkQueueEmpty, %function
FtlFreeSysBlkQueueEmpty:
.LFB238:
	.loc 2 88 0
	.cfi_startproc
	.loc 2 89 0
	adrp	x0, .LANCHOR38+6
	ldrh	w0, [x0, #:lo12:.LANCHOR38+6]
	cmp	w0, 0
	.loc 2 90 0
	cset	w0, eq
	ret
	.cfi_endproc
.LFE238:
	.size	FtlFreeSysBlkQueueEmpty, .-FtlFreeSysBlkQueueEmpty
	.section	.text.FtlFreeSysBlkQueueFull,"ax",@progbits
	.align	2
	.global	FtlFreeSysBlkQueueFull
	.type	FtlFreeSysBlkQueueFull, %function
FtlFreeSysBlkQueueFull:
.LFB239:
	.loc 2 93 0
	.cfi_startproc
	.loc 2 94 0
	adrp	x0, .LANCHOR38+6
	ldrh	w0, [x0, #:lo12:.LANCHOR38+6]
	cmp	w0, 1024
	.loc 2 95 0
	cset	w0, eq
	ret
	.cfi_endproc
.LFE239:
	.size	FtlFreeSysBlkQueueFull, .-FtlFreeSysBlkQueueFull
	.section	.text.FtlFreeSysBLkSort,"ax",@progbits
	.align	2
	.global	FtlFreeSysBLkSort
	.type	FtlFreeSysBLkSort, %function
FtlFreeSysBLkSort:
.LFB241:
	.loc 2 118 0
	.cfi_startproc
.LVL75:
	.loc 2 123 0
	adrp	x0, .LANCHOR38
	add	x1, x0, :lo12:.LANCHOR38
	ldrh	w2, [x1, 6]
	cbz	w2, .L52
	.loc 2 119 0
	adrp	x2, .LANCHOR39+28
	ldrh	w3, [x1, 2]
	mov	w6, 0
	mov	w4, 0
	ldrh	w5, [x2, #:lo12:.LANCHOR39+28]
	ldrh	w2, [x1, 4]
	and	w5, w5, 31
.L54:
.LVL76:
	.loc 2 124 0 discriminator 1
	cmp	w5, w4
	bgt	.L55
	cbz	w6, .L52
	add	x0, x0, :lo12:.LANCHOR38
	strh	w3, [x0, 2]
	strh	w2, [x0, 4]
.LVL77:
.L52:
	ret
.LVL78:
.L55:
	.loc 2 125 0 discriminator 3
	add	x6, x1, x3, sxtw 1
	.loc 2 124 0 discriminator 3
	add	w4, w4, 1
.LVL79:
	.loc 2 126 0 discriminator 3
	add	w3, w3, 1
	.loc 2 124 0 discriminator 3
	and	w4, w4, 65535
	.loc 2 126 0 discriminator 3
	and	w3, w3, 1023
	.loc 2 125 0 discriminator 3
	ldrh	w7, [x6, 8]
.LVL80:
	.loc 2 127 0 discriminator 3
	add	x6, x1, x2, sxtw 1
	strh	w7, [x6, 8]
	mov	w6, 1
	.loc 2 128 0 discriminator 3
	add	w2, w2, w6
	and	w2, w2, 1023
	b	.L54
	.cfi_endproc
.LFE241:
	.size	FtlFreeSysBLkSort, .-FtlFreeSysBLkSort
	.section	.text.IsInFreeQueue,"ax",@progbits
	.align	2
	.global	IsInFreeQueue
	.type	IsInFreeQueue, %function
IsInFreeQueue:
.LFB242:
	.loc 2 163 0
	.cfi_startproc
.LVL81:
.LBB189:
.LBB190:
	.loc 2 94 0
	adrp	x1, .LANCHOR38
	add	x1, x1, :lo12:.LANCHOR38
.LBE190:
.LBE189:
	.loc 2 163 0
	and	w0, w0, 65535
.LBB192:
.LBB191:
	.loc 2 94 0
	ldrh	w4, [x1, 6]
.LBE191:
.LBE192:
	.loc 2 168 0
	cmp	w4, 1024
	beq	.L65
	.loc 2 171 0
	ldrh	w5, [x1, 2]
	mov	w3, 0
.L63:
.LVL82:
	.loc 2 170 0 discriminator 1
	cmp	w3, w4
	bcc	.L64
.LVL83:
.L65:
	.loc 2 164 0
	mov	w0, 0
.LVL84:
	ret
.LVL85:
.L64:
	.loc 2 171 0
	add	w2, w3, w5
	ubfiz	x2, x2, 1, 10
	add	x2, x1, x2
	ldrh	w2, [x2, 8]
	cmp	w2, w0
	beq	.L66
	.loc 2 170 0 discriminator 2
	add	w3, w3, 1
.LVL86:
	b	.L63
.L66:
	.loc 2 172 0
	mov	w0, 1
.LVL87:
	.loc 2 178 0
	ret
	.cfi_endproc
.LFE242:
	.size	IsInFreeQueue, .-IsInFreeQueue
	.section	.text.insert_data_list,"ax",@progbits
	.align	2
	.global	insert_data_list
	.type	insert_data_list, %function
insert_data_list:
.LFB246:
	.loc 2 249 0
	.cfi_startproc
.LVL88:
	.loc 2 260 0
	adrp	x1, .LANCHOR5
	.loc 2 249 0
	and	w0, w0, 65535
	.loc 2 260 0
	ldrh	w14, [x1, #:lo12:.LANCHOR5]
	cmp	w14, w0
	bls	.L83
	.loc 2 265 0
	adrp	x1, .LANCHOR40
	mov	w3, 6
	ldr	x6, [x1, #:lo12:.LANCHOR40]
	umull	x13, w0, w3
	.loc 2 266 0
	mov	w1, -1
	.loc 2 265 0
	add	x5, x6, x13
.LVL89:
	.loc 2 266 0
	strh	w1, [x5, 2]
	strh	w1, [x6, x13]
	.loc 2 268 0
	adrp	x1, .LANCHOR41
	mov	x15, x1
	ldr	x12, [x1, #:lo12:.LANCHOR41]
	cbnz	x12, .L70
	.loc 2 269 0
	str	x5, [x1, #:lo12:.LANCHOR41]
.LVL90:
.L83:
	.loc 2 323 0
	mov	w0, 0
.LVL91:
	ret
.LVL92:
.L70:
	.loc 2 249 0
	stp	x29, x30, [sp, -32]!
	.cfi_def_cfa_offset 32
	.cfi_offset 29, -32
	.cfi_offset 30, -24
	.loc 2 273 0
	adrp	x1, .LANCHOR42
	ubfiz	x2, x0, 1, 16
	.loc 2 279 0
	mov	x4, -6148914691236517206
	.loc 2 249 0
	add	x29, sp, 0
	.cfi_def_cfa_register 29
	.loc 2 273 0
	ldr	x16, [x1, #:lo12:.LANCHOR42]
	.loc 2 279 0
	movk	x4, 0xaaab, lsl 0
	.loc 2 274 0
	ldrh	w1, [x5, 4]
	mov	w8, -1
	.loc 2 289 0
	mov	w11, w8
	.loc 2 249 0
	stp	x19, x20, [sp, 16]
	.cfi_offset 19, -16
	.cfi_offset 20, -8
	.loc 2 274 0
	cmp	w1, 0
	.loc 2 301 0
	mov	w20, 65535
	.loc 2 273 0
	ldrh	w7, [x16, x2]
.LVL93:
	.loc 2 274 0
	mul	w7, w7, w1
.LVL94:
	.loc 2 279 0
	sub	x1, x12, x6
.LVL95:
	asr	x1, x1, 1
	.loc 2 274 0
	csel	w7, w7, w8, ne
.LVL96:
	.loc 2 309 0
	mov	w8, w3
	.loc 2 279 0
	mul	x1, x1, x4
	.loc 2 294 0
	adrp	x4, .LANCHOR43
	ldr	x17, [x4, #:lo12:.LANCHOR43]
	.loc 2 279 0
	and	w1, w1, 65535
.LVL97:
	.loc 2 294 0
	mov	x4, x12
	add	x10, x17, x2
	.loc 2 256 0
	mov	w2, 0
.LVL98:
.L78:
	.loc 2 281 0
	add	w2, w2, 1
.LVL99:
	and	w2, w2, 65535
.LVL100:
	.loc 2 282 0
	cmp	w14, w2
	bcc	.L69
	.loc 2 285 0
	cmp	w1, w0
	beq	.L69
	.loc 2 288 0
	ubfiz	x30, x1, 1, 16
	.loc 2 289 0
	ldrh	w19, [x4, 4]
	cmp	w19, 0
	.loc 2 288 0
	ldrh	w3, [x16, x30]
.LVL101:
	.loc 2 289 0
	mul	w3, w3, w19
.LVL102:
	csel	w3, w3, w11, ne
.LVL103:
	.loc 2 293 0
	cmp	w7, w3
	bne	.L74
	.loc 2 294 0
	ldrh	w19, [x17, x30]
	ldrh	w3, [x10]
.LVL104:
	cmp	w19, w3
	bcc	.L76
.L75:
	.loc 2 312 0
	strh	w1, [x6, x13]
.LVL105:
	.loc 2 315 0
	cmp	x4, x12
	.loc 2 313 0
	ldrh	w1, [x4, 2]
.LVL106:
	strh	w1, [x5, 2]
	.loc 2 315 0
	bne	.L79
	.loc 2 316 0
	strh	w0, [x4, 2]
	.loc 2 317 0
	str	x5, [x15, #:lo12:.LANCHOR41]
	b	.L69
.LVL107:
.L74:
	.loc 2 298 0
	bcc	.L75
.LVL108:
.L76:
	.loc 2 301 0
	ldrh	w3, [x4]
	cmp	w3, w20
	bne	.L77
	.loc 2 302 0
	strh	w1, [x5, 2]
.LVL109:
	.loc 2 303 0
	strh	w0, [x4]
	.loc 2 304 0
	adrp	x0, .LANCHOR44
	str	x5, [x0, #:lo12:.LANCHOR44]
.LVL110:
.L69:
	.loc 2 323 0
	mov	w0, 0
	ldp	x19, x20, [sp, 16]
	ldp	x29, x30, [sp], 32
	.cfi_remember_state
	.cfi_restore 30
	.cfi_restore 29
	.cfi_restore 19
	.cfi_restore 20
	.cfi_def_cfa 31, 0
	ret
.LVL111:
.L77:
	.cfi_restore_state
	.loc 2 309 0
	umaddl	x4, w3, w8, x6
.LVL112:
	.loc 2 281 0
	mov	w1, w3
	b	.L78
.LVL113:
.L79:
	.loc 2 319 0
	ldrh	w1, [x4, 2]
	mov	w2, 6
.LVL114:
	umull	x1, w1, w2
	strh	w0, [x6, x1]
.LVL115:
	.loc 2 320 0
	strh	w0, [x4, 2]
	b	.L69
	.cfi_endproc
.LFE246:
	.size	insert_data_list, .-insert_data_list
	.section	.text.INSERT_DATA_LIST,"ax",@progbits
	.align	2
	.global	INSERT_DATA_LIST
	.type	INSERT_DATA_LIST, %function
INSERT_DATA_LIST:
.LFB245:
	.loc 2 218 0
	.cfi_startproc
.LVL116:
	stp	x29, x30, [sp, -16]!
	.cfi_def_cfa_offset 16
	.cfi_offset 29, -16
	.cfi_offset 30, -8
	add	x29, sp, 0
	.cfi_def_cfa_register 29
	.loc 2 219 0
	bl	insert_data_list
.LVL117:
	.loc 2 220 0
	adrp	x1, .LANCHOR45
	ldrh	w0, [x1, #:lo12:.LANCHOR45]
	add	w0, w0, 1
	and	w0, w0, 65535
	strh	w0, [x1, #:lo12:.LANCHOR45]
	.loc 2 221 0
	adrp	x1, .LANCHOR5
	ldrh	w1, [x1, #:lo12:.LANCHOR5]
	cmp	w1, w0
	bcs	.L85
.LVL118:
	.loc 2 222 0
	ldp	x29, x30, [sp], 16
	.cfi_remember_state
	.cfi_restore 30
	.cfi_restore 29
	.cfi_def_cfa 31, 0
.LBB195:
.LBB196:
	.loc 2 221 0
	mov	w2, 221
	adrp	x1, .LANCHOR46
	adrp	x0, .LC1
	add	x1, x1, :lo12:.LANCHOR46
	add	x0, x0, :lo12:.LC1
	b	printf
.LVL119:
.L85:
	.cfi_restore_state
.LBE196:
.LBE195:
	.loc 2 222 0
	ldp	x29, x30, [sp], 16
	.cfi_restore 30
	.cfi_restore 29
	.cfi_def_cfa 31, 0
	ret
	.cfi_endproc
.LFE245:
	.size	INSERT_DATA_LIST, .-INSERT_DATA_LIST
	.section	.text.insert_free_list,"ax",@progbits
	.align	2
	.global	insert_free_list
	.type	insert_free_list, %function
insert_free_list:
.LFB247:
	.loc 2 326 0
	.cfi_startproc
.LVL120:
	.loc 2 326 0
	and	w0, w0, 65535
	.loc 2 332 0
	mov	w7, 65535
	cmp	w0, w7
	beq	.L89
	.loc 2 335 0
	adrp	x1, .LANCHOR40
	mov	w6, 6
	ldr	x3, [x1, #:lo12:.LANCHOR40]
	umull	x8, w0, w6
	.loc 2 336 0
	mov	w1, -1
	.loc 2 335 0
	add	x4, x3, x8
.LVL121:
	.loc 2 336 0
	strh	w1, [x4, 2]
	strh	w1, [x3, x8]
	.loc 2 338 0
	adrp	x1, .LANCHOR47
	mov	x12, x1
	ldr	x5, [x1, #:lo12:.LANCHOR47]
	cbnz	x5, .L90
	.loc 2 339 0
	str	x4, [x1, #:lo12:.LANCHOR47]
.LVL122:
.L89:
	.loc 2 372 0
	mov	w0, 0
.LVL123:
	ret
.LVL124:
.L90:
	.loc 2 343 0
	adrp	x1, .LANCHOR43
	.loc 2 345 0
	mov	x2, -6148914691236517206
	movk	x2, 0xaaab, lsl 0
	.loc 2 343 0
	ldr	x11, [x1, #:lo12:.LANCHOR43]
	ubfiz	x1, x0, 1, 16
	ldrh	w13, [x11, x1]
.LVL125:
	.loc 2 345 0
	sub	x1, x5, x3
	asr	x1, x1, 1
	mul	x1, x1, x2
	mov	x2, x5
	and	w1, w1, 65535
.LVL126:
.L93:
	.loc 2 348 0
	ubfiz	x10, x1, 1, 16
	.loc 2 349 0
	ldrh	w10, [x11, x10]
	cmp	w10, w13
	bcs	.L91
	.loc 2 352 0
	ldrh	w10, [x2]
	cmp	w10, w7
	bne	.L92
	.loc 2 353 0
	strh	w1, [x4, 2]
.LVL127:
	.loc 2 354 0
	strh	w0, [x2]
	.loc 2 355 0
	b	.L89
.LVL128:
.L92:
	.loc 2 358 0
	umaddl	x2, w10, w6, x3
.LVL129:
	.loc 2 348 0
	mov	w1, w10
.LVL130:
	b	.L93
.LVL131:
.L91:
	.loc 2 361 0
	ldrh	w6, [x2, 2]
	.loc 2 364 0
	cmp	x2, x5
	.loc 2 361 0
	strh	w6, [x4, 2]
.LVL132:
	.loc 2 362 0
	strh	w1, [x3, x8]
	.loc 2 364 0
	bne	.L94
	.loc 2 365 0
	strh	w0, [x2, 2]
	.loc 2 366 0
	str	x4, [x12, #:lo12:.LANCHOR47]
	b	.L89
.L94:
	.loc 2 368 0
	ldrh	w1, [x2, 2]
.LVL133:
	mov	w4, 6
.LVL134:
	umull	x1, w1, w4
	strh	w0, [x3, x1]
.LVL135:
	.loc 2 369 0
	strh	w0, [x2, 2]
	b	.L89
	.cfi_endproc
.LFE247:
	.size	insert_free_list, .-insert_free_list
	.section	.text.INSERT_FREE_LIST,"ax",@progbits
	.align	2
	.global	INSERT_FREE_LIST
	.type	INSERT_FREE_LIST, %function
INSERT_FREE_LIST:
.LFB244:
	.loc 2 211 0
	.cfi_startproc
.LVL136:
	stp	x29, x30, [sp, -16]!
	.cfi_def_cfa_offset 16
	.cfi_offset 29, -16
	.cfi_offset 30, -8
	add	x29, sp, 0
	.cfi_def_cfa_register 29
	.loc 2 212 0
	bl	insert_free_list
.LVL137:
	.loc 2 213 0
	adrp	x1, .LANCHOR48
	ldrh	w0, [x1, #:lo12:.LANCHOR48]
	add	w0, w0, 1
	and	w0, w0, 65535
	strh	w0, [x1, #:lo12:.LANCHOR48]
	.loc 2 214 0
	adrp	x1, .LANCHOR5
	ldrh	w1, [x1, #:lo12:.LANCHOR5]
	cmp	w1, w0
	bcs	.L95
.LVL138:
	.loc 2 215 0
	ldp	x29, x30, [sp], 16
	.cfi_remember_state
	.cfi_restore 30
	.cfi_restore 29
	.cfi_def_cfa 31, 0
.LBB199:
.LBB200:
	.loc 2 214 0
	mov	w2, 214
	adrp	x1, .LANCHOR49
	adrp	x0, .LC1
	add	x1, x1, :lo12:.LANCHOR49
	add	x0, x0, :lo12:.LC1
	b	printf
.LVL139:
.L95:
	.cfi_restore_state
.LBE200:
.LBE199:
	.loc 2 215 0
	ldp	x29, x30, [sp], 16
	.cfi_restore 30
	.cfi_restore 29
	.cfi_def_cfa 31, 0
	ret
	.cfi_endproc
.LFE244:
	.size	INSERT_FREE_LIST, .-INSERT_FREE_LIST
	.section	.text.List_remove_node,"ax",@progbits
	.align	2
	.global	List_remove_node
	.type	List_remove_node, %function
List_remove_node:
.LFB248:
	.loc 2 375 0
	.cfi_startproc
.LVL140:
	stp	x29, x30, [sp, -64]!
	.cfi_def_cfa_offset 64
	.cfi_offset 29, -64
	.cfi_offset 30, -56
	and	w1, w1, 65535
	add	x29, sp, 0
	.cfi_def_cfa_register 29
	stp	x19, x20, [sp, 16]
	.cfi_offset 19, -48
	.cfi_offset 20, -40
	.loc 2 378 0
	adrp	x20, .LANCHOR40
	.loc 2 375 0
	stp	x21, x22, [sp, 32]
	.cfi_offset 21, -32
	.cfi_offset 22, -24
	mov	x22, x0
	.loc 2 378 0
	mov	w0, 6
.LVL141:
	.loc 2 375 0
	str	x23, [sp, 48]
	.cfi_offset 23, -16
	.loc 2 378 0
	ldr	x23, [x20, #:lo12:.LANCHOR40]
	umull	x21, w1, w0
	.loc 2 379 0
	mov	w0, 65535
	.loc 2 378 0
	add	x19, x23, x21
.LVL142:
	.loc 2 379 0
	ldrh	w1, [x19, 2]
.LVL143:
	cmp	w1, w0
	bne	.L99
	.loc 2 379 0 is_stmt 0 discriminator 1
	ldr	x0, [x22]
	cmp	x19, x0
	beq	.L99
	.loc 2 379 0 discriminator 2
	adrp	x1, .LANCHOR50
	adrp	x0, .LC1
	mov	w2, 379
	add	x1, x1, :lo12:.LANCHOR50
	add	x0, x0, :lo12:.LC1
	bl	printf
.LVL144:
.L99:
	.loc 2 381 0 is_stmt 1
	ldr	x0, [x22]
	mov	w1, 65535
	cmp	x19, x0
	ldrh	w0, [x23, x21]
	bne	.L100
	.loc 2 382 0
	cmp	w0, w1
	bne	.L101
	.loc 2 383 0
	str	xzr, [x22]
.L102:
	.loc 2 399 0
	mov	w0, -1
	strh	w0, [x23, x21]
	strh	w0, [x19, 2]
	.loc 2 401 0
	mov	w0, 0
	ldp	x19, x20, [sp, 16]
.LVL145:
	ldp	x21, x22, [sp, 32]
.LVL146:
	ldr	x23, [sp, 48]
.LVL147:
	ldp	x29, x30, [sp], 64
	.cfi_remember_state
	.cfi_restore 30
	.cfi_restore 29
	.cfi_restore 23
	.cfi_restore 21
	.cfi_restore 22
	.cfi_restore 19
	.cfi_restore 20
	.cfi_def_cfa 31, 0
	ret
.LVL148:
.L101:
	.cfi_restore_state
	.loc 2 385 0
	ldr	x1, [x20, #:lo12:.LANCHOR40]
	mov	w2, 6
	umaddl	x0, w0, w2, x1
	.loc 2 386 0
	mov	w1, -1
	.loc 2 385 0
	str	x0, [x22]
	.loc 2 386 0
	strh	w1, [x0, 2]
	b	.L102
.L100:
	.loc 2 388 0
	cmp	w0, w1
	ldrh	w1, [x19, 2]
	bne	.L103
	.loc 2 389 0
	cmp	w1, w0
	beq	.L102
.LVL149:
	.loc 2 390 0
	mov	w0, 6
	.loc 2 391 0
	mov	w2, -1
	.loc 2 390 0
	umull	x1, w1, w0
.LVL150:
	.loc 2 391 0
	ldr	x0, [x20, #:lo12:.LANCHOR40]
	strh	w2, [x0, x1]
	b	.L102
.LVL151:
.L103:
	.loc 2 394 0
	ldr	x2, [x20, #:lo12:.LANCHOR40]
.LVL152:
	mov	w3, 6
	.loc 2 395 0
	umaddl	x4, w0, w3, x2
	strh	w1, [x4, 2]
.LVL153:
	.loc 2 396 0
	ldrh	w1, [x19, 2]
	umull	x1, w1, w3
	.loc 2 397 0
	strh	w0, [x2, x1]
	b	.L102
	.cfi_endproc
.LFE248:
	.size	List_remove_node, .-List_remove_node
	.section	.text.List_pop_index_node,"ax",@progbits
	.align	2
	.global	List_pop_index_node
	.type	List_pop_index_node, %function
List_pop_index_node:
.LFB249:
	.loc 2 404 0
	.cfi_startproc
.LVL154:
	.loc 2 408 0
	ldr	x2, [x0]
	cbz	x2, .L111
	.loc 2 404 0
	stp	x29, x30, [sp, -32]!
	.cfi_def_cfa_offset 32
	.cfi_offset 29, -32
	.cfi_offset 30, -24
	.loc 2 413 0
	adrp	x3, .LANCHOR40
	and	w1, w1, 65535
	.loc 2 412 0
	mov	w4, 65535
	.loc 2 404 0
	add	x29, sp, 0
	.cfi_def_cfa_register 29
	str	x19, [sp, 16]
	.cfi_offset 19, -16
	.loc 2 413 0
	mov	w5, 6
	ldr	x19, [x3, #:lo12:.LANCHOR40]
.LVL155:
.L107:
	.loc 2 412 0
	cbnz	w1, .L108
.L110:
	.loc 2 416 0
	sub	x19, x2, x19
	mov	x2, -6148914691236517206
.LVL156:
	asr	x19, x19, 1
	movk	x2, 0xaaab, lsl 0
	mul	x19, x19, x2
	and	w19, w19, 65535
.LVL157:
	.loc 2 417 0
	mov	w1, w19
.LVL158:
	bl	List_remove_node
.LVL159:
	.loc 2 419 0
	mov	w0, w19
	.loc 2 420 0
	ldr	x19, [sp, 16]
.LVL160:
	ldp	x29, x30, [sp], 32
	.cfi_remember_state
	.cfi_restore 30
	.cfi_restore 29
	.cfi_restore 19
	.cfi_def_cfa 31, 0
	ret
.LVL161:
.L108:
	.cfi_restore_state
	.loc 2 412 0 discriminator 1
	ldrh	w3, [x2]
	cmp	w3, w4
	beq	.L110
	.loc 2 414 0
	sub	w1, w1, #1
.LVL162:
	.loc 2 413 0
	umaddl	x2, w3, w5, x19
.LVL163:
	.loc 2 414 0
	and	w1, w1, 65535
.LVL164:
	b	.L107
.LVL165:
.L111:
	.cfi_def_cfa 31, 0
	.cfi_restore 19
	.cfi_restore 29
	.cfi_restore 30
	.loc 2 409 0
	mov	w0, 65535
.LVL166:
	ret
	.cfi_endproc
.LFE249:
	.size	List_pop_index_node, .-List_pop_index_node
	.section	.text.List_pop_head_node,"ax",@progbits
	.align	2
	.global	List_pop_head_node
	.type	List_pop_head_node, %function
List_pop_head_node:
.LFB250:
	.loc 2 423 0
	.cfi_startproc
.LVL167:
	.loc 2 424 0
	mov	w1, 0
	b	List_pop_index_node
.LVL168:
	.cfi_endproc
.LFE250:
	.size	List_pop_head_node, .-List_pop_head_node
	.section	.text.List_get_gc_head_node,"ax",@progbits
	.align	2
	.global	List_get_gc_head_node
	.type	List_get_gc_head_node, %function
List_get_gc_head_node:
.LFB251:
	.loc 2 428 0
	.cfi_startproc
.LVL169:
	.loc 2 428 0
	and	w2, w0, 65535
	.loc 2 432 0
	adrp	x0, .LANCHOR41
.LVL170:
	ldr	x1, [x0, #:lo12:.LANCHOR41]
	cbz	x1, .L122
	.loc 2 437 0
	adrp	x0, .LANCHOR40
	mov	w4, 6
	ldr	x3, [x0, #:lo12:.LANCHOR40]
	.loc 2 436 0
	mov	w0, 65535
.LVL171:
.L119:
	cbz	w2, .L120
	.loc 2 436 0 is_stmt 0 discriminator 1
	ldrh	w1, [x1]
.LVL172:
	cmp	w1, w0
	bne	.L121
	ret
.L121:
	.loc 2 438 0 is_stmt 1
	sub	w2, w2, #1
.LVL173:
	.loc 2 437 0
	umaddl	x1, w1, w4, x3
.LVL174:
	.loc 2 438 0
	and	w2, w2, 65535
.LVL175:
	b	.L119
.LVL176:
.L122:
	.loc 2 433 0
	mov	w0, 65535
	ret
.LVL177:
.L120:
	.loc 2 442 0
	sub	x0, x1, x3
	mov	x1, -6148914691236517206
.LVL178:
	asr	x0, x0, 1
	movk	x1, 0xaaab, lsl 0
	mul	x0, x0, x1
	.loc 2 444 0
	and	w0, w0, 65535
	.loc 2 445 0
	ret
	.cfi_endproc
.LFE251:
	.size	List_get_gc_head_node, .-List_get_gc_head_node
	.section	.text.List_update_data_list,"ax",@progbits
	.align	2
	.global	List_update_data_list
	.type	List_update_data_list, %function
List_update_data_list:
.LFB252:
	.loc 2 448 0
	.cfi_startproc
.LVL179:
	stp	x29, x30, [sp, -80]!
	.cfi_def_cfa_offset 80
	.cfi_offset 29, -80
	.cfi_offset 30, -72
	add	x29, sp, 0
	.cfi_def_cfa_register 29
	stp	x19, x20, [sp, 16]
	.cfi_offset 19, -64
	.cfi_offset 20, -56
	and	w19, w0, 65535
	.loc 2 457 0
	adrp	x0, .LANCHOR51
.LVL180:
	.loc 2 448 0
	stp	x21, x22, [sp, 32]
	stp	x23, x24, [sp, 48]
	.loc 2 457 0
	ldrh	w0, [x0, #:lo12:.LANCHOR51]
	.loc 2 448 0
	stp	x25, x26, [sp, 64]
	.cfi_offset 21, -48
	.cfi_offset 22, -40
	.cfi_offset 23, -32
	.cfi_offset 24, -24
	.cfi_offset 25, -16
	.cfi_offset 26, -8
	.loc 2 457 0
	cmp	w0, w19
	beq	.L125
	.loc 2 457 0 is_stmt 0 discriminator 1
	adrp	x0, .LANCHOR52
	ldrh	w0, [x0, #:lo12:.LANCHOR52]
	cmp	w0, w19
	beq	.L125
	.loc 2 457 0 discriminator 2
	adrp	x0, .LANCHOR53
	ldrh	w0, [x0, #:lo12:.LANCHOR53]
	cmp	w0, w19
	beq	.L125
.LVL181:
.LBB203:
.LBB204:
	.loc 2 460 0 is_stmt 1
	adrp	x0, .LANCHOR40
	mov	w21, 6
	.loc 2 462 0
	adrp	x24, .LANCHOR41
	mov	x26, x0
	.loc 2 460 0
	umull	x21, w19, w21
	ldr	x23, [x0, #:lo12:.LANCHOR40]
	.loc 2 462 0
	ldr	x1, [x24, #:lo12:.LANCHOR41]
	.loc 2 460 0
	add	x22, x23, x21
.LVL182:
	.loc 2 462 0
	cmp	x22, x1
	beq	.L125
	.loc 2 465 0
	adrp	x1, .LANCHOR42
	ubfiz	x0, x19, 1, 16
	mov	x25, x1
	ldr	x2, [x1, #:lo12:.LANCHOR42]
	.loc 2 470 0
	mov	w1, 65535
	.loc 2 465 0
	ldrh	w20, [x2, x0]
.LVL183:
	.loc 2 466 0
	ldrh	w0, [x22, 4]
.LVL184:
	cmp	w0, 0
	mul	w20, w20, w0
.LVL185:
	.loc 2 470 0
	ldrh	w0, [x22, 2]
.LVL186:
	.loc 2 466 0
	csinv	w20, w20, wzr, ne
.LVL187:
	.loc 2 470 0
	cmp	w0, w1
	bne	.L128
	ldrh	w1, [x23, x21]
	cmp	w1, w0
	bne	.L128
	adrp	x1, .LANCHOR54
	adrp	x0, .LC1
	mov	w2, 470
.LVL188:
	add	x1, x1, :lo12:.LANCHOR54
	add	x0, x0, :lo12:.LC1
	bl	printf
.LVL189:
.L128:
	.loc 2 471 0
	ldrh	w0, [x22, 2]
	mov	w1, 65535
	cmp	w0, w1
	bne	.L129
	ldrh	w1, [x23, x21]
	cmp	w1, w0
	beq	.L125
.L129:
	.loc 2 473 0
	mov	w1, 6
	.loc 2 474 0
	mov	x2, -6148914691236517206
	movk	x2, 0xaaab, lsl 0
	.loc 2 473 0
	umull	x0, w0, w1
.LVL190:
	.loc 2 474 0
	asr	x1, x0, 1
	mul	x1, x1, x2
	.loc 2 475 0
	ldr	x2, [x25, #:lo12:.LANCHOR42]
	ldrh	w1, [x2, x1, lsl 1]
.LVL191:
	.loc 2 476 0
	ldr	x2, [x26, #:lo12:.LANCHOR40]
	add	x0, x2, x0
.LVL192:
	ldrh	w2, [x0, 4]
.LVL193:
	cmp	w2, 0
	mul	w0, w1, w2
.LVL194:
	csinv	w0, w0, wzr, ne
.LVL195:
	.loc 2 480 0
	cmp	w20, w0
	bcs	.L125
	.loc 2 481 0
	adrp	x20, .LANCHOR45
.LVL196:
	mov	w1, w19
.LVL197:
	add	x0, x24, :lo12:.LANCHOR41
.LVL198:
	bl	List_remove_node
.LVL199:
	ldrh	w0, [x20, #:lo12:.LANCHOR45]
	cbnz	w0, .L131
	adrp	x1, .LANCHOR54
	adrp	x0, .LC1
	mov	w2, 481
	add	x1, x1, :lo12:.LANCHOR54
	add	x0, x0, :lo12:.LC1
	bl	printf
.LVL200:
.L131:
	ldrh	w0, [x20, #:lo12:.LANCHOR45]
	sub	w0, w0, #1
	strh	w0, [x20, #:lo12:.LANCHOR45]
	.loc 2 482 0
	mov	w0, w19
	bl	INSERT_DATA_LIST
.LVL201:
.L125:
.LBE204:
.LBE203:
	.loc 2 485 0
	mov	w0, 0
	ldp	x19, x20, [sp, 16]
.LVL202:
	ldp	x21, x22, [sp, 32]
	ldp	x23, x24, [sp, 48]
	ldp	x25, x26, [sp, 64]
	ldp	x29, x30, [sp], 80
	.cfi_restore 30
	.cfi_restore 29
	.cfi_restore 25
	.cfi_restore 26
	.cfi_restore 23
	.cfi_restore 24
	.cfi_restore 21
	.cfi_restore 22
	.cfi_restore 19
	.cfi_restore 20
	.cfi_def_cfa 31, 0
	ret
	.cfi_endproc
.LFE252:
	.size	List_update_data_list, .-List_update_data_list
	.section	.text.select_l2p_ram_region,"ax",@progbits
	.align	2
	.global	select_l2p_ram_region
	.type	select_l2p_ram_region, %function
select_l2p_ram_region:
.LFB260:
	.loc 2 749 0
	.cfi_startproc
.LVL203:
	stp	x29, x30, [sp, -32]!
	.cfi_def_cfa_offset 32
	.cfi_offset 29, -32
	.cfi_offset 30, -24
	.loc 2 754 0
	adrp	x0, .LANCHOR33
	mov	x1, 0
	.loc 2 755 0
	mov	w3, 65535
	.loc 2 749 0
	add	x29, sp, 0
	.cfi_def_cfa_register 29
	.loc 2 754 0
	ldrh	w2, [x0, #:lo12:.LANCHOR33]
	.loc 2 755 0
	adrp	x0, .LANCHOR55
	.loc 2 749 0
	str	x19, [sp, 16]
	.cfi_offset 19, -16
	.loc 2 755 0
	ldr	x0, [x0, #:lo12:.LANCHOR55]
.LVL204:
.L136:
	and	w19, w1, 65535
.LVL205:
	.loc 2 754 0 discriminator 1
	cmp	w19, w2
	bcc	.L138
	add	x3, x0, 4
	.loc 2 754 0 is_stmt 0
	mov	w19, w2
.LVL206:
	mov	w5, -2147483648
	mov	w1, 0
.LVL207:
.L139:
	.loc 2 764 0 is_stmt 1 discriminator 1
	cmp	w1, w2
	bne	.L141
	.loc 2 773 0
	cmp	w19, w2
	bcc	.L137
	.loc 2 779 0
	adrp	x1, .LANCHOR56
.LVL208:
	mov	w19, w2
.LVL209:
	mov	w3, -1
	ldrh	w4, [x1, #:lo12:.LANCHOR56]
	mov	w1, 0
.LVL210:
.L142:
	.loc 2 778 0 discriminator 1
	cmp	w1, w2
	bne	.L144
	.loc 2 784 0
	cmp	w19, w1
	bcc	.L137
	.loc 2 784 0 is_stmt 0 discriminator 1
	mov	w2, 784
	adrp	x1, .LANCHOR57
.LVL211:
	adrp	x0, .LC1
	add	x1, x1, :lo12:.LANCHOR57
	add	x0, x0, :lo12:.LC1
	bl	printf
.LVL212:
	b	.L137
.LVL213:
.L138:
	add	x1, x1, 1
	.loc 2 755 0 is_stmt 1
	add	x4, x0, x1, lsl 4
	ldrh	w4, [x4, -16]
	cmp	w4, w3
	bne	.L136
.LVL214:
.L137:
	.loc 2 786 0
	mov	w0, w19
	ldr	x19, [sp, 16]
	ldp	x29, x30, [sp], 32
	.cfi_remember_state
	.cfi_restore 30
	.cfi_restore 29
	.cfi_restore 19
	.cfi_def_cfa 31, 0
	ret
.LVL215:
.L141:
	.cfi_restore_state
	.loc 2 765 0
	ldr	w4, [x3]
	tbnz	w4, #31, .L140
	.loc 2 766 0
	cmp	w5, w4
	bls	.L140
	mov	w5, w4
.LVL216:
	mov	w19, w1
.LVL217:
.L140:
	.loc 2 764 0 discriminator 2
	add	w1, w1, 1
.LVL218:
	add	x3, x3, 16
	and	w1, w1, 65535
.LVL219:
	b	.L139
.LVL220:
.L144:
	.loc 2 779 0
	ldr	w6, [x0, 4]
	cmp	w3, w6
	bls	.L143
	.loc 2 779 0 is_stmt 0 discriminator 1
	ldrh	w5, [x0]
	cmp	w5, w4
	csel	w3, w3, w6, eq
.LVL221:
	csel	w19, w19, w1, eq
.LVL222:
.L143:
	.loc 2 778 0 is_stmt 1 discriminator 2
	add	w1, w1, 1
.LVL223:
	add	x0, x0, 16
	and	w1, w1, 65535
.LVL224:
	b	.L142
	.cfi_endproc
.LFE260:
	.size	select_l2p_ram_region, .-select_l2p_ram_region
	.section	.text.FtlUpdateVaildLpn,"ax",@progbits
	.align	2
	.global	FtlUpdateVaildLpn
	.type	FtlUpdateVaildLpn, %function
FtlUpdateVaildLpn:
.LFB266:
	.loc 2 931 0
	.cfi_startproc
.LVL225:
	.loc 2 934 0
	adrp	x2, .LANCHOR58
	mov	x3, x2
	ldrh	w1, [x2, #:lo12:.LANCHOR58]
	cmp	w1, 4
	bhi	.L147
	.loc 2 934 0 is_stmt 0 discriminator 1
	cbnz	w0, .L147
	.loc 2 934 0
	add	w1, w1, 1
	strh	w1, [x2, #:lo12:.LANCHOR58]
	.loc 2 943 0 is_stmt 1
	ret
.L147:
.LBB207:
.LBB208:
	.loc 2 937 0
	adrp	x1, .LANCHOR5
.LBE208:
.LBE207:
	.loc 2 936 0
	adrp	x0, .LANCHOR59
.LVL226:
	.loc 2 935 0
	strh	wzr, [x3, #:lo12:.LANCHOR58]
.LBB211:
.LBB209:
	.loc 2 939 0
	mov	w2, 0
	.loc 2 937 0
	ldrh	w5, [x1, #:lo12:.LANCHOR5]
	.loc 2 939 0
	adrp	x1, .LANCHOR42
.LBE209:
.LBE211:
	.loc 2 936 0
	str	wzr, [x0, #:lo12:.LANCHOR59]
.LVL227:
.LBB212:
.LBB210:
	.loc 2 939 0
	mov	w3, 0
	ldr	x6, [x1, #:lo12:.LANCHOR42]
	mov	w7, 65535
	mov	x1, 0
.L148:
.LVL228:
	.loc 2 937 0
	cmp	w5, w1, uxth
	bhi	.L150
	cbz	w3, .L146
	str	w2, [x0, #:lo12:.LANCHOR59]
.L146:
	ret
.L150:
	.loc 2 939 0
	ldrh	w4, [x6, x1, lsl 1]
	cmp	w4, w7
	beq	.L149
	.loc 2 940 0
	add	w2, w2, w4
	mov	w3, 1
.L149:
.LVL229:
	add	x1, x1, 1
.LVL230:
	b	.L148
.LBE210:
.LBE212:
	.cfi_endproc
.LFE266:
	.size	FtlUpdateVaildLpn, .-FtlUpdateVaildLpn
	.section	.text.ftl_set_blk_mode,"ax",@progbits
	.align	2
	.global	ftl_set_blk_mode
	.type	ftl_set_blk_mode, %function
ftl_set_blk_mode:
.LFB272:
	.loc 2 1396 0
	.cfi_startproc
.LVL231:
	.loc 2 1396 0
	and	w0, w0, 65535
	.loc 2 1397 0
	cbz	w1, .L157
	b	ftl_set_blk_mode.part.6
.LVL232:
.L157:
	.loc 2 1400 0
	adrp	x1, .LANCHOR1
.LVL233:
	ubfx	x2, x0, 5, 11
	lsl	x2, x2, 2
	ldr	x3, [x1, #:lo12:.LANCHOR1]
	mov	w1, 1
	lsl	w0, w1, w0
	ldr	w1, [x3, x2]
	bic	w0, w1, w0
	str	w0, [x3, x2]
	ret
	.cfi_endproc
.LFE272:
	.size	ftl_set_blk_mode, .-ftl_set_blk_mode
	.section	.text.ftl_get_blk_mode,"ax",@progbits
	.align	2
	.global	ftl_get_blk_mode
	.type	ftl_get_blk_mode, %function
ftl_get_blk_mode:
.LFB273:
	.loc 2 1404 0
	.cfi_startproc
.LVL234:
	.loc 2 1404 0
	and	w1, w0, 65535
	.loc 2 1405 0
	adrp	x0, .LANCHOR1
.LVL235:
	ldr	x0, [x0, #:lo12:.LANCHOR1]
	ubfx	x2, x1, 5, 11
	ldr	w0, [x0, x2, lsl 2]
	lsr	w0, w0, w1
	.loc 2 1406 0
	and	w0, w0, 1
	ret
	.cfi_endproc
.LFE273:
	.size	ftl_get_blk_mode, .-ftl_get_blk_mode
	.section	.text.ftl_sb_update_avl_pages,"ax",@progbits
	.align	2
	.global	ftl_sb_update_avl_pages
	.type	ftl_sb_update_avl_pages, %function
ftl_sb_update_avl_pages:
.LFB279:
	.loc 2 1657 0
	.cfi_startproc
.LVL236:
	.loc 2 1657 0
	and	w2, w2, 65535
	and	w6, w1, 65535
	ubfiz	x4, x2, 1, 16
	.loc 2 1660 0
	adrp	x1, .LANCHOR3
.LVL237:
	add	x4, x4, 16
	.loc 2 1659 0
	strh	wzr, [x0, 4]
.LVL238:
	add	x4, x0, x4
	.loc 2 1660 0
	ldrh	w3, [x1, #:lo12:.LANCHOR3]
	.loc 2 1662 0
	mov	w1, 65535
.LVL239:
.L160:
	.loc 2 1660 0 discriminator 1
	cmp	w2, w3
	bcc	.L162
	.loc 2 1671 0
	adrp	x1, .LANCHOR19
	ubfiz	x3, x3, 1, 16
	add	x3, x3, 16
	add	x2, x0, 16
.LVL240:
	ldrh	w1, [x1, #:lo12:.LANCHOR19]
	add	x3, x0, x3
	.loc 2 1669 0
	mov	w5, 65535
	sub	w1, w1, #1
	and	w1, w1, 65535
	.loc 2 1671 0
	sub	w1, w1, w6
.L163:
	.loc 2 1667 0 discriminator 1
	cmp	x2, x3
	bne	.L165
	.loc 2 1674 0
	ret
.LVL241:
.L162:
	.loc 2 1662 0
	ldrh	w5, [x4]
	cmp	w5, w1
	beq	.L161
	.loc 2 1664 0
	ldrh	w5, [x0, 4]
	add	w5, w5, 1
	strh	w5, [x0, 4]
.L161:
	.loc 2 1660 0 discriminator 2
	add	w2, w2, 1
.LVL242:
	add	x4, x4, 2
	and	w2, w2, 65535
.LVL243:
	b	.L160
.LVL244:
.L165:
	.loc 2 1669 0
	ldrh	w4, [x2]
	cmp	w4, w5
	beq	.L164
	.loc 2 1671 0
	ldrh	w4, [x0, 4]
	add	w4, w1, w4
	strh	w4, [x0, 4]
.L164:
	add	x2, x2, 2
	b	.L163
	.cfi_endproc
.LFE279:
	.size	ftl_sb_update_avl_pages, .-ftl_sb_update_avl_pages
	.section	.text.FtlSlcSuperblockCheck,"ax",@progbits
	.align	2
	.global	FtlSlcSuperblockCheck
	.type	FtlSlcSuperblockCheck, %function
FtlSlcSuperblockCheck:
.LFB282:
	.loc 2 2062 0
	.cfi_startproc
.LVL245:
	.loc 2 2065 0
	ldrh	w1, [x0, 4]
	cbz	w1, .L166
	.loc 2 2067 0
	ldrh	w2, [x0]
	mov	w1, 65535
	cmp	w2, w1
	beq	.L166
.LVL246:
.LBB215:
.LBB216:
	.loc 2 2069 0
	ldrb	w2, [x0, 6]
	add	x2, x2, 8
	ldrh	w3, [x0, x2, lsl 1]
.LVL247:
	.loc 2 2072 0
	adrp	x2, .LANCHOR3
	ldrh	w4, [x2, #:lo12:.LANCHOR3]
	.loc 2 2070 0
	mov	w2, w1
.L169:
	cmp	w3, w2
	beq	.L171
.LVL248:
.L166:
	ret
.LVL249:
.L171:
	.loc 2 2071 0
	ldrb	w1, [x0, 6]
	add	w1, w1, 1
	and	w1, w1, 255
	strb	w1, [x0, 6]
	.loc 2 2072 0
	cmp	w1, w4
	bne	.L170
	.loc 2 2073 0
	ldrh	w1, [x0, 2]
	.loc 2 2074 0
	strb	wzr, [x0, 6]
	.loc 2 2073 0
	add	w1, w1, 1
	strh	w1, [x0, 2]
.L170:
	.loc 2 2076 0
	ldrb	w1, [x0, 6]
	add	x1, x1, 8
	ldrh	w3, [x0, x1, lsl 1]
.LVL250:
	b	.L169
.LBE216:
.LBE215:
	.cfi_endproc
.LFE282:
	.size	FtlSlcSuperblockCheck, .-FtlSlcSuperblockCheck
	.section	.text.make_superblock,"ax",@progbits
	.align	2
	.global	make_superblock
	.type	make_superblock, %function
make_superblock:
.LFB284:
	.loc 2 2094 0
	.cfi_startproc
.LVL251:
	stp	x29, x30, [sp, -32]!
	.cfi_def_cfa_offset 32
	.cfi_offset 29, -32
	.cfi_offset 30, -24
	add	x29, sp, 0
	.cfi_def_cfa_register 29
	.loc 2 2097 0
	ldrh	w1, [x0]
	.loc 2 2094 0
	str	x19, [sp, 16]
	.cfi_offset 19, -16
	.loc 2 2094 0
	mov	x19, x0
	.loc 2 2097 0
	adrp	x0, .LANCHOR5
.LVL252:
	ldrh	w0, [x0, #:lo12:.LANCHOR5]
	cmp	w1, w0
	bcc	.L173
	.loc 2 2097 0 is_stmt 0 discriminator 1
	adrp	x1, .LANCHOR60
	adrp	x0, .LC1
	mov	w2, 2097
	add	x1, x1, :lo12:.LANCHOR60
	add	x0, x0, :lo12:.LC1
	bl	printf
.LVL253:
.L173:
	.loc 2 2100 0 is_stmt 1
	adrp	x0, .LANCHOR3
	.loc 2 2101 0
	adrp	x7, .LANCHOR13
	add	x6, x19, 16
	add	x7, x7, :lo12:.LANCHOR13
	.loc 2 2100 0
	ldrh	w8, [x0, #:lo12:.LANCHOR3]
	mov	x5, 0
	.loc 2 2098 0
	strh	wzr, [x19, 4]
	.loc 2 2102 0
	mov	w10, -1
	.loc 2 2099 0
	strb	wzr, [x19, 7]
.LVL254:
.L174:
	.loc 2 2100 0 discriminator 1
	cmp	w8, w5, uxth
	bhi	.L176
	.loc 2 2110 0
	adrp	x1, .LANCHOR19
	ldrb	w0, [x19, 7]
	ldrh	w1, [x1, #:lo12:.LANCHOR19]
	mul	w0, w0, w1
	strh	w0, [x19, 4]
	.loc 2 2111 0
	mov	w0, 1
	strb	w0, [x19, 9]
	.loc 2 2113 0
	mov	w0, 0
	ldr	x19, [sp, 16]
.LVL255:
	ldp	x29, x30, [sp], 32
	.cfi_remember_state
	.cfi_restore 30
	.cfi_restore 29
	.cfi_restore 19
	.cfi_def_cfa 31, 0
	ret
.LVL256:
.L176:
	.cfi_restore_state
	.loc 2 2101 0
	ldrh	w1, [x19]
	ldrb	w0, [x7, x5]
	bl	V2P_block
.LVL257:
	mov	w4, w0
.LVL258:
	.loc 2 2102 0
	strh	w10, [x6]
	.loc 2 2103 0
	bl	FtlBbmIsBadBlock
.LVL259:
	cbnz	w0, .L175
	.loc 2 2104 0
	strh	w4, [x6]
	.loc 2 2105 0
	ldrb	w0, [x19, 7]
	add	w0, w0, 1
	strb	w0, [x19, 7]
.L175:
.LVL260:
	add	x5, x5, 1
.LVL261:
	add	x6, x6, 2
	b	.L174
	.cfi_endproc
.LFE284:
	.size	make_superblock, .-make_superblock
	.section	.text.update_multiplier_value,"ax",@progbits
	.align	2
	.global	update_multiplier_value
	.type	update_multiplier_value, %function
update_multiplier_value:
.LFB293:
	.loc 2 2454 0
	.cfi_startproc
.LVL262:
	and	w6, w0, 65535
	.loc 2 2458 0
	adrp	x0, .LANCHOR3
.LVL263:
	mov	x7, 0
	.loc 2 2459 0
	adrp	x8, .LANCHOR13
	.loc 2 2458 0
	ldrh	w10, [x0, #:lo12:.LANCHOR3]
	.loc 2 2461 0
	adrp	x0, .LANCHOR19
	.loc 2 2456 0
	mov	w5, 0
	.loc 2 2459 0
	add	x8, x8, :lo12:.LANCHOR13
.LVL264:
	.loc 2 2461 0
	ldrh	w11, [x0, #:lo12:.LANCHOR19]
	.loc 2 2458 0
	cmp	w10, w7, uxth
	bhi	.L190
	.loc 2 2463 0
	cbz	w5, .L188
	.loc 2 2464 0
	mov	w0, 32768
	sdiv	w5, w0, w5
.LVL265:
.L189:
	.loc 2 2465 0
	adrp	x0, .LANCHOR40
	mov	w1, 6
	ldr	x0, [x0, #:lo12:.LANCHOR40]
	umaddl	x6, w6, w1, x0
.LVL266:
	.loc 2 2467 0
	mov	w0, 0
	.loc 2 2465 0
	strh	w5, [x6, 4]
	.loc 2 2467 0
	ret
.LVL267:
.L183:
	.cfi_def_cfa 29, 16
	.cfi_offset 29, -16
	.cfi_offset 30, -8
	mov	w5, 0
.LVL268:
	b	.L182
.LVL269:
.L188:
	.cfi_def_cfa 31, 0
	.cfi_restore 29
	.cfi_restore 30
	mov	w5, 0
	b	.L189
.L190:
	.loc 2 2454 0
	stp	x29, x30, [sp, -16]!
	.cfi_def_cfa_offset 16
	.cfi_offset 29, -16
	.cfi_offset 30, -8
	add	x29, sp, 0
	.cfi_def_cfa_register 29
.L181:
	.loc 2 2459 0
	ldrb	w0, [x8, x7]
	mov	w1, w6
	bl	V2P_block
.LVL270:
	.loc 2 2460 0
	bl	FtlBbmIsBadBlock
.LVL271:
	cbnz	w0, .L180
	.loc 2 2461 0
	add	w5, w5, w11
.LVL272:
	and	w5, w5, 65535
.LVL273:
.L180:
	add	x7, x7, 1
.LVL274:
	.loc 2 2458 0 discriminator 2
	cmp	w10, w7, uxth
	bhi	.L181
	.loc 2 2463 0
	cbz	w5, .L183
	.loc 2 2464 0
	mov	w0, 32768
	sdiv	w5, w0, w5
.LVL275:
.L182:
	.loc 2 2465 0
	adrp	x0, .LANCHOR40
	mov	w1, 6
	ldr	x0, [x0, #:lo12:.LANCHOR40]
	umaddl	x6, w6, w1, x0
	.loc 2 2467 0
	mov	w0, 0
	.loc 2 2465 0
	strh	w5, [x6, 4]
	.loc 2 2467 0
	ldp	x29, x30, [sp], 16
	.cfi_restore 30
	.cfi_restore 29
	.cfi_def_cfa 31, 0
	ret
	.cfi_endproc
.LFE293:
	.size	update_multiplier_value, .-update_multiplier_value
	.section	.text.GetFreeBlockMinEraseCount,"ax",@progbits
	.align	2
	.global	GetFreeBlockMinEraseCount
	.type	GetFreeBlockMinEraseCount, %function
GetFreeBlockMinEraseCount:
.LFB294:
	.loc 2 2470 0
	.cfi_startproc
.LVL276:
	.loc 2 2473 0
	adrp	x0, .LANCHOR47
	ldr	x0, [x0, #:lo12:.LANCHOR47]
	cbz	x0, .L193
	.loc 2 2474 0
	adrp	x1, .LANCHOR40
	ldr	x1, [x1, #:lo12:.LANCHOR40]
	sub	x0, x0, x1
	mov	x1, -6148914691236517206
	asr	x0, x0, 1
	movk	x1, 0xaaab, lsl 0
	mul	x0, x0, x1
	adrp	x1, .LANCHOR43
	ldr	x1, [x1, #:lo12:.LANCHOR43]
	and	x0, x0, 65535
	ldrh	w0, [x1, x0, lsl 1]
.LVL277:
	ret
.LVL278:
.L193:
	.loc 2 2471 0
	mov	w0, 0
.LVL279:
	.loc 2 2476 0
	ret
	.cfi_endproc
.LFE294:
	.size	GetFreeBlockMinEraseCount, .-GetFreeBlockMinEraseCount
	.section	.text.GetFreeBlockMaxEraseCount,"ax",@progbits
	.align	2
	.global	GetFreeBlockMaxEraseCount
	.type	GetFreeBlockMaxEraseCount, %function
GetFreeBlockMaxEraseCount:
.LFB295:
	.loc 2 2479 0
	.cfi_startproc
.LVL280:
	.loc 2 2484 0
	adrp	x1, .LANCHOR47
	.loc 2 2479 0
	and	w0, w0, 65535
	.loc 2 2484 0
	ldr	x1, [x1, #:lo12:.LANCHOR47]
	cbz	x1, .L201
	.loc 2 2485 0
	adrp	x2, .LANCHOR48
	mov	w3, 7
	.loc 2 2489 0
	mov	w5, 6
	mov	w6, 65535
	.loc 2 2485 0
	ldrh	w2, [x2, #:lo12:.LANCHOR48]
	mul	w2, w2, w3
	asr	w2, w2, 3
	.loc 2 2486 0
	cmp	w0, w2
	csel	w0, w2, w0, gt
.LVL281:
	.loc 2 2487 0
	adrp	x2, .LANCHOR40
	ldr	x3, [x2, #:lo12:.LANCHOR40]
	mov	x2, -6148914691236517206
	movk	x2, 0xaaab, lsl 0
	sub	x1, x1, x3
	asr	x1, x1, 1
	mul	x1, x1, x2
	.loc 2 2488 0
	mov	w2, 0
	.loc 2 2487 0
	and	w1, w1, 65535
.LVL282:
.L197:
	.loc 2 2488 0 discriminator 1
	cmp	w0, w2
	beq	.L200
	.loc 2 2489 0
	umull	x4, w1, w5
	ldrh	w4, [x3, x4]
	cmp	w4, w6
	bne	.L198
.L200:
	.loc 2 2493 0
	adrp	x0, .LANCHOR43
.LVL283:
	ubfiz	x1, x1, 1, 16
.LVL284:
	ldr	x0, [x0, #:lo12:.LANCHOR43]
	ldrh	w0, [x0, x1]
.LVL285:
	ret
.LVL286:
.L198:
	.loc 2 2488 0 discriminator 2
	add	w2, w2, 1
.LVL287:
	mov	w1, w4
	and	w2, w2, 65535
.LVL288:
	b	.L197
.LVL289:
.L201:
	.loc 2 2480 0
	mov	w0, 0
.LVL290:
	.loc 2 2496 0
	ret
	.cfi_endproc
.LFE295:
	.size	GetFreeBlockMaxEraseCount, .-GetFreeBlockMaxEraseCount
	.section	.text.FtlPrintInfo2buf,"ax",@progbits
	.align	2
	.global	FtlPrintInfo2buf
	.type	FtlPrintInfo2buf, %function
FtlPrintInfo2buf:
.LFB200:
	.loc 3 12 0
	.cfi_startproc
.LVL291:
	stp	x29, x30, [sp, -96]!
	.cfi_def_cfa_offset 96
	.cfi_offset 29, -96
	.cfi_offset 30, -88
	.loc 3 16 0
	adrp	x1, .LC2
	add	x1, x1, :lo12:.LC2
	.loc 3 12 0
	add	x29, sp, 0
	.cfi_def_cfa_register 29
	stp	x19, x20, [sp, 16]
	.cfi_offset 19, -80
	.cfi_offset 20, -72
	.loc 3 31 0
	adrp	x19, .LANCHOR37
	.loc 3 12 0
	stp	x21, x22, [sp, 32]
	.cfi_offset 21, -64
	.cfi_offset 22, -56
	mov	x21, x0
.LVL292:
	stp	x23, x24, [sp, 48]
	.cfi_offset 23, -48
	.cfi_offset 24, -40
	.loc 3 32 0
	adrp	x23, .LANCHOR48
	.loc 3 12 0
	stp	x25, x26, [sp, 64]
	.loc 3 39 0
	adrp	x22, .LANCHOR39
	.loc 3 12 0
	str	x27, [sp, 80]
	.cfi_offset 25, -32
	.cfi_offset 26, -24
	.cfi_offset 27, -16
	.loc 3 16 0
	bl	sprintf
.LVL293:
	add	x20, x21, x0, sxtw
.LVL294:
	.loc 3 17 0
	adrp	x0, .LANCHOR26
	adrp	x1, .LC3
	add	x1, x1, :lo12:.LC3
	ldr	w2, [x0, #:lo12:.LANCHOR26]
	mov	x0, x20
	.loc 3 39 0
	add	x22, x22, :lo12:.LANCHOR39
	.loc 3 50 0
	adrp	x24, .LANCHOR51
	.loc 3 67 0
	adrp	x25, .LANCHOR80
	.loc 3 17 0
	bl	sprintf
.LVL295:
	add	x20, x20, x0, sxtw
.LVL296:
	.loc 3 18 0
	mov	x0, x20
	adrp	x1, .LC4
	add	x1, x1, :lo12:.LC4
	bl	sprintf
.LVL297:
	add	x20, x20, x0, sxtw
.LVL298:
	.loc 3 19 0
	adrp	x0, .LANCHOR61
	adrp	x1, .LC5
	add	x1, x1, :lo12:.LC5
	ldr	w2, [x0, #:lo12:.LANCHOR61]
	mov	x0, x20
	bl	sprintf
.LVL299:
	add	x20, x20, x0, sxtw
.LVL300:
	.loc 3 20 0
	adrp	x0, .LANCHOR59
	adrp	x1, .LC6
	add	x1, x1, :lo12:.LC6
	ldr	w2, [x0, #:lo12:.LANCHOR59]
	mov	x0, x20
	bl	sprintf
.LVL301:
	add	x20, x20, x0, sxtw
.LVL302:
	.loc 3 21 0
	adrp	x0, .LANCHOR62
	adrp	x1, .LC7
	add	x1, x1, :lo12:.LC7
	ldr	w2, [x0, #:lo12:.LANCHOR62]
	mov	x0, x20
	bl	sprintf
.LVL303:
	add	x20, x20, x0, sxtw
.LVL304:
	.loc 3 22 0
	adrp	x0, .LANCHOR63
	adrp	x1, .LC8
	add	x1, x1, :lo12:.LC8
	ldr	w2, [x0, #:lo12:.LANCHOR63]
	mov	x0, x20
	bl	sprintf
.LVL305:
	add	x20, x20, x0, sxtw
.LVL306:
	.loc 3 23 0
	adrp	x0, .LANCHOR64
	adrp	x1, .LC9
	add	x1, x1, :lo12:.LC9
	ldr	w2, [x0, #:lo12:.LANCHOR64]
	mov	x0, x20
	bl	sprintf
.LVL307:
	add	x20, x20, x0, sxtw
.LVL308:
	.loc 3 24 0
	adrp	x0, .LANCHOR65
	adrp	x1, .LC10
	add	x1, x1, :lo12:.LC10
	ldr	w2, [x0, #:lo12:.LANCHOR65]
	mov	x0, x20
	bl	sprintf
.LVL309:
	add	x20, x20, x0, sxtw
.LVL310:
	.loc 3 25 0
	adrp	x0, .LANCHOR66
	adrp	x1, .LC11
	add	x1, x1, :lo12:.LC11
	ldr	w2, [x0, #:lo12:.LANCHOR66]
	mov	x0, x20
	bl	sprintf
.LVL311:
	add	x20, x20, x0, sxtw
.LVL312:
	.loc 3 26 0
	adrp	x0, .LANCHOR67
	adrp	x1, .LC12
	add	x1, x1, :lo12:.LC12
	ldr	w2, [x0, #:lo12:.LANCHOR67]
	mov	x0, x20
	bl	sprintf
.LVL313:
	add	x20, x20, x0, sxtw
.LVL314:
	.loc 3 27 0
	adrp	x0, .LANCHOR68
	adrp	x1, .LC13
	add	x1, x1, :lo12:.LC13
	ldr	w2, [x0, #:lo12:.LANCHOR68]
	mov	x0, x20
	lsr	w2, w2, 11
	bl	sprintf
.LVL315:
	add	x20, x20, x0, sxtw
.LVL316:
	.loc 3 28 0
	adrp	x0, .LANCHOR69
	adrp	x1, .LC14
	add	x1, x1, :lo12:.LC14
	ldr	w2, [x0, #:lo12:.LANCHOR69]
	mov	x0, x20
	lsr	w2, w2, 11
	bl	sprintf
.LVL317:
	add	x20, x20, x0, sxtw
.LVL318:
	.loc 3 29 0
	adrp	x0, .LANCHOR70
	adrp	x1, .LC15
	add	x1, x1, :lo12:.LC15
	ldr	w2, [x0, #:lo12:.LANCHOR70]
	mov	x0, x20
	bl	sprintf
.LVL319:
	add	x20, x20, x0, sxtw
.LVL320:
	.loc 3 30 0
	adrp	x0, .LANCHOR71
	adrp	x1, .LC16
	add	x1, x1, :lo12:.LC16
	ldr	w2, [x0, #:lo12:.LANCHOR71]
	mov	x0, x20
	bl	sprintf
.LVL321:
	add	x20, x20, x0, sxtw
.LVL322:
	.loc 3 31 0
	add	x0, x19, :lo12:.LANCHOR37
	adrp	x1, .LC17
	add	x1, x1, :lo12:.LC17
	ldrh	w2, [x0, 6]
	mov	x0, x20
	bl	sprintf
.LVL323:
	add	x20, x20, x0, sxtw
.LVL324:
	.loc 3 32 0
	ldrh	w2, [x23, #:lo12:.LANCHOR48]
	mov	x0, x20
	adrp	x1, .LC18
	add	x1, x1, :lo12:.LC18
	bl	sprintf
.LVL325:
	add	x20, x20, x0, sxtw
.LVL326:
	.loc 3 33 0
	adrp	x0, .LANCHOR72
	adrp	x1, .LC19
	add	x1, x1, :lo12:.LC19
	ldr	w2, [x0, #:lo12:.LANCHOR72]
	mov	x0, x20
	bl	sprintf
.LVL327:
	add	x20, x20, x0, sxtw
.LVL328:
	.loc 3 34 0
	adrp	x0, .LANCHOR73
	adrp	x1, .LC20
	add	x1, x1, :lo12:.LC20
	ldr	w2, [x0, #:lo12:.LANCHOR73]
	mov	x0, x20
	bl	sprintf
.LVL329:
	add	x20, x20, x0, sxtw
.LVL330:
	.loc 3 35 0
	adrp	x0, .LANCHOR74
	adrp	x1, .LC21
	add	x1, x1, :lo12:.LC21
	ldr	w2, [x0, #:lo12:.LANCHOR74]
	mov	x0, x20
	bl	sprintf
.LVL331:
	add	x20, x20, x0, sxtw
.LVL332:
	.loc 3 36 0
	adrp	x0, .LANCHOR75
	adrp	x1, .LC22
	add	x1, x1, :lo12:.LC22
	ldr	w2, [x0, #:lo12:.LANCHOR75]
	mov	x0, x20
	bl	sprintf
.LVL333:
	add	x20, x20, x0, sxtw
.LVL334:
	.loc 3 37 0
	adrp	x0, .LANCHOR76
	adrp	x1, .LC23
	add	x1, x1, :lo12:.LC23
	ldr	w2, [x0, #:lo12:.LANCHOR76]
	mov	x0, x20
	bl	sprintf
.LVL335:
	add	x20, x20, x0, sxtw
.LVL336:
	.loc 3 38 0
	adrp	x0, .LANCHOR77
	adrp	x1, .LC24
	add	x1, x1, :lo12:.LC24
	ldr	w2, [x0, #:lo12:.LANCHOR77]
	mov	x0, x20
	bl	sprintf
.LVL337:
	add	x20, x20, x0, sxtw
.LVL338:
	.loc 3 39 0
	ldrh	w2, [x22, 30]
	mov	x0, x20
	adrp	x1, .LC25
	add	x1, x1, :lo12:.LC25
	bl	sprintf
.LVL339:
	add	x20, x20, x0, sxtw
.LVL340:
	.loc 3 40 0
	ldrh	w2, [x22, 28]
	mov	x0, x20
	adrp	x1, .LC26
	add	x1, x1, :lo12:.LC26
	.loc 3 55 0
	adrp	x22, .LANCHOR42
	.loc 3 40 0
	bl	sprintf
.LVL341:
	add	x20, x20, x0, sxtw
.LVL342:
	.loc 3 41 0
	adrp	x0, .LANCHOR34
	adrp	x1, .LC27
	add	x1, x1, :lo12:.LC27
	ldr	w2, [x0, #:lo12:.LANCHOR34]
	mov	x0, x20
	bl	sprintf
.LVL343:
	add	x20, x20, x0, sxtw
.LVL344:
	.loc 3 42 0
	adrp	x0, .LANCHOR31
	adrp	x1, .LC28
	add	x1, x1, :lo12:.LC28
	ldr	w2, [x0, #:lo12:.LANCHOR31]
	mov	x0, x20
	bl	sprintf
.LVL345:
	add	x20, x20, x0, sxtw
.LVL346:
	.loc 3 43 0
	adrp	x0, .LANCHOR2
	adrp	x1, .LC29
	add	x1, x1, :lo12:.LC29
	ldr	w2, [x0, #:lo12:.LANCHOR2]
	mov	x0, x20
	bl	sprintf
.LVL347:
	add	x20, x20, x0, sxtw
.LVL348:
	.loc 3 44 0
	adrp	x0, .LANCHOR38+6
	adrp	x1, .LC30
	add	x1, x1, :lo12:.LC30
	ldrh	w2, [x0, #:lo12:.LANCHOR38+6]
	mov	x0, x20
	bl	sprintf
.LVL349:
	add	x20, x20, x0, sxtw
.LVL350:
	.loc 3 45 0
	adrp	x0, .LANCHOR5
	adrp	x1, .LC31
	add	x1, x1, :lo12:.LC31
	ldrh	w2, [x0, #:lo12:.LANCHOR5]
	mov	x0, x20
	bl	sprintf
.LVL351:
	add	x20, x20, x0, sxtw
.LVL352:
	.loc 3 46 0
	adrp	x0, .LANCHOR78
	adrp	x1, .LC32
	add	x1, x1, :lo12:.LC32
	ldrh	w2, [x0, #:lo12:.LANCHOR78]
	mov	x0, x20
	bl	sprintf
.LVL353:
	add	x20, x20, x0, sxtw
.LVL354:
	.loc 3 47 0
	adrp	x0, .LANCHOR7
	adrp	x1, .LC33
	add	x1, x1, :lo12:.LC33
	ldr	w2, [x0, #:lo12:.LANCHOR7]
	mov	x0, x20
	bl	sprintf
.LVL355:
	add	x20, x20, x0, sxtw
.LVL356:
	.loc 3 48 0
	adrp	x0, .LANCHOR79
	adrp	x1, .LC34
	add	x1, x1, :lo12:.LC34
	ldrh	w2, [x0, #:lo12:.LANCHOR79]
	mov	x0, x20
	bl	sprintf
.LVL357:
	add	x20, x20, x0, sxtw
.LVL358:
	.loc 3 49 0
	ldrh	w2, [x19, #:lo12:.LANCHOR37]
	.loc 3 50 0
	add	x19, x24, :lo12:.LANCHOR51
	.loc 3 49 0
	mov	x0, x20
	adrp	x1, .LC35
	add	x1, x1, :lo12:.LC35
	bl	sprintf
.LVL359:
	add	x20, x20, x0, sxtw
.LVL360:
	.loc 3 50 0
	ldrh	w2, [x19, 2]
	mov	x0, x20
	adrp	x1, .LC36
	add	x1, x1, :lo12:.LC36
	bl	sprintf
.LVL361:
	add	x20, x20, x0, sxtw
.LVL362:
	.loc 3 51 0
	ldrb	w2, [x19, 6]
	mov	x0, x20
	adrp	x1, .LC37
	add	x1, x1, :lo12:.LC37
	bl	sprintf
.LVL363:
	add	x20, x20, x0, sxtw
.LVL364:
	.loc 3 52 0
	ldrh	w2, [x24, #:lo12:.LANCHOR51]
	mov	x0, x20
	adrp	x1, .LC38
	add	x1, x1, :lo12:.LC38
	bl	sprintf
.LVL365:
	add	x20, x20, x0, sxtw
.LVL366:
	.loc 3 53 0
	ldrb	w2, [x19, 8]
	mov	x0, x20
	adrp	x1, .LC39
	add	x1, x1, :lo12:.LC39
	bl	sprintf
.LVL367:
	add	x20, x20, x0, sxtw
.LVL368:
	.loc 3 54 0
	ldrh	w2, [x19, 4]
	mov	x0, x20
	adrp	x1, .LC40
	add	x1, x1, :lo12:.LC40
	bl	sprintf
.LVL369:
	add	x20, x20, x0, sxtw
.LVL370:
	.loc 3 55 0
	ldrh	w1, [x24, #:lo12:.LANCHOR51]
	.loc 3 56 0
	adrp	x24, .LANCHOR52
	.loc 3 55 0
	ldr	x0, [x22, #:lo12:.LANCHOR42]
	.loc 3 56 0
	add	x19, x24, :lo12:.LANCHOR52
	.loc 3 55 0
	ldrh	w2, [x0, x1, lsl 1]
	mov	x0, x20
	adrp	x1, .LC41
	add	x1, x1, :lo12:.LC41
	bl	sprintf
.LVL371:
	add	x20, x20, x0, sxtw
.LVL372:
	.loc 3 56 0
	ldrh	w2, [x19, 2]
	mov	x0, x20
	adrp	x1, .LC42
	add	x1, x1, :lo12:.LC42
	bl	sprintf
.LVL373:
	add	x20, x20, x0, sxtw
.LVL374:
	.loc 3 57 0
	ldrb	w2, [x19, 6]
	mov	x0, x20
	adrp	x1, .LC43
	add	x1, x1, :lo12:.LC43
	bl	sprintf
.LVL375:
	add	x20, x20, x0, sxtw
.LVL376:
	.loc 3 58 0
	ldrh	w2, [x24, #:lo12:.LANCHOR52]
	mov	x0, x20
	adrp	x1, .LC44
	add	x1, x1, :lo12:.LC44
	bl	sprintf
.LVL377:
	add	x20, x20, x0, sxtw
.LVL378:
	.loc 3 59 0
	ldrb	w2, [x19, 8]
	mov	x0, x20
	adrp	x1, .LC45
	add	x1, x1, :lo12:.LC45
	bl	sprintf
.LVL379:
	add	x20, x20, x0, sxtw
.LVL380:
	.loc 3 60 0
	ldrh	w2, [x19, 4]
	mov	x0, x20
	adrp	x1, .LC46
	add	x1, x1, :lo12:.LC46
	bl	sprintf
.LVL381:
	add	x20, x20, x0, sxtw
.LVL382:
	.loc 3 61 0
	ldrh	w1, [x24, #:lo12:.LANCHOR52]
	.loc 3 62 0
	adrp	x24, .LANCHOR53
	.loc 3 61 0
	ldr	x0, [x22, #:lo12:.LANCHOR42]
	.loc 3 62 0
	add	x19, x24, :lo12:.LANCHOR53
	.loc 3 61 0
	ldrh	w2, [x0, x1, lsl 1]
	mov	x0, x20
	adrp	x1, .LC47
	add	x1, x1, :lo12:.LC47
	bl	sprintf
.LVL383:
	add	x20, x20, x0, sxtw
.LVL384:
	.loc 3 62 0
	ldrh	w2, [x19, 2]
	mov	x0, x20
	adrp	x1, .LC48
	add	x1, x1, :lo12:.LC48
	bl	sprintf
.LVL385:
	add	x20, x20, x0, sxtw
.LVL386:
	.loc 3 63 0
	ldrb	w2, [x19, 6]
	mov	x0, x20
	adrp	x1, .LC49
	add	x1, x1, :lo12:.LC49
	bl	sprintf
.LVL387:
	add	x20, x20, x0, sxtw
.LVL388:
	.loc 3 64 0
	ldrh	w2, [x24, #:lo12:.LANCHOR53]
	mov	x0, x20
	adrp	x1, .LC50
	add	x1, x1, :lo12:.LC50
	.loc 3 72 0
	adrp	x24, .LANCHOR81
	add	x24, x24, :lo12:.LANCHOR81
	.loc 3 64 0
	bl	sprintf
.LVL389:
	add	x20, x20, x0, sxtw
.LVL390:
	.loc 3 65 0
	ldrb	w2, [x19, 8]
	mov	x0, x20
	adrp	x1, .LC51
	add	x1, x1, :lo12:.LC51
	bl	sprintf
.LVL391:
	add	x20, x20, x0, sxtw
.LVL392:
	.loc 3 66 0
	ldrh	w2, [x19, 4]
	.loc 3 67 0
	add	x19, x25, :lo12:.LANCHOR80
	.loc 3 66 0
	mov	x0, x20
	adrp	x1, .LC52
	add	x1, x1, :lo12:.LC52
	bl	sprintf
.LVL393:
	add	x20, x20, x0, sxtw
.LVL394:
	.loc 3 67 0
	ldrh	w2, [x19, 2]
	mov	x0, x20
	adrp	x1, .LC53
	add	x1, x1, :lo12:.LC53
	bl	sprintf
.LVL395:
	add	x20, x20, x0, sxtw
.LVL396:
	.loc 3 68 0
	ldrb	w2, [x19, 6]
	mov	x0, x20
	adrp	x1, .LC54
	add	x1, x1, :lo12:.LC54
	bl	sprintf
.LVL397:
	add	x20, x20, x0, sxtw
.LVL398:
	.loc 3 69 0
	ldrh	w2, [x25, #:lo12:.LANCHOR80]
	mov	x0, x20
	adrp	x1, .LC55
	add	x1, x1, :lo12:.LC55
	bl	sprintf
.LVL399:
	add	x20, x20, x0, sxtw
.LVL400:
	.loc 3 70 0
	ldrb	w2, [x19, 8]
	mov	x0, x20
	adrp	x1, .LC56
	add	x1, x1, :lo12:.LC56
	bl	sprintf
.LVL401:
	add	x20, x20, x0, sxtw
.LVL402:
	.loc 3 71 0
	ldrh	w2, [x19, 4]
	mov	x0, x20
	adrp	x1, .LC57
	add	x1, x1, :lo12:.LC57
	bl	sprintf
.LVL403:
	add	x20, x20, x0, sxtw
.LVL404:
	.loc 3 72 0
	ldp	w4, w2, [x24, 76]
	adrp	x1, .LC58
	ldr	w3, [x24, 84]
	add	x1, x1, :lo12:.LC58
	mov	x0, x20
	bl	sprintf
.LVL405:
	add	x19, x20, x0, sxtw
.LVL406:
	.loc 3 73 0
	ldr	w2, [x24, 72]
	mov	x0, x19
	adrp	x1, .LC59
	add	x1, x1, :lo12:.LC59
	bl	sprintf
.LVL407:
	add	x19, x19, x0, sxtw
.LVL408:
	.loc 3 74 0
	ldr	w2, [x24, 96]
	mov	x0, x19
	adrp	x1, .LC60
	add	x1, x1, :lo12:.LC60
	bl	sprintf
.LVL409:
	add	x19, x19, x0, sxtw
.LVL410:
	.loc 3 75 0
	adrp	x0, .LANCHOR82
	adrp	x1, .LC61
	add	x1, x1, :lo12:.LC61
	ldrh	w2, [x0, #:lo12:.LANCHOR82]
	mov	x0, x19
	bl	sprintf
.LVL411:
	add	x19, x19, x0, sxtw
.LVL412:
	.loc 3 76 0
	adrp	x0, .LANCHOR83
	adrp	x1, .LC62
	add	x1, x1, :lo12:.LC62
	ldrh	w2, [x0, #:lo12:.LANCHOR83]
	mov	x0, x19
	bl	sprintf
.LVL413:
	add	x19, x19, x0, sxtw
.LVL414:
	.loc 3 77 0
	adrp	x0, .LANCHOR84
	adrp	x1, .LC63
	add	x1, x1, :lo12:.LC63
	ldr	w2, [x0, #:lo12:.LANCHOR84]
	mov	x0, x19
	bl	sprintf
.LVL415:
	add	x19, x19, x0, sxtw
.LVL416:
	.loc 3 78 0
	adrp	x0, .LANCHOR85
	adrp	x1, .LC64
	add	x1, x1, :lo12:.LC64
	ldrh	w2, [x0, #:lo12:.LANCHOR85]
	mov	x0, x19
	bl	sprintf
.LVL417:
	add	x19, x19, x0, sxtw
.LVL418:
	.loc 3 79 0
	bl	GetFreeBlockMinEraseCount
.LVL419:
	and	w2, w0, 65535
	adrp	x1, .LC65
	mov	x0, x19
	add	x1, x1, :lo12:.LC65
	bl	sprintf
.LVL420:
	add	x19, x19, x0, sxtw
.LVL421:
	.loc 3 80 0
	ldrh	w0, [x23, #:lo12:.LANCHOR48]
	bl	GetFreeBlockMaxEraseCount
.LVL422:
	and	w2, w0, 65535
	adrp	x1, .LC66
	mov	x0, x19
	add	x1, x1, :lo12:.LC66
	bl	sprintf
.LVL423:
	add	x19, x19, x0, sxtw
.LVL424:
	.loc 3 81 0
	adrp	x0, .LANCHOR86
	ldr	w0, [x0, #:lo12:.LANCHOR86]
	cmp	w0, 1
	beq	.L203
.L208:
	.loc 3 104 0
	sub	w0, w19, w21
	.loc 3 105 0
	ldr	x27, [sp, 80]
	ldp	x19, x20, [sp, 16]
.LVL425:
	ldp	x21, x22, [sp, 32]
.LVL426:
	ldp	x23, x24, [sp, 48]
	ldp	x25, x26, [sp, 64]
	ldp	x29, x30, [sp], 96
	.cfi_remember_state
	.cfi_restore 30
	.cfi_restore 29
	.cfi_restore 27
	.cfi_restore 25
	.cfi_restore 26
	.cfi_restore 23
	.cfi_restore 24
	.cfi_restore 21
	.cfi_restore 22
	.cfi_restore 19
	.cfi_restore 20
	.cfi_def_cfa 31, 0
	ret
.LVL427:
.L203:
	.cfi_restore_state
	.loc 3 84 0
	ldrh	w0, [x25, #:lo12:.LANCHOR80]
	mov	w1, 65535
	cmp	w0, w1
	beq	.L205
	.loc 3 85 0
	ldr	x1, [x22, #:lo12:.LANCHOR42]
	ubfiz	x0, x0, 1, 16
	ldrh	w2, [x1, x0]
	mov	x0, x19
	adrp	x1, .LC67
	add	x1, x1, :lo12:.LC67
	bl	sprintf
.LVL428:
	add	x19, x19, x0, sxtw
.LVL429:
.L205:
.LBB217:
	.loc 3 87 0
	mov	w0, 0
	.loc 3 91 0
	adrp	x24, .LC68
	.loc 3 87 0
	bl	List_get_gc_head_node
.LVL430:
	.loc 3 91 0
	add	x24, x24, :lo12:.LC68
	.loc 3 87 0
	and	w3, w0, 65535
.LVL431:
	.loc 3 88 0
	mov	w23, 0
	.loc 3 89 0
	mov	w27, 65535
	adrp	x20, .LANCHOR40
	.loc 3 91 0
	mov	w26, 6
.LVL432:
.L207:
	.loc 3 89 0
	cmp	w3, w27
	beq	.L206
	.loc 3 91 0 discriminator 2
	adrp	x0, .LANCHOR43
	umull	x25, w3, w26
	ldr	x2, [x22, #:lo12:.LANCHOR42]
	ubfiz	x1, x3, 1, 16
	ldr	x4, [x0, #:lo12:.LANCHOR43]
	ldr	x0, [x20, #:lo12:.LANCHOR40]
	add	x0, x0, x25
	ldrh	w6, [x4, x1]
	ldrh	w4, [x2, x1]
	mov	w2, w23
	ldrh	w5, [x0, 4]
	mov	x1, x24
	mov	x0, x19
	.loc 3 88 0 discriminator 2
	add	w23, w23, 1
.LVL433:
	.loc 3 91 0 discriminator 2
	bl	sprintf
.LVL434:
	add	x19, x19, x0, sxtw
.LVL435:
	.loc 3 92 0 discriminator 2
	ldr	x0, [x20, #:lo12:.LANCHOR40]
	.loc 3 88 0 discriminator 2
	cmp	w23, 16
	.loc 3 92 0 discriminator 2
	ldrh	w3, [x0, x25]
.LVL436:
	.loc 3 88 0 discriminator 2
	bne	.L207
.L206:
.LBE217:
.LBB218:
	.loc 3 96 0
	adrp	x0, .LANCHOR47
	.loc 3 100 0
	adrp	x23, .LC69
.LVL437:
	add	x23, x23, :lo12:.LC69
	.loc 3 97 0
	mov	w22, 0
	.loc 3 96 0
	ldr	x3, [x0, #:lo12:.LANCHOR47]
.LVL438:
	.loc 3 98 0
	mov	w25, 65535
	.loc 3 96 0
	ldr	x0, [x20, #:lo12:.LANCHOR40]
	.loc 3 100 0
	mov	w26, 6
	adrp	x27, .LANCHOR43
	.loc 3 96 0
	sub	x3, x3, x0
	mov	x0, -6148914691236517206
	asr	x3, x3, 1
	movk	x0, 0xaaab, lsl 0
	mul	x3, x3, x0
	and	w3, w3, 65535
.LVL439:
.L209:
	.loc 3 98 0
	cmp	w3, w25
	beq	.L208
	.loc 3 100 0 discriminator 2
	umull	x24, w3, w26
	ldr	x0, [x20, #:lo12:.LANCHOR40]
	ldr	x2, [x27, #:lo12:.LANCHOR43]
	ubfiz	x1, x3, 1, 16
	add	x0, x0, x24
	ldrh	w5, [x2, x1]
	mov	w2, w22
	ldrh	w4, [x0, 4]
	mov	x1, x23
	mov	x0, x19
	.loc 3 97 0 discriminator 2
	add	w22, w22, 1
.LVL440:
	.loc 3 100 0 discriminator 2
	bl	sprintf
.LVL441:
	add	x19, x19, x0, sxtw
.LVL442:
	.loc 3 97 0 discriminator 2
	cmp	w22, 4
	beq	.L208
	.loc 3 101 0
	ldr	x0, [x20, #:lo12:.LANCHOR40]
	ldrh	w3, [x0, x24]
	b	.L209
.LBE218:
	.cfi_endproc
.LFE200:
	.size	FtlPrintInfo2buf, .-FtlPrintInfo2buf
	.section	.text.rknand_proc_ftlread,"ax",@progbits
	.align	2
	.global	rknand_proc_ftlread
	.type	rknand_proc_ftlread, %function
rknand_proc_ftlread:
.LFB201:
	.loc 3 114 0
	.cfi_startproc
.LVL443:
	stp	x29, x30, [sp, -32]!
	.cfi_def_cfa_offset 32
	.cfi_offset 29, -32
	.cfi_offset 30, -24
	.loc 3 120 0
	adrp	x2, .LC70
	adrp	x1, .LC71
	add	x2, x2, :lo12:.LC70
	.loc 3 114 0
	add	x29, sp, 0
	.cfi_def_cfa_register 29
	.loc 3 120 0
	add	x1, x1, :lo12:.LC71
	.loc 3 114 0
	stp	x19, x20, [sp, 16]
	.cfi_offset 19, -16
	.cfi_offset 20, -8
	.loc 3 114 0
	mov	x20, x0
.LVL444:
	.loc 3 120 0
	bl	sprintf
.LVL445:
	add	x19, x20, x0, sxtw
.LVL446:
	.loc 3 122 0
	mov	x0, x19
	bl	FtlPrintInfo2buf
.LVL447:
	add	x0, x19, x0, sxtw
.LVL448:
	.loc 3 124 0
	sub	w0, w0, w20
.LVL449:
	ldp	x19, x20, [sp, 16]
.LVL450:
	ldp	x29, x30, [sp], 32
	.cfi_restore 30
	.cfi_restore 29
	.cfi_restore 19
	.cfi_restore 20
	.cfi_def_cfa 31, 0
	ret
	.cfi_endproc
.LFE201:
	.size	rknand_proc_ftlread, .-rknand_proc_ftlread
	.section	.text.GetSwlReplaceBlock,"ax",@progbits
	.align	2
	.global	GetSwlReplaceBlock
	.type	GetSwlReplaceBlock, %function
GetSwlReplaceBlock:
.LFB296:
	.loc 2 2500 0
	.cfi_startproc
.LVL451:
	stp	x29, x30, [sp, -32]!
	.cfi_def_cfa_offset 32
	.cfi_offset 29, -32
	.cfi_offset 30, -24
	.loc 2 2510 0
	adrp	x2, .LANCHOR74
	adrp	x8, .LANCHOR77
	.loc 2 2500 0
	add	x29, sp, 0
	.cfi_def_cfa_register 29
	str	x19, [sp, 16]
	.cfi_offset 19, -16
	.loc 2 2510 0
	ldr	w3, [x2, #:lo12:.LANCHOR74]
	ldr	w7, [x8, #:lo12:.LANCHOR77]
	cmp	w3, w7
	bcs	.L218
	.loc 2 2513 0
	adrp	x1, .LANCHOR5
	.loc 2 2512 0
	adrp	x0, .LANCHOR72
	.loc 2 2513 0
	mov	w5, 0
	mov	w4, 0
	ldrh	w3, [x1, #:lo12:.LANCHOR5]
	.loc 2 2514 0
	adrp	x1, .LANCHOR43
	.loc 2 2512 0
	str	wzr, [x0, #:lo12:.LANCHOR72]
.LVL452:
	.loc 2 2514 0
	ldr	x6, [x1, #:lo12:.LANCHOR43]
	.loc 2 2513 0
	mov	x1, 0
.LVL453:
.L219:
	.loc 2 2513 0 is_stmt 0 discriminator 1
	cmp	w3, w1
	bhi	.L220
	cbz	w5, .L221
	str	w4, [x0, #:lo12:.LANCHOR72]
.L221:
	.loc 2 2515 0 is_stmt 1
	ldr	w1, [x0, #:lo12:.LANCHOR72]
.LVL454:
	udiv	w3, w1, w3
	str	w3, [x2, #:lo12:.LANCHOR74]
	.loc 2 2516 0
	adrp	x3, .LANCHOR73
	ldr	w3, [x3, #:lo12:.LANCHOR73]
	sub	w1, w1, w3
	adrp	x3, .LANCHOR14
	ldrh	w3, [x3, #:lo12:.LANCHOR14]
	udiv	w1, w1, w3
	str	w1, [x0, #:lo12:.LANCHOR72]
.L222:
	.loc 2 2522 0
	ldr	w10, [x2, #:lo12:.LANCHOR74]
	add	w0, w7, 256
	cmp	w0, w10
	bls	.L227
	.loc 2 2522 0 is_stmt 0 discriminator 1
	adrp	x1, .LANCHOR76
	add	w0, w7, 768
	ldr	w1, [x1, #:lo12:.LANCHOR76]
	cmp	w0, w1
	bls	.L227
.LVL455:
.L229:
	.loc 2 2523 0 is_stmt 1
	mov	w19, 65535
.L228:
	.loc 2 2569 0
	mov	w0, w19
	ldr	x19, [sp, 16]
	ldp	x29, x30, [sp], 32
	.cfi_remember_state
	.cfi_restore 30
	.cfi_restore 29
	.cfi_restore 19
	.cfi_def_cfa 31, 0
	ret
.LVL456:
.L220:
	.cfi_restore_state
	.loc 2 2514 0 discriminator 3
	ldrh	w5, [x6, x1, lsl 1]
	add	x1, x1, 1
.LVL457:
	add	w4, w4, w5
	mov	w5, 1
	b	.L219
.L218:
	.loc 2 2517 0
	adrp	x1, .LANCHOR76
	ldr	w0, [x1, #:lo12:.LANCHOR76]
	cmp	w3, w0
	bls	.L222
	.loc 2 2518 0
	add	w0, w0, 1
	str	w0, [x1, #:lo12:.LANCHOR76]
.LVL458:
	.loc 2 2520 0
	adrp	x0, .LANCHOR43
	.loc 2 2519 0
	adrp	x1, .LANCHOR5
	add	x1, x1, :lo12:.LANCHOR5
	.loc 2 2520 0
	ldr	x4, [x0, #:lo12:.LANCHOR43]
	.loc 2 2519 0
	mov	w0, 0
.LVL459:
.L224:
	.loc 2 2519 0 is_stmt 0 discriminator 1
	ldrh	w3, [x1]
	cmp	w0, w3
	bcs	.L222
	.loc 2 2520 0 is_stmt 1 discriminator 3
	ubfiz	x5, x0, 1, 32
	.loc 2 2519 0 discriminator 3
	add	w0, w0, 1
.LVL460:
	.loc 2 2520 0 discriminator 3
	ldrh	w3, [x4, x5]
	add	w3, w3, 1
	strh	w3, [x4, x5]
	b	.L224
.LVL461:
.L227:
	.loc 2 2525 0
	adrp	x0, .LANCHOR48
	ldrh	w0, [x0, #:lo12:.LANCHOR48]
	add	w0, w0, w0, lsl 1
	lsr	w0, w0, 2
	bl	GetFreeBlockMaxEraseCount
.LVL462:
	and	w6, w0, 65535
.LVL463:
	.loc 2 2526 0
	add	w0, w7, 64
.LVL464:
	cmp	w6, w0
	bcc	.L229
	.loc 2 2529 0
	adrp	x0, .LANCHOR41
	ldr	x0, [x0, #:lo12:.LANCHOR41]
	cbz	x0, .L229
	.loc 2 2533 0
	adrp	x1, .LANCHOR5
	.loc 2 2537 0
	mov	w3, 65535
	.loc 2 2536 0
	mov	x14, -6148914691236517206
	.loc 2 2537 0
	mov	w2, w3
	.loc 2 2533 0
	ldrh	w13, [x1, #:lo12:.LANCHOR5]
	.loc 2 2536 0
	adrp	x1, .LANCHOR40
	.loc 2 2531 0
	mov	w12, w3
	.loc 2 2536 0
	movk	x14, 0xaaab, lsl 0
	ldr	x11, [x1, #:lo12:.LANCHOR40]
	.loc 2 2537 0
	adrp	x1, .LANCHOR43
	.loc 2 2546 0
	mov	w15, 6
	.loc 2 2537 0
	ldr	x4, [x1, #:lo12:.LANCHOR43]
	mov	w1, 0
.LVL465:
.L230:
	.loc 2 2531 0
	ldrh	w5, [x0]
	cmp	w5, w12
	bne	.L233
	mov	w19, w2
.LVL466:
.L232:
	.loc 2 2549 0
	mov	w0, 65535
	cmp	w19, w0
	beq	.L229
	.loc 2 2551 0
	ubfiz	x2, x19, 1, 32
	ldrh	w5, [x4, x2]
.LVL467:
	.loc 2 2552 0
	cmp	w7, w5
	bcs	.L234
	.loc 2 2554 0
	bl	GetFreeBlockMinEraseCount
.LVL468:
	cmp	w7, w0, uxth
	bcs	.L234
	.loc 2 2555 0
	str	w3, [x8, #:lo12:.LANCHOR77]
.L234:
	.loc 2 2557 0
	cmp	w10, w5
	bls	.L229
	.loc 2 2557 0 is_stmt 0 discriminator 1
	add	w0, w5, 128
	cmp	w6, w0
	ble	.L229
	.loc 2 2559 0 is_stmt 1
	add	w0, w5, 256
	adrp	x1, .LANCHOR76
	cmp	w10, w0
	bhi	.L235
	.loc 2 2559 0 is_stmt 0 discriminator 1
	ldr	w3, [x1, #:lo12:.LANCHOR76]
.LVL469:
	add	w0, w5, 768
	cmp	w0, w3
	bcs	.L229
.L235:
	.loc 2 2561 0 is_stmt 1
	adrp	x0, .LANCHOR42
	ldr	w3, [x1, #:lo12:.LANCHOR76]
	mov	w1, w19
	ldr	x0, [x0, #:lo12:.LANCHOR42]
	ldrh	w4, [x0, x2]
	mov	w2, w10
	adrp	x0, .LC72
	add	x0, x0, :lo12:.LC72
	bl	printf
.LVL470:
	.loc 2 2562 0
	adrp	x0, .LANCHOR87
	mov	w1, 1
	str	w1, [x0, #:lo12:.LANCHOR87]
	.loc 2 2563 0
	b	.L228
.LVL471:
.L233:
	.loc 2 2532 0
	add	w1, w1, 1
.LVL472:
	and	w1, w1, 65535
.LVL473:
	.loc 2 2533 0
	cmp	w1, w13
	bhi	.L229
	.loc 2 2535 0
	ldrh	w16, [x0, 4]
	cbz	w16, .L231
	.loc 2 2536 0
	sub	x0, x0, x11
.LVL474:
	asr	x0, x0, 1
	mul	x0, x0, x14
	and	w19, w0, 65535
.LVL475:
	.loc 2 2537 0
	and	x0, x0, 65535
	ldrh	w0, [x4, x0, lsl 1]
	cmp	w7, w0
	bcs	.L232
	.loc 2 2541 0
	cmp	w3, w0
	bls	.L231
	mov	w3, w0
.LVL476:
	.loc 2 2536 0
	mov	w2, w19
.LVL477:
.L231:
	.loc 2 2546 0
	umaddl	x0, w5, w15, x11
.LVL478:
	b	.L230
	.cfi_endproc
.LFE296:
	.size	GetSwlReplaceBlock, .-GetSwlReplaceBlock
	.section	.text.free_data_superblock,"ax",@progbits
	.align	2
	.global	free_data_superblock
	.type	free_data_superblock, %function
free_data_superblock:
.LFB297:
	.loc 2 2573 0
	.cfi_startproc
.LVL479:
	and	w0, w0, 65535
	.loc 2 2574 0
	mov	w1, 65535
	cmp	w0, w1
	beq	.L249
.LVL480:
	.loc 2 2573 0
	stp	x29, x30, [sp, -16]!
	.cfi_def_cfa_offset 16
	.cfi_offset 29, -16
	.cfi_offset 30, -8
.LBB221:
.LBB222:
	.loc 2 2576 0
	adrp	x2, .LANCHOR42
	ubfiz	x1, x0, 1, 16
.LBE222:
.LBE221:
	.loc 2 2573 0
	add	x29, sp, 0
	.cfi_def_cfa_register 29
.LBB224:
.LBB223:
	.loc 2 2576 0
	ldr	x2, [x2, #:lo12:.LANCHOR42]
	strh	wzr, [x2, x1]
	.loc 2 2577 0
	bl	INSERT_FREE_LIST
.LVL481:
.LBE223:
.LBE224:
	.loc 2 2579 0
	mov	w0, 0
	ldp	x29, x30, [sp], 16
	.cfi_restore 30
	.cfi_restore 29
	.cfi_def_cfa 31, 0
	ret
.LVL482:
.L249:
	mov	w0, 0
	ret
	.cfi_endproc
.LFE297:
	.size	free_data_superblock, .-free_data_superblock
	.section	.text.get_new_active_ppa,"ax",@progbits
	.align	2
	.global	get_new_active_ppa
	.type	get_new_active_ppa, %function
get_new_active_ppa:
.LFB300:
	.loc 2 2706 0
	.cfi_startproc
.LVL483:
	stp	x29, x30, [sp, -48]!
	.cfi_def_cfa_offset 48
	.cfi_offset 29, -48
	.cfi_offset 30, -40
	add	x29, sp, 0
	.cfi_def_cfa_register 29
	stp	x19, x20, [sp, 16]
	.cfi_offset 19, -32
	.cfi_offset 20, -24
	mov	x19, x0
	.loc 2 2710 0
	ldrh	w1, [x0]
	mov	w0, 65535
.LVL484:
	.loc 2 2706 0
	str	x21, [sp, 32]
	.cfi_offset 21, -16
	.loc 2 2710 0
	cmp	w1, w0
	bne	.L253
	.loc 2 2710 0 is_stmt 0 discriminator 1
	adrp	x1, .LANCHOR88
	adrp	x0, .LC1
	mov	w2, 2710
	add	x1, x1, :lo12:.LANCHOR88
	add	x0, x0, :lo12:.LC1
	bl	printf
.LVL485:
.L253:
	.loc 2 2711 0 is_stmt 1
	adrp	x20, .LANCHOR19
	ldrh	w1, [x19, 2]
	ldrh	w0, [x20, #:lo12:.LANCHOR19]
	cmp	w1, w0
	bne	.L254
	.loc 2 2711 0 is_stmt 0 discriminator 1
	adrp	x1, .LANCHOR88
	adrp	x0, .LC1
	mov	w2, 2711
	add	x1, x1, :lo12:.LANCHOR88
	add	x0, x0, :lo12:.LC1
	bl	printf
.LVL486:
.L254:
	.loc 2 2712 0 is_stmt 1
	ldrh	w0, [x19, 4]
	cbnz	w0, .L255
	.loc 2 2712 0 is_stmt 0 discriminator 1
	adrp	x1, .LANCHOR88
	adrp	x0, .LC1
	mov	w2, 2712
	add	x1, x1, :lo12:.LANCHOR88
	add	x0, x0, :lo12:.LC1
	bl	printf
.LVL487:
.L255:
	.loc 2 2714 0 is_stmt 1
	ldrb	w0, [x19, 6]
	.loc 2 2717 0
	adrp	x1, .LANCHOR3
	.loc 2 2713 0
	strb	wzr, [x19, 10]
	.loc 2 2714 0
	add	x0, x0, 8
	.loc 2 2717 0
	ldrh	w2, [x1, #:lo12:.LANCHOR3]
	.loc 2 2715 0
	mov	w1, 65535
	.loc 2 2714 0
	ldrh	w0, [x19, x0, lsl 1]
.LVL488:
.L256:
	.loc 2 2715 0
	cmp	w0, w1
	beq	.L258
	.loc 2 2723 0
	ldrh	w21, [x19, 2]
	.loc 2 2731 0
	mov	w3, 65535
	.loc 2 2724 0
	ldrh	w1, [x19, 4]
	.loc 2 2723 0
	orr	w21, w21, w0, lsl 10
.LVL489:
	ldrb	w0, [x19, 6]
.LVL490:
	.loc 2 2724 0
	sub	w1, w1, #1
	and	w1, w1, 65535
	strh	w1, [x19, 4]
.L260:
	.loc 2 2726 0
	add	w0, w0, 1
	and	w0, w0, 255
	.loc 2 2727 0
	cmp	w2, w0
	bne	.L259
	.loc 2 2728 0
	ldrh	w0, [x19, 2]
	add	w0, w0, 1
	strh	w0, [x19, 2]
	.loc 2 2729 0
	mov	w0, 0
.L259:
	.loc 2 2731 0
	add	x4, x19, x0, sxtw 1
	ldrh	w4, [x4, 16]
	cmp	w4, w3
	beq	.L260
	strb	w0, [x19, 6]
	.loc 2 2733 0
	ldrh	w2, [x19, 2]
	ldrh	w0, [x20, #:lo12:.LANCHOR19]
	cmp	w2, w0
	bne	.L252
	.loc 2 2733 0 is_stmt 0 discriminator 1
	cbz	w1, .L252
	.loc 2 2733 0 discriminator 2
	adrp	x1, .LANCHOR88
	adrp	x0, .LC1
	mov	w2, 2733
	add	x1, x1, :lo12:.LANCHOR88
	add	x0, x0, :lo12:.LC1
	bl	printf
.LVL491:
.L252:
	.loc 2 2735 0 is_stmt 1
	mov	w0, w21
	ldr	x21, [sp, 32]
.LVL492:
	ldp	x19, x20, [sp, 16]
.LVL493:
	ldp	x29, x30, [sp], 48
	.cfi_remember_state
	.cfi_restore 30
	.cfi_restore 29
	.cfi_restore 21
	.cfi_restore 19
	.cfi_restore 20
	.cfi_def_cfa 31, 0
	ret
.LVL494:
.L258:
	.cfi_restore_state
	.loc 2 2716 0
	ldrb	w0, [x19, 6]
.LVL495:
	add	w0, w0, 1
	and	w0, w0, 255
	strb	w0, [x19, 6]
	.loc 2 2717 0
	cmp	w0, w2
	bne	.L257
	.loc 2 2718 0
	ldrh	w0, [x19, 2]
	.loc 2 2719 0
	strb	wzr, [x19, 6]
	.loc 2 2718 0
	add	w0, w0, 1
	strh	w0, [x19, 2]
.L257:
	.loc 2 2721 0
	ldrb	w0, [x19, 6]
	add	x0, x0, 8
	ldrh	w0, [x19, x0, lsl 1]
.LVL496:
	b	.L256
	.cfi_endproc
.LFE300:
	.size	get_new_active_ppa, .-get_new_active_ppa
	.section	.text.FtlGcBufInit,"ax",@progbits
	.align	2
	.global	FtlGcBufInit
	.type	FtlGcBufInit, %function
FtlGcBufInit:
.LFB303:
	.file 5 "drivers/rkflash/rksftl/sftl_gc.c"
	.loc 5 22 0
	.cfi_startproc
	.loc 5 27 0
	adrp	x1, .LANCHOR90
	.loc 5 25 0
	adrp	x0, .LANCHOR89
	.loc 5 28 0
	adrp	x7, .LANCHOR91
	.loc 5 29 0
	adrp	x6, .LANCHOR92
	.loc 5 27 0
	ldr	x5, [x1, #:lo12:.LANCHOR90]
	.loc 5 28 0
	adrp	x1, .LANCHOR23
	.loc 5 25 0
	str	wzr, [x0, #:lo12:.LANCHOR89]
.LVL497:
	.loc 5 26 0
	adrp	x0, .LANCHOR3
	.loc 5 28 0
	ldrh	w10, [x1, #:lo12:.LANCHOR23]
	.loc 5 29 0
	adrp	x1, .LANCHOR24
	.loc 5 26 0
	ldrh	w0, [x0, #:lo12:.LANCHOR3]
	mov	w8, 24
	.loc 5 29 0
	ldrh	w11, [x1, #:lo12:.LANCHOR24]
	.loc 5 30 0
	adrp	x1, .LANCHOR93
	.loc 5 28 0
	ldr	x14, [x7, #:lo12:.LANCHOR91]
	mov	x3, x5
	ldr	x4, [x1, #:lo12:.LANCHOR93]
	.loc 5 26 0
	mov	w2, 0
	.loc 5 29 0
	ldr	x15, [x6, #:lo12:.LANCHOR92]
	nop // between mem op and mult-accumulate
	umaddl	x8, w0, w8, x5
	add	x4, x4, 8
	.loc 5 26 0
	mov	w1, 0
	.loc 5 27 0
	mov	w16, 1
.LVL498:
.L268:
	add	w13, w2, w10
	add	w12, w1, w11
	.loc 5 26 0 discriminator 1
	cmp	x3, x8
	bne	.L269
	.loc 5 34 0
	adrp	x1, .LANCHOR94
	.loc 5 36 0
	ldr	x7, [x7, #:lo12:.LANCHOR91]
	.loc 5 37 0
	ldr	x6, [x6, #:lo12:.LANCHOR92]
	.loc 5 35 0
	mov	w8, 24
	.loc 5 34 0
	ldr	w4, [x1, #:lo12:.LANCHOR94]
.L270:
.LVL499:
	.loc 5 34 0 is_stmt 0 discriminator 1
	cmp	w0, w4
	bcc	.L271
	.loc 5 39 0 is_stmt 1
	ret
.LVL500:
.L269:
	.loc 5 28 0 discriminator 3
	asr	w2, w2, 2
	.loc 5 29 0 discriminator 3
	asr	w1, w1, 2
	.loc 5 28 0 discriminator 3
	add	x2, x14, x2, sxtw 2
	.loc 5 29 0 discriminator 3
	add	x1, x15, x1, sxtw 2
	.loc 5 27 0 discriminator 3
	str	w16, [x3, 16]
	.loc 5 29 0 discriminator 3
	stp	x2, x1, [x3]
	add	x3, x3, 24
	.loc 5 31 0 discriminator 3
	stp	x2, x1, [x4]
	add	x4, x4, 32
	mov	w1, w12
	mov	w2, w13
	b	.L268
.LVL501:
.L271:
	.loc 5 35 0 discriminator 3
	umull	x3, w0, w8
	.loc 5 36 0 discriminator 3
	mul	w1, w10, w0
	.loc 5 35 0 discriminator 3
	add	x2, x5, x3
	.loc 5 36 0 discriminator 3
	asr	w1, w1, 2
	add	x1, x7, x1, sxtw 2
	.loc 5 35 0 discriminator 3
	str	wzr, [x2, 16]
	.loc 5 36 0 discriminator 3
	str	x1, [x5, x3]
	.loc 5 37 0 discriminator 3
	mul	w1, w11, w0
	.loc 5 34 0 discriminator 3
	add	w0, w0, 1
.LVL502:
	and	w0, w0, 65535
.LVL503:
	.loc 5 37 0 discriminator 3
	asr	w1, w1, 2
	add	x1, x6, x1, sxtw 2
	str	x1, [x2, 8]
	b	.L270
	.cfi_endproc
.LFE303:
	.size	FtlGcBufInit, .-FtlGcBufInit
	.section	.text.FtlGcBufFree,"ax",@progbits
	.align	2
	.global	FtlGcBufFree
	.type	FtlGcBufFree, %function
FtlGcBufFree:
.LFB304:
	.loc 5 42 0
	.cfi_startproc
.LVL504:
	.loc 5 47 0
	adrp	x2, .LANCHOR94
	.loc 5 46 0
	mov	w3, 0
	.loc 5 48 0
	mov	w8, 24
	.loc 5 47 0
	ldr	w7, [x2, #:lo12:.LANCHOR94]
	.loc 5 48 0
	adrp	x2, .LANCHOR90
	ldr	x5, [x2, #:lo12:.LANCHOR90]
.LVL505:
.L273:
	.loc 5 46 0 discriminator 1
	cmp	w3, w1
	bcs	.L272
	.loc 5 48 0
	ubfiz	x4, x3, 5, 16
	mov	w2, 0
	add	x4, x0, x4
	b	.L278
.LVL506:
.L274:
	.loc 5 47 0 discriminator 2
	add	w2, w2, 1
.LVL507:
	and	w2, w2, 65535
.LVL508:
.L278:
	.loc 5 47 0 is_stmt 0 discriminator 1
	cmp	w2, w7
	bcs	.L275
	.loc 5 48 0 is_stmt 1
	umull	x6, w2, w8
	add	x10, x5, x6
	ldr	x11, [x5, x6]
	ldr	x6, [x4, 8]
	cmp	x11, x6
	bne	.L274
	.loc 5 49 0
	str	wzr, [x10, 16]
.L275:
	.loc 5 46 0 discriminator 2
	add	w3, w3, 1
.LVL509:
	and	w3, w3, 65535
.LVL510:
	b	.L273
.LVL511:
.L272:
	ret
	.cfi_endproc
.LFE304:
	.size	FtlGcBufFree, .-FtlGcBufFree
	.section	.text.FtlGcBufAlloc,"ax",@progbits
	.align	2
	.global	FtlGcBufAlloc
	.type	FtlGcBufAlloc, %function
FtlGcBufAlloc:
.LFB305:
	.loc 5 57 0
	.cfi_startproc
.LVL512:
	.loc 5 62 0
	adrp	x2, .LANCHOR94
	.loc 5 61 0
	mov	w3, 0
	.loc 5 63 0
	mov	w7, 24
	.loc 5 64 0
	mov	w8, 1
	.loc 5 62 0
	ldr	w5, [x2, #:lo12:.LANCHOR94]
	.loc 5 63 0
	adrp	x2, .LANCHOR90
	ldr	x6, [x2, #:lo12:.LANCHOR90]
.LVL513:
.L280:
	.loc 5 61 0 discriminator 1
	cmp	w3, w1
	bcs	.L279
	mov	w2, 0
	b	.L285
.LVL514:
.L281:
	.loc 5 62 0 discriminator 2
	add	w2, w2, 1
.LVL515:
	and	w2, w2, 65535
.LVL516:
.L285:
	.loc 5 62 0 is_stmt 0 discriminator 1
	cmp	w2, w5
	bcs	.L282
	.loc 5 63 0 is_stmt 1
	umaddl	x4, w2, w7, x6
	ldr	w10, [x4, 16]
	cbnz	w10, .L281
	.loc 5 65 0
	ubfiz	x2, x3, 5, 16
.LVL517:
	ldr	x10, [x4]
	add	x2, x0, x2
	.loc 5 64 0
	str	w8, [x4, 16]
	.loc 5 66 0
	ldr	x4, [x4, 8]
	stp	x10, x4, [x2, 8]
.L282:
	.loc 5 61 0 discriminator 2
	add	w3, w3, 1
.LVL518:
	and	w3, w3, 65535
.LVL519:
	b	.L280
.L279:
	ret
	.cfi_endproc
.LFE305:
	.size	FtlGcBufAlloc, .-FtlGcBufAlloc
	.section	.text.IsBlkInGcList,"ax",@progbits
	.align	2
	.global	IsBlkInGcList
	.type	IsBlkInGcList, %function
IsBlkInGcList:
.LFB306:
	.loc 5 74 0
	.cfi_startproc
.LVL520:
	.loc 5 77 0
	adrp	x1, .LANCHOR95
	.loc 5 74 0
	and	w0, w0, 65535
	.loc 5 77 0
	ldrh	w2, [x1, #:lo12:.LANCHOR95]
	.loc 5 78 0
	adrp	x1, .LANCHOR96
	ldr	x3, [x1, #:lo12:.LANCHOR96]
	.loc 5 77 0
	mov	x1, 0
.LVL521:
.L287:
	.loc 5 77 0 is_stmt 0 discriminator 1
	cmp	w2, w1, uxth
	bhi	.L289
	.loc 5 81 0 is_stmt 1
	mov	w0, 0
.LVL522:
	ret
.L289:
	add	x1, x1, 1
.LVL523:
	.loc 5 78 0
	add	x4, x3, x1, lsl 1
	ldrh	w4, [x4, -2]
	cmp	w4, w0
	bne	.L287
	.loc 5 79 0
	mov	w0, 1
	.loc 5 82 0
	ret
	.cfi_endproc
.LFE306:
	.size	IsBlkInGcList, .-IsBlkInGcList
	.section	.text.FtlGcUpdatePage,"ax",@progbits
	.align	2
	.global	FtlGcUpdatePage
	.type	FtlGcUpdatePage, %function
FtlGcUpdatePage:
.LFB307:
	.loc 5 85 0
	.cfi_startproc
.LVL524:
	mov	w6, w0
	mov	w10, w1
	mov	w8, w2
	stp	x29, x30, [sp, -16]!
	.cfi_def_cfa_offset 16
	.cfi_offset 29, -16
	.cfi_offset 30, -8
	.loc 5 88 0
	lsr	w0, w0, 10
.LVL525:
	.loc 5 85 0
	add	x29, sp, 0
	.cfi_def_cfa_register 29
	.loc 5 88 0
	bl	P2V_block_in_plane
.LVL526:
	and	w7, w0, 65535
.LVL527:
	.loc 5 91 0
	adrp	x4, .LANCHOR95
	.loc 5 92 0
	adrp	x2, .LANCHOR96
	.loc 5 91 0
	mov	x3, 0
	ldrh	w1, [x4, #:lo12:.LANCHOR95]
	.loc 5 92 0
	ldr	x5, [x2, #:lo12:.LANCHOR96]
.LVL528:
.L292:
	and	w2, w3, 65535
.LVL529:
	.loc 5 91 0 discriminator 1
	cmp	w2, w1
	bcc	.L294
	.loc 5 96 0
	bne	.L293
	.loc 5 97 0
	and	x3, x3, 65535
	strh	w0, [x5, x3, lsl 1]
	.loc 5 98 0
	ldrh	w0, [x4, #:lo12:.LANCHOR95]
.LVL530:
	add	w0, w0, 1
	strh	w0, [x4, #:lo12:.LANCHOR95]
.LVL531:
	b	.L293
.LVL532:
.L294:
	add	x3, x3, 1
	.loc 5 92 0
	add	x2, x5, x3, lsl 1
.LVL533:
	ldrh	w2, [x2, -2]
	cmp	w2, w7
	bne	.L292
.LVL534:
.L293:
	.loc 5 101 0
	adrp	x4, .LANCHOR97
	adrp	x1, .LANCHOR98
	mov	w3, 12
	ldrh	w0, [x4, #:lo12:.LANCHOR97]
	ldr	x5, [x1, #:lo12:.LANCHOR98]
	umull	x3, w0, w3
	.loc 5 107 0
	add	w0, w0, 1
	.loc 5 101 0
	add	x7, x5, x3
.LVL535:
	.loc 5 102 0
	stp	w10, w8, [x7, 4]
	.loc 5 103 0
	str	w6, [x5, x3]
	.loc 5 107 0
	strh	w0, [x4, #:lo12:.LANCHOR97]
	.loc 5 108 0
	ldp	x29, x30, [sp], 16
	.cfi_restore 30
	.cfi_restore 29
	.cfi_def_cfa 31, 0
	ret
	.cfi_endproc
.LFE307:
	.size	FtlGcUpdatePage, .-FtlGcUpdatePage
	.section	.text.FtlGcRefreshBlock,"ax",@progbits
	.align	2
	.global	FtlGcRefreshBlock
	.type	FtlGcRefreshBlock, %function
FtlGcRefreshBlock:
.LFB314:
	.loc 5 345 0
	.cfi_startproc
.LVL536:
	stp	x29, x30, [sp, -32]!
	.cfi_def_cfa_offset 32
	.cfi_offset 29, -32
	.cfi_offset 30, -24
	add	x29, sp, 0
	.cfi_def_cfa_register 29
	str	x19, [sp, 16]
	.cfi_offset 19, -16
	.loc 5 345 0
	and	w19, w0, 65535
	.loc 5 347 0
	mov	w1, w19
	adrp	x0, .LC73
.LVL537:
	add	x0, x0, :lo12:.LC73
	bl	printf
.LVL538:
	.loc 5 349 0
	adrp	x3, .LANCHOR99
	ldrh	w4, [x3, #:lo12:.LANCHOR99]
	cmp	w19, w4
	beq	.L297
	.loc 5 349 0 is_stmt 0 discriminator 1
	adrp	x0, .LANCHOR100
	ldrh	w2, [x0, #:lo12:.LANCHOR100]
	cmp	w19, w2
	beq	.L297
	.loc 5 351 0 is_stmt 1
	mov	w1, 65535
	cmp	w4, w1
	bne	.L298
	.loc 5 352 0
	strh	w19, [x3, #:lo12:.LANCHOR99]
.L297:
	.loc 5 356 0
	mov	w0, 0
	ldr	x19, [sp, 16]
.LVL539:
	ldp	x29, x30, [sp], 32
	.cfi_remember_state
	.cfi_restore 30
	.cfi_restore 29
	.cfi_restore 19
	.cfi_def_cfa 31, 0
	ret
.L298:
	.cfi_restore_state
	.loc 5 353 0
	cmp	w2, w1
	bne	.L297
	.loc 5 354 0
	strh	w19, [x0, #:lo12:.LANCHOR100]
	b	.L297
	.cfi_endproc
.LFE314:
	.size	FtlGcRefreshBlock, .-FtlGcRefreshBlock
	.section	.text.FtlGcMarkBadPhyBlk,"ax",@progbits
	.align	2
	.global	FtlGcMarkBadPhyBlk
	.type	FtlGcMarkBadPhyBlk, %function
FtlGcMarkBadPhyBlk:
.LFB315:
	.loc 5 359 0
	.cfi_startproc
.LVL540:
	stp	x29, x30, [sp, -48]!
	.cfi_def_cfa_offset 48
	.cfi_offset 29, -48
	.cfi_offset 30, -40
	add	x29, sp, 0
	.cfi_def_cfa_register 29
	stp	x19, x20, [sp, 16]
	.cfi_offset 19, -32
	.cfi_offset 20, -24
	and	w20, w0, 65535
	.loc 5 364 0
	adrp	x19, .LANCHOR101
	.loc 5 359 0
	str	x21, [sp, 32]
	.cfi_offset 21, -16
	.loc 5 361 0
	mov	w0, w20
.LVL541:
	bl	P2V_block_in_plane
.LVL542:
	.loc 5 364 0
	ldrh	w1, [x19, #:lo12:.LANCHOR101]
	mov	w2, w20
	.loc 5 361 0
	mov	w21, w0
.LVL543:
	.loc 5 364 0
	adrp	x0, .LC74
.LVL544:
	add	x0, x0, :lo12:.LC74
	bl	printf
.LVL545:
	.loc 5 366 0
	mov	w0, w21
	bl	FtlGcRefreshBlock
.LVL546:
	.loc 5 368 0
	ldrh	w0, [x19, #:lo12:.LANCHOR101]
	.loc 5 369 0
	adrp	x2, .LANCHOR102
	add	x2, x2, :lo12:.LANCHOR102
	.loc 5 368 0
	mov	x1, 0
.LVL547:
.L301:
	.loc 5 368 0 is_stmt 0 discriminator 1
	cmp	w0, w1, uxth
	bhi	.L303
	.loc 5 372 0 is_stmt 1
	cmp	w0, 15
	bhi	.L302
	.loc 5 373 0
	add	w1, w0, 1
.LVL548:
	strh	w1, [x19, #:lo12:.LANCHOR101]
	adrp	x1, .LANCHOR102
	add	x1, x1, :lo12:.LANCHOR102
	strh	w20, [x1, w0, sxtw 1]
	b	.L302
.LVL549:
.L303:
	add	x1, x1, 1
.LVL550:
	.loc 5 369 0
	add	x3, x2, x1, lsl 1
	ldrh	w3, [x3, -2]
	cmp	w3, w20
	bne	.L301
.L302:
	.loc 5 375 0
	mov	w0, 0
	ldr	x21, [sp, 32]
.LVL551:
	ldp	x19, x20, [sp, 16]
.LVL552:
	ldp	x29, x30, [sp], 48
	.cfi_restore 30
	.cfi_restore 29
	.cfi_restore 21
	.cfi_restore 19
	.cfi_restore 20
	.cfi_def_cfa 31, 0
	ret
	.cfi_endproc
.LFE315:
	.size	FtlGcMarkBadPhyBlk, .-FtlGcMarkBadPhyBlk
	.section	.text.FtlGcReFreshBadBlk,"ax",@progbits
	.align	2
	.global	FtlGcReFreshBadBlk
	.type	FtlGcReFreshBadBlk, %function
FtlGcReFreshBadBlk:
.LFB316:
	.loc 5 379 0
	.cfi_startproc
	.loc 5 380 0
	adrp	x0, .LANCHOR101
	ldrh	w0, [x0, #:lo12:.LANCHOR101]
	cbz	w0, .L312
	.loc 5 380 0 is_stmt 0 discriminator 1
	adrp	x1, .LANCHOR99
	ldrh	w2, [x1, #:lo12:.LANCHOR99]
	mov	w1, 65535
	cmp	w2, w1
	bne	.L312
	.loc 5 379 0 is_stmt 1
	stp	x29, x30, [sp, -32]!
	.cfi_def_cfa_offset 32
	.cfi_offset 29, -32
	.cfi_offset 30, -24
	add	x29, sp, 0
	.cfi_def_cfa_register 29
	str	x19, [sp, 16]
	.cfi_offset 19, -16
	.loc 5 381 0
	adrp	x19, .LANCHOR103
	ldrh	w1, [x19, #:lo12:.LANCHOR103]
	cmp	w1, w0
	bcc	.L307
	.loc 5 382 0
	strh	wzr, [x19, #:lo12:.LANCHOR103]
.L307:
.LBB227:
.LBB228:
	.loc 5 383 0
	ldrh	w1, [x19, #:lo12:.LANCHOR103]
	adrp	x0, .LANCHOR102
	add	x0, x0, :lo12:.LANCHOR102
	ldrh	w0, [x0, x1, lsl 1]
	bl	P2V_block_in_plane
.LVL553:
	bl	FtlGcRefreshBlock
.LVL554:
	.loc 5 384 0
	ldrh	w0, [x19, #:lo12:.LANCHOR103]
	add	w0, w0, 1
	strh	w0, [x19, #:lo12:.LANCHOR103]
.LBE228:
.LBE227:
	.loc 5 387 0
	mov	w0, 0
	ldr	x19, [sp, 16]
	ldp	x29, x30, [sp], 32
	.cfi_restore 30
	.cfi_restore 29
	.cfi_restore 19
	.cfi_def_cfa 31, 0
	ret
.L312:
	mov	w0, 0
	ret
	.cfi_endproc
.LFE316:
	.size	FtlGcReFreshBadBlk, .-FtlGcReFreshBadBlk
	.section	.text.ftl_free,"ax",@progbits
	.align	2
	.global	ftl_free
	.type	ftl_free, %function
ftl_free:
.LFB337:
	.loc 1 24 0
	.cfi_startproc
.LVL555:
.LBB229:
.LBB230:
	.file 6 "include/linux/compat.h"
	.loc 6 80 0
	b	free
.LVL556:
.LBE230:
.LBE229:
	.cfi_endproc
.LFE337:
	.size	ftl_free, .-ftl_free
	.section	.text.ftl_malloc,"ax",@progbits
	.align	2
	.global	ftl_malloc
	.type	ftl_malloc, %function
ftl_malloc:
.LFB338:
	.loc 1 28 0
	.cfi_startproc
.LVL557:
	.loc 1 29 0
	mov	w1, 0
	sxtw	x0, w0
	b	kmalloc
.LVL558:
	.cfi_endproc
.LFE338:
	.size	ftl_malloc, .-ftl_malloc
	.section	.text.rknand_print_hex,"ax",@progbits
	.align	2
	.global	rknand_print_hex
	.type	rknand_print_hex, %function
rknand_print_hex:
.LFB339:
	.loc 1 33 0
	.cfi_startproc
.LVL559:
	stp	x29, x30, [sp, -96]!
	.cfi_def_cfa_offset 96
	.cfi_offset 29, -96
	.cfi_offset 30, -88
	add	x29, sp, 0
	.cfi_def_cfa_register 29
	stp	x21, x22, [sp, 32]
	.cfi_offset 21, -64
	.cfi_offset 22, -56
	mov	x22, x1
.LVL560:
	stp	x23, x24, [sp, 48]
	.cfi_offset 23, -48
	.cfi_offset 24, -40
	.loc 1 42 0
	adrp	x24, .LC75
	.loc 1 33 0
	stp	x25, x26, [sp, 64]
	mov	w23, w2
	stp	x27, x28, [sp, 80]
	.cfi_offset 25, -32
	.cfi_offset 26, -24
	.cfi_offset 27, -16
	.cfi_offset 28, -8
	.loc 1 49 0
	adrp	x25, .LC77
	.loc 1 33 0
	mov	x28, x0
	mov	w27, w3
	.loc 1 42 0
	add	x24, x24, :lo12:.LC75
	.loc 1 49 0
	add	x25, x25, :lo12:.LC77
	.loc 1 33 0
	stp	x19, x20, [sp, 16]
	.cfi_offset 19, -80
	.cfi_offset 20, -72
	.loc 1 40 0
	mov	w21, 0
	mov	x19, 0
	.loc 1 39 0
	mov	w20, 0
	.loc 1 47 0
	adrp	x26, .LC76
.LVL561:
.L318:
	.loc 1 40 0 discriminator 1
	cmp	w27, w19
	bhi	.L324
	.loc 1 56 0
	ldp	x19, x20, [sp, 16]
.LVL562:
	.loc 1 55 0
	adrp	x0, .LC78
	.loc 1 56 0
	ldp	x21, x22, [sp, 32]
.LVL563:
	.loc 1 55 0
	add	x0, x0, :lo12:.LC78
	.loc 1 56 0
	ldp	x23, x24, [sp, 48]
.LVL564:
	ldp	x25, x26, [sp, 64]
	ldp	x27, x28, [sp, 80]
.LVL565:
	ldp	x29, x30, [sp], 96
	.cfi_remember_state
	.cfi_restore 30
	.cfi_restore 29
	.cfi_restore 27
	.cfi_restore 28
	.cfi_restore 25
	.cfi_restore 26
	.cfi_restore 23
	.cfi_restore 24
	.cfi_restore 21
	.cfi_restore 22
	.cfi_restore 19
	.cfi_restore 20
	.cfi_def_cfa 31, 0
	.loc 1 55 0
	b	printf
.LVL566:
.L324:
	.cfi_restore_state
	.loc 1 41 0
	cbnz	w20, .L319
	.loc 1 42 0
	mov	w2, w21
	mov	x1, x28
	mov	x0, x24
	bl	printf
.LVL567:
.L319:
	.loc 1 44 0
	cmp	w23, 4
	bne	.L320
	.loc 1 45 0
	ldr	w1, [x22, x19, lsl 2]
.L327:
	.loc 1 47 0
	add	x0, x26, :lo12:.LC76
.L326:
	.loc 1 49 0
	bl	printf
.LVL568:
	.loc 1 50 0
	add	w20, w20, 1
.LVL569:
	cmp	w20, 15
	bls	.L323
.LVL570:
	.loc 1 51 0
	mov	w20, 0
	.loc 1 52 0
	adrp	x0, .LC78
	add	x0, x0, :lo12:.LC78
	bl	printf
.LVL571:
.L323:
	add	x19, x19, 1
.LVL572:
	add	w21, w21, w23
	b	.L318
.LVL573:
.L320:
	.loc 1 46 0
	cmp	w23, 2
	bne	.L322
	.loc 1 47 0
	ldrsh	w1, [x22, x19, lsl 1]
	b	.L327
.L322:
	.loc 1 49 0
	ldrb	w1, [x22, x19]
	mov	x0, x25
	b	.L326
	.cfi_endproc
.LFE339:
	.size	rknand_print_hex, .-rknand_print_hex
	.section	.text.FlashReadPages,"ax",@progbits
	.align	2
	.global	FlashReadPages
	.type	FlashReadPages, %function
FlashReadPages:
.LFB341:
	.loc 1 85 0
	.cfi_startproc
.LVL574:
	stp	x29, x30, [sp, -96]!
	.cfi_def_cfa_offset 96
	.cfi_offset 29, -96
	.cfi_offset 30, -88
	.loc 1 87 0
	adrp	x2, .LANCHOR0
.LVL575:
	add	x3, x2, :lo12:.LANCHOR0
	ubfiz	x1, x1, 5, 32
.LVL576:
	.loc 1 85 0
	add	x29, sp, 0
	.cfi_def_cfa_register 29
	str	x25, [sp, 64]
	.cfi_offset 25, -32
	.loc 1 87 0
	ldrh	w25, [x3, 12]
.LVL577:
	.loc 1 85 0
	stp	x21, x22, [sp, 32]
	.cfi_offset 21, -64
	.cfi_offset 22, -56
	.loc 1 92 0
	adrp	x21, .LANCHOR104
	.loc 1 85 0
	stp	x23, x24, [sp, 48]
	.loc 1 92 0
	adrp	x22, .LC1
	.loc 1 85 0
	stp	x19, x20, [sp, 16]
	.cfi_offset 23, -48
	.cfi_offset 24, -40
	.cfi_offset 19, -80
	.cfi_offset 20, -72
	add	x24, x0, x1
	mov	x19, x0
	mov	x23, x2
	.loc 1 92 0
	add	x21, x21, :lo12:.LANCHOR104
	add	x22, x22, :lo12:.LC1
.LVL578:
.L329:
	.loc 1 91 0 discriminator 1
	cmp	x19, x24
	bne	.L336
	.loc 1 112 0
	ldp	x19, x20, [sp, 16]
	mov	w0, 0
	ldp	x21, x22, [sp, 32]
	ldp	x23, x24, [sp, 48]
	ldr	x25, [sp, 64]
.LVL579:
	ldp	x29, x30, [sp], 96
	.cfi_remember_state
	.cfi_restore 30
	.cfi_restore 29
	.cfi_restore 25
	.cfi_restore 23
	.cfi_restore 24
	.cfi_restore 21
	.cfi_restore 22
	.cfi_restore 19
	.cfi_restore 20
	.cfi_def_cfa 31, 0
	ret
.LVL580:
.L336:
	.cfi_restore_state
	.loc 1 92 0
	ldr	x0, [x19, 8]
	cbz	x0, .L330
	.loc 1 92 0 is_stmt 0 discriminator 2
	ldr	x0, [x19, 16]
	cbnz	x0, .L331
.L330:
	.loc 1 92 0 discriminator 3
	mov	w2, 92
	mov	x1, x21
	mov	x0, x22
	bl	printf
.LVL581:
.L331:
	.loc 1 93 0 is_stmt 1
	ldr	w0, [x19, 4]
	.loc 1 94 0
	adrp	x20, .LANCHOR105
	add	x20, x20, :lo12:.LANCHOR105
	.loc 1 93 0
	add	x2, x29, 88
	add	x1, x29, 92
	bl	l2p_addr_tran.isra.0
.LVL582:
	.loc 1 94 0
	ldrb	w0, [x29, 88]
	ldr	w1, [x29, 92]
	ldp	x2, x3, [x19, 8]
	ldr	x4, [x20, 24]
	blr	x4
.LVL583:
	.loc 1 98 0
	str	w0, [x19]
	.loc 1 99 0
	add	x0, x23, :lo12:.LANCHOR0
.LVL584:
	ldrh	w0, [x0, 14]
	cmp	w0, 4
	bne	.L333
	.loc 1 100 0
	ldrb	w0, [x29, 88]
	ldr	x4, [x20, 24]
	ldp	x2, x3, [x19, 8]
	ldr	w1, [x29, 92]
	add	x3, x3, 8
	add	x2, x2, 2048
	add	w1, w25, w1
	blr	x4
.LVL585:
	.loc 1 104 0
	cmn	w0, #1
	beq	.L334
	.loc 1 105 0 discriminator 1
	ldr	x0, [x19, 16]
.LVL586:
	.loc 1 104 0 discriminator 1
	ldr	w1, [x0, 12]
	cmn	w1, #1
	bne	.L333
	.loc 1 105 0
	ldr	w1, [x0, 8]
	cmn	w1, #1
	bne	.L333
	.loc 1 106 0
	ldr	w0, [x0]
	cmn	w0, #1
	beq	.L333
.L334:
	.loc 1 108 0
	mov	w0, -1
	str	w0, [x19]
.L333:
	add	x19, x19, 32
	b	.L329
	.cfi_endproc
.LFE341:
	.size	FlashReadPages, .-FlashReadPages
	.section	.text.FtlLoadFactoryBbt,"ax",@progbits
	.align	2
	.global	FtlLoadFactoryBbt
	.type	FtlLoadFactoryBbt, %function
FtlLoadFactoryBbt:
.LFB230:
	.loc 4 279 0
	.cfi_startproc
	stp	x29, x30, [sp, -112]!
	.cfi_def_cfa_offset 112
	.cfi_offset 29, -112
	.cfi_offset 30, -104
	.loc 4 286 0
	adrp	x2, .LANCHOR107
	adrp	x0, .LANCHOR106
	add	x1, x0, :lo12:.LANCHOR106
	.loc 4 279 0
	add	x29, sp, 0
	.cfi_def_cfa_register 29
	.loc 4 286 0
	ldr	x2, [x2, #:lo12:.LANCHOR107]
	.loc 4 279 0
	stp	x21, x22, [sp, 32]
	.cfi_offset 21, -80
	.cfi_offset 22, -72
	mov	x22, x0
	stp	x25, x26, [sp, 64]
	.cfi_offset 25, -48
	.cfi_offset 26, -40
	.loc 4 291 0
	adrp	x26, .LANCHOR17
	.loc 4 279 0
	stp	x27, x28, [sp, 80]
	.cfi_offset 27, -32
	.cfi_offset 28, -24
	.loc 4 291 0
	add	x28, x26, :lo12:.LANCHOR17
	.loc 4 279 0
	stp	x19, x20, [sp, 16]
	.cfi_offset 19, -96
	.cfi_offset 20, -88
	adrp	x20, .LANCHOR37
	stp	x23, x24, [sp, 48]
	.cfi_offset 23, -64
	.cfi_offset 24, -56
	add	x20, x20, :lo12:.LANCHOR37
	.loc 4 286 0
	str	x2, [x1, 8]
	.loc 4 287 0
	adrp	x2, .LANCHOR108
	.loc 4 289 0
	adrp	x23, .LANCHOR10
	add	x20, x20, 12
	.loc 4 287 0
	ldr	x25, [x2, #:lo12:.LANCHOR108]
	.loc 4 289 0
	add	x23, x23, :lo12:.LANCHOR10
	mov	w21, 0
	.loc 4 290 0
	mov	w27, -1
	.loc 4 287 0
	str	x25, [x1, 16]
.LVL587:
.L348:
	.loc 4 289 0 discriminator 1
	ldrh	w0, [x23]
	cmp	w21, w0
	bcc	.L353
	.loc 4 314 0
	ldp	x19, x20, [sp, 16]
	mov	w0, 0
	ldp	x21, x22, [sp, 32]
.LVL588:
	ldp	x23, x24, [sp, 48]
	ldp	x25, x26, [sp, 64]
.LVL589:
	ldp	x27, x28, [sp, 80]
	ldp	x29, x30, [sp], 112
	.cfi_remember_state
	.cfi_restore 30
	.cfi_restore 29
	.cfi_restore 27
	.cfi_restore 28
	.cfi_restore 25
	.cfi_restore 26
	.cfi_restore 23
	.cfi_restore 24
	.cfi_restore 21
	.cfi_restore 22
	.cfi_restore 19
	.cfi_restore 20
	.cfi_def_cfa 31, 0
	ret
.LVL590:
.L353:
	.cfi_restore_state
	.loc 4 291 0
	ldrh	w19, [x26, #:lo12:.LANCHOR17]
	.loc 4 293 0
	add	x24, x22, :lo12:.LANCHOR106
	.loc 4 290 0
	strh	w27, [x20]
	.loc 4 301 0
	mov	w3, 61664
	.loc 4 291 0
	sub	w19, w19, #1
	and	w19, w19, 65535
.LVL591:
.L349:
	.loc 4 291 0 is_stmt 0 discriminator 1
	ldrh	w0, [x28]
	sub	w1, w0, #15
	cmp	w1, w19
	bgt	.L351
	.loc 4 292 0 is_stmt 1
	madd	w0, w0, w21, w19
	.loc 4 294 0
	mov	w2, 1
	str	w3, [x29, 108]
.LVL592:
	mov	w1, w2
	.loc 4 292 0
	lsl	w0, w0, 10
	.loc 4 293 0
	str	w0, [x24, 4]
	.loc 4 294 0
	mov	x0, x24
	bl	FlashReadPages
.LVL593:
	.loc 4 295 0
	ldr	w0, [x24]
	ldr	w3, [x29, 108]
	cmn	w0, #1
	beq	.L350
	.loc 4 301 0
	ldrh	w0, [x25]
	cmp	w0, w3
	bne	.L350
	.loc 4 303 0
	strh	w19, [x20]
.L351:
	.loc 4 289 0 discriminator 2
	add	w21, w21, 1
.LVL594:
	add	x20, x20, 2
	b	.L348
.L350:
	.loc 4 291 0 discriminator 2
	sub	w19, w19, #1
.LVL595:
	and	w19, w19, 65535
.LVL596:
	b	.L349
	.cfi_endproc
.LFE230:
	.size	FtlLoadFactoryBbt, .-FtlLoadFactoryBbt
	.section	.text.FtlGetLastWrittenPage,"ax",@progbits
	.align	2
	.global	FtlGetLastWrittenPage
	.type	FtlGetLastWrittenPage, %function
FtlGetLastWrittenPage:
.LFB236:
	.loc 2 47 0
	.cfi_startproc
.LVL597:
	stp	x29, x30, [sp, -160]!
	.cfi_def_cfa_offset 160
	.cfi_offset 29, -160
	.cfi_offset 30, -152
	.loc 2 51 0
	cmp	w1, 1
	.loc 2 47 0
	add	x29, sp, 0
	.cfi_def_cfa_register 29
	stp	x23, x24, [sp, 48]
	.cfi_offset 23, -112
	.cfi_offset 24, -104
	mov	w23, w1
	stp	x19, x20, [sp, 16]
	stp	x21, x22, [sp, 32]
	.cfi_offset 19, -144
	.cfi_offset 20, -136
	.cfi_offset 21, -128
	.cfi_offset 22, -120
	.loc 2 51 0
	bne	.L359
	.loc 2 51 0 is_stmt 0 discriminator 1
	adrp	x1, .LANCHOR20
.LVL598:
	ldrh	w19, [x1, #:lo12:.LANCHOR20]
.L360:
.LVL599:
	.loc 2 56 0 is_stmt 1 discriminator 4
	sub	w19, w19, #1
.LVL600:
	.loc 2 53 0 discriminator 4
	adrp	x1, ftl_temp_buf
	.loc 2 56 0 discriminator 4
	sxth	w19, w19
	.loc 2 53 0 discriminator 4
	add	x1, x1, :lo12:ftl_temp_buf
	.loc 2 57 0 discriminator 4
	lsl	w21, w0, 10
	.loc 2 53 0 discriminator 4
	str	x1, [x29, 72]
	.loc 2 57 0 discriminator 4
	orr	w0, w19, w21
.LVL601:
	.loc 2 54 0 discriminator 4
	add	x1, x29, 96
	.loc 2 57 0 discriminator 4
	str	w0, [x29, 68]
	.loc 2 58 0 discriminator 4
	mov	w2, w23
	.loc 2 54 0 discriminator 4
	str	x1, [x29, 80]
.LVL602:
	.loc 2 58 0 discriminator 4
	add	x0, x29, 64
	mov	w1, 1
	bl	FlashReadPages
.LVL603:
	.loc 2 59 0 discriminator 4
	ldr	w0, [x29, 96]
	cmn	w0, #1
	bne	.L361
	mov	w22, 0
	.loc 2 61 0
	mov	w24, 2
.LVL604:
.L362:
	.loc 2 60 0
	cmp	w22, w19
	ble	.L365
.LVL605:
.L361:
	.loc 2 73 0
	mov	w0, w19
	ldp	x19, x20, [sp, 16]
.LVL606:
	ldp	x21, x22, [sp, 32]
	ldp	x23, x24, [sp, 48]
.LVL607:
	ldp	x29, x30, [sp], 160
	.cfi_remember_state
	.cfi_restore 30
	.cfi_restore 29
	.cfi_restore 23
	.cfi_restore 24
	.cfi_restore 21
	.cfi_restore 22
	.cfi_restore 19
	.cfi_restore 20
	.cfi_def_cfa 31, 0
	ret
.LVL608:
.L359:
	.cfi_restore_state
	.loc 2 51 0 discriminator 2
	adrp	x1, .LANCHOR19
.LVL609:
	ldrh	w19, [x1, #:lo12:.LANCHOR19]
	b	.L360
.LVL610:
.L365:
	.loc 2 61 0
	add	w20, w22, w19
	.loc 2 63 0
	mov	w2, w23
	mov	w1, 1
	.loc 2 61 0
	sdiv	w20, w20, w24
.LVL611:
	.loc 2 62 0
	sxth	w0, w20
	orr	w0, w0, w21
	str	w0, [x29, 68]
	.loc 2 63 0
	add	x0, x29, 64
	bl	FlashReadPages
.LVL612:
	.loc 2 65 0
	ldr	w0, [x29, 96]
	cmn	w0, #1
	bne	.L363
	.loc 2 65 0 is_stmt 0 discriminator 1
	ldr	w0, [x29, 100]
	cmn	w0, #1
	bne	.L363
	.loc 2 66 0 is_stmt 1
	sub	w19, w20, #1
.LVL613:
	sxth	w19, w19
.LVL614:
	b	.L362
.L363:
	.loc 2 68 0
	add	w20, w20, 1
.LVL615:
	sxth	w22, w20
.LVL616:
	b	.L362
	.cfi_endproc
.LFE236:
	.size	FtlGetLastWrittenPage, .-FtlGetLastWrittenPage
	.section	.text.FlashProgPages,"ax",@progbits
	.align	2
	.global	FlashProgPages
	.type	FlashProgPages, %function
FlashProgPages:
.LFB342:
	.loc 1 115 0
	.cfi_startproc
.LVL617:
	stp	x29, x30, [sp, -144]!
	.cfi_def_cfa_offset 144
	.cfi_offset 29, -144
	.cfi_offset 30, -136
	ubfiz	x1, x1, 5, 32
.LVL618:
	add	x29, sp, 0
	.cfi_def_cfa_register 29
	stp	x25, x26, [sp, 64]
	.cfi_offset 25, -80
	.cfi_offset 26, -72
	mov	w25, w2
	mov	w26, w3
	.loc 1 117 0
	adrp	x2, .LANCHOR0
.LVL619:
	add	x3, x2, :lo12:.LANCHOR0
.LVL620:
	.loc 1 115 0
	stp	x27, x28, [sp, 80]
	stp	x19, x20, [sp, 16]
	.cfi_offset 27, -64
	.cfi_offset 28, -56
	.cfi_offset 19, -128
	.cfi_offset 20, -120
	mov	x20, x0
	stp	x21, x22, [sp, 32]
	.loc 1 121 0
	mov	x19, x0
	.loc 1 117 0
	ldrh	w27, [x3, 12]
.LVL621:
	.cfi_offset 21, -112
	.cfi_offset 22, -104
	.loc 1 122 0
	adrp	x21, .LANCHOR109
	.loc 1 115 0
	stp	x23, x24, [sp, 48]
	.cfi_offset 23, -96
	.cfi_offset 24, -88
	.loc 1 124 0
	adrp	x22, .LANCHOR105
	add	x24, x0, x1
	mov	x23, x2
	.loc 1 122 0
	add	x21, x21, :lo12:.LANCHOR109
	.loc 1 133 0
	add	x28, x22, :lo12:.LANCHOR105
.LVL622:
.L368:
	.loc 1 121 0 discriminator 1
	cmp	x19, x24
	bne	.L376
	.loc 1 142 0
	cbnz	w26, .L377
.LVL623:
.L395:
	.loc 1 172 0
	ldp	x19, x20, [sp, 16]
	mov	w0, 0
	ldp	x21, x22, [sp, 32]
	ldp	x23, x24, [sp, 48]
	ldp	x25, x26, [sp, 64]
.LVL624:
	ldp	x27, x28, [sp, 80]
.LVL625:
	ldp	x29, x30, [sp], 144
	.cfi_remember_state
	.cfi_restore 30
	.cfi_restore 29
	.cfi_restore 27
	.cfi_restore 28
	.cfi_restore 25
	.cfi_restore 26
	.cfi_restore 23
	.cfi_restore 24
	.cfi_restore 21
	.cfi_restore 22
	.cfi_restore 19
	.cfi_restore 20
	.cfi_def_cfa 31, 0
	ret
.LVL626:
.L376:
	.cfi_restore_state
	.loc 1 122 0
	ldr	x0, [x19, 8]
	cbz	x0, .L369
	.loc 1 122 0 is_stmt 0 discriminator 2
	ldr	x0, [x19, 16]
	cbnz	x0, .L370
.L369:
	.loc 1 122 0 discriminator 3
	adrp	x0, .LC1
	mov	w2, 122
	mov	x1, x21
	add	x0, x0, :lo12:.LC1
	bl	printf
.LVL627:
.L370:
	.loc 1 123 0 is_stmt 1
	ldr	w0, [x19, 4]
	add	x2, x29, 104
	add	x1, x29, 108
	bl	l2p_addr_tran.isra.0
.LVL628:
	.loc 1 124 0
	add	x0, x22, :lo12:.LANCHOR105
	ldr	w1, [x29, 108]
	ldp	x2, x3, [x19, 8]
	ldr	x4, [x0, 16]
	ldrb	w0, [x29, 104]
	blr	x4
.LVL629:
	.loc 1 129 0
	cbnz	w0, .L371
	.loc 1 128 0
	str	wzr, [x19]
.LVL630:
.L372:
	.loc 1 132 0
	add	x0, x23, :lo12:.LANCHOR0
	ldrh	w0, [x0, 14]
	cmp	w0, 4
	bne	.L374
	.loc 1 133 0
	ldrb	w0, [x29, 104]
	ldr	x4, [x28, 16]
	ldp	x2, x3, [x19, 8]
	ldr	w1, [x29, 108]
	add	x3, x3, 8
	add	x2, x2, 2048
	add	w1, w27, w1
	blr	x4
.LVL631:
	.loc 1 137 0
	cbz	w0, .L374
	.loc 1 138 0
	mov	w0, -1
.LVL632:
	str	w0, [x19]
.L374:
	add	x19, x19, 32
	b	.L368
.LVL633:
.L371:
	.loc 1 130 0
	mov	w0, -1
.LVL634:
	str	w0, [x19]
	b	.L372
.LVL635:
.L381:
.LBB231:
	.loc 1 147 0
	str	wzr, [x22]
	.loc 1 153 0
	mov	w2, w25
	.loc 1 148 0
	str	wzr, [x24]
	.loc 1 153 0
	mov	w1, 1
	.loc 1 151 0
	stp	x22, x24, [x29, 120]
	.loc 1 149 0
	ldr	w0, [x20, 4]
	str	w0, [x29, 116]
	.loc 1 153 0
	add	x0, x29, 112
	bl	FlashReadPages
.LVL636:
	.loc 1 154 0
	ldr	w26, [x29, 112]
	cmn	w26, #1
	bne	.L378
	.loc 1 155 0
	ldr	w1, [x20, 4]
	adrp	x0, .LC79
	add	x0, x0, :lo12:.LC79
	bl	printf
.LVL637:
	.loc 1 156 0
	str	w26, [x20]
.L378:
	.loc 1 158 0
	ldr	x0, [x20, 16]
	cbz	x0, .L379
	.loc 1 159 0
	ldr	w3, [x23, #:lo12:.LANCHOR110]
	ldr	w2, [x0]
	cmp	w2, w3
	beq	.L379
	.loc 1 160 0
	ldr	w1, [x20, 4]
	adrp	x0, .LC80
	add	x0, x0, :lo12:.LC80
	bl	printf
.LVL638:
	.loc 1 161 0
	mov	w0, -1
	str	w0, [x20]
.L379:
	.loc 1 164 0
	ldr	x0, [x20, 8]
	cbz	x0, .L380
	.loc 1 165 0
	ldr	w3, [x21, #:lo12:check_buf]
	ldr	w2, [x0]
	cmp	w2, w3
	beq	.L380
	.loc 1 166 0
	ldr	w1, [x20, 4]
	adrp	x0, .LC81
	add	x0, x0, :lo12:.LC81
	bl	printf
.LVL639:
	.loc 1 167 0
	mov	w0, -1
	str	w0, [x20]
.L380:
	add	x20, x20, 32
.L396:
.LBE231:
	.loc 1 144 0 discriminator 1
	cmp	x20, x19
	bne	.L381
	b	.L395
.LVL640:
.L377:
.LBB232:
	.loc 1 147 0 discriminator 1
	adrp	x21, check_buf
	.loc 1 148 0 discriminator 1
	adrp	x23, .LANCHOR110
	.loc 1 147 0 discriminator 1
	add	x22, x21, :lo12:check_buf
	.loc 1 148 0 discriminator 1
	add	x24, x23, :lo12:.LANCHOR110
	b	.L396
.LBE232:
	.cfi_endproc
.LFE342:
	.size	FlashProgPages, .-FlashProgPages
	.section	.text.FlashEraseBlocks,"ax",@progbits
	.align	2
	.global	FlashEraseBlocks
	.type	FlashEraseBlocks, %function
FlashEraseBlocks:
.LFB343:
	.loc 1 175 0
	.cfi_startproc
.LVL641:
	stp	x29, x30, [sp, -80]!
	.cfi_def_cfa_offset 80
	.cfi_offset 29, -80
	.cfi_offset 30, -72
	.loc 1 178 0
	adrp	x1, .LANCHOR0
.LVL642:
	add	x3, x1, :lo12:.LANCHOR0
	ubfiz	x2, x2, 5, 32
.LVL643:
	.loc 1 175 0
	add	x29, sp, 0
	.cfi_def_cfa_register 29
	stp	x23, x24, [sp, 48]
	add	x2, x2, 4
	.cfi_offset 23, -32
	.cfi_offset 24, -24
	.loc 1 178 0
	ldrh	w23, [x3, 12]
.LVL644:
	.loc 1 175 0
	stp	x19, x20, [sp, 16]
	.cfi_offset 19, -64
	.cfi_offset 20, -56
	add	x19, x0, 4
	stp	x21, x22, [sp, 32]
	.cfi_offset 21, -48
	.cfi_offset 22, -40
	mov	x20, x1
	.loc 1 183 0
	adrp	x21, .LANCHOR105
	add	x22, x0, x2
	.loc 1 188 0
	add	x24, x21, :lo12:.LANCHOR105
.LVL645:
.L399:
	.loc 1 181 0 discriminator 1
	cmp	x19, x22
	bne	.L405
	.loc 1 194 0
	ldp	x19, x20, [sp, 16]
	mov	w0, 0
	ldp	x21, x22, [sp, 32]
	ldp	x23, x24, [sp, 48]
.LVL646:
	ldp	x29, x30, [sp], 80
	.cfi_remember_state
	.cfi_restore 30
	.cfi_restore 29
	.cfi_restore 23
	.cfi_restore 24
	.cfi_restore 21
	.cfi_restore 22
	.cfi_restore 19
	.cfi_restore 20
	.cfi_def_cfa 31, 0
	ret
.LVL647:
.L405:
	.cfi_restore_state
	.loc 1 182 0
	ldr	w0, [x19]
	add	x2, x29, 72
	add	x1, x29, 76
	bl	l2p_addr_tran.isra.0
.LVL648:
	.loc 1 183 0
	add	x0, x21, :lo12:.LANCHOR105
	ldr	w1, [x29, 76]
	ldr	x2, [x0, 8]
	ldrb	w0, [x29, 72]
	blr	x2
.LVL649:
	.loc 1 185 0
	cbnz	w0, .L400
	.loc 1 184 0
	str	wzr, [x19, -4]
.LVL650:
.L401:
	.loc 1 187 0
	add	x0, x20, :lo12:.LANCHOR0
	ldrh	w0, [x0, 14]
	cmp	w0, 4
	bne	.L403
	.loc 1 188 0
	ldrb	w0, [x29, 72]
	ldr	x2, [x24, 8]
	ldr	w1, [x29, 76]
	add	w1, w23, w1
	blr	x2
.LVL651:
	.loc 1 189 0
	cbz	w0, .L403
	.loc 1 190 0
	mov	w0, -1
.LVL652:
	str	w0, [x19, -4]
.L403:
	add	x19, x19, 32
	b	.L399
.LVL653:
.L400:
	.loc 1 186 0
	mov	w0, -1
.LVL654:
	str	w0, [x19, -4]
	b	.L401
	.cfi_endproc
.LFE343:
	.size	FlashEraseBlocks, .-FlashEraseBlocks
	.section	.text.FtlFreeSysBlkQueueIn,"ax",@progbits
	.align	2
	.global	FtlFreeSysBlkQueueIn
	.type	FtlFreeSysBlkQueueIn, %function
FtlFreeSysBlkQueueIn:
.LFB240:
	.loc 2 98 0
	.cfi_startproc
.LVL655:
	stp	x29, x30, [sp, -48]!
	.cfi_def_cfa_offset 48
	.cfi_offset 29, -48
	.cfi_offset 30, -40
	add	x29, sp, 0
	.cfi_def_cfa_register 29
	stp	x19, x20, [sp, 16]
	.cfi_offset 19, -32
	.cfi_offset 20, -24
	and	w20, w0, 65535
	str	x21, [sp, 32]
	.cfi_offset 21, -16
	.loc 2 99 0
	sub	w2, w20, #1
	mov	w0, 65533
.LVL656:
	cmp	w0, w2, uxth
	bcc	.L410
.LBB241:
.LBB242:
	.loc 2 94 0
	adrp	x0, .LANCHOR38
	add	x2, x0, :lo12:.LANCHOR38
	mov	x19, x0
.LBE242:
.LBE241:
	.loc 2 101 0
	ldrh	w2, [x2, 6]
	cmp	w2, 1024
	beq	.L410
	and	w1, w1, 65535
.LVL657:
.LBB243:
.LBB244:
	.loc 2 103 0
	cbz	w1, .L412
.LBB245:
	.loc 2 104 0
	mov	w0, w20
	bl	P2V_block_in_plane
.LVL658:
	and	w21, w0, 65535
.LVL659:
	.loc 2 105 0
	adrp	x0, .LANCHOR111
.LVL660:
	lsl	w1, w20, 10
	.loc 2 106 0
	mov	w2, 1
	.loc 2 105 0
	ldr	x0, [x0, #:lo12:.LANCHOR111]
	str	w1, [x0, 4]
	.loc 2 106 0
	mov	w1, w2
	bl	FlashEraseBlocks
.LVL661:
	.loc 2 107 0
	adrp	x1, .LANCHOR43
	ubfiz	x0, x21, 1, 16
	ldr	x2, [x1, #:lo12:.LANCHOR43]
	ldrh	w1, [x2, x0]
	add	w1, w1, 1
	strh	w1, [x2, x0]
	.loc 2 108 0
	adrp	x1, .LANCHOR75
	ldr	w0, [x1, #:lo12:.LANCHOR75]
	add	w0, w0, 1
	str	w0, [x1, #:lo12:.LANCHOR75]
.LVL662:
.L412:
.LBE245:
	.loc 2 110 0
	add	x0, x19, :lo12:.LANCHOR38
	ldrh	w1, [x0, 6]
	add	w1, w1, 1
	strh	w1, [x0, 6]
	.loc 2 111 0
	ldrh	w1, [x0, 4]
	add	x2, x0, x1, sxtw 1
	.loc 2 112 0
	add	w1, w1, 1
	and	w1, w1, 1023
	strh	w1, [x0, 4]
	.loc 2 111 0
	strh	w20, [x2, 8]
.LVL663:
.L410:
.LBE244:
.LBE243:
	.loc 2 115 0
	ldp	x19, x20, [sp, 16]
.LVL664:
	ldr	x21, [sp, 32]
	ldp	x29, x30, [sp], 48
	.cfi_restore 30
	.cfi_restore 29
	.cfi_restore 21
	.cfi_restore 19
	.cfi_restore 20
	.cfi_def_cfa 31, 0
	ret
	.cfi_endproc
.LFE240:
	.size	FtlFreeSysBlkQueueIn, .-FtlFreeSysBlkQueueIn
	.section	.text.FtlLowFormatEraseBlock,"ax",@progbits
	.align	2
	.global	FtlLowFormatEraseBlock
	.type	FtlLowFormatEraseBlock, %function
FtlLowFormatEraseBlock:
.LFB209:
	.loc 3 528 0
	.cfi_startproc
.LVL665:
	stp	x29, x30, [sp, -144]!
	.cfi_def_cfa_offset 144
	.cfi_offset 29, -144
	.cfi_offset 30, -136
	.loc 3 541 0
	adrp	x7, .LANCHOR13
	add	x7, x7, :lo12:.LANCHOR13
	.loc 3 539 0
	mov	x5, 0
	.loc 3 528 0
	add	x29, sp, 0
	.cfi_def_cfa_register 29
	stp	x23, x24, [sp, 48]
	.cfi_offset 23, -96
	.cfi_offset 24, -88
	and	w24, w0, 65535
	.loc 3 538 0
	adrp	x0, .LANCHOR112
.LVL666:
	.loc 3 528 0
	stp	x19, x20, [sp, 16]
	stp	x21, x22, [sp, 32]
	and	w23, w1, 255
	.loc 3 538 0
	str	w24, [x0, #:lo12:.LANCHOR112]
.LVL667:
	.loc 3 551 0
	adrp	x0, .LANCHOR114
	.loc 3 550 0
	adrp	x1, .LANCHOR113
.LVL668:
	.cfi_offset 19, -128
	.cfi_offset 20, -120
	.cfi_offset 21, -112
	.cfi_offset 22, -104
	.loc 3 539 0
	adrp	x20, .LANCHOR3
	.loc 3 540 0
	adrp	x21, .LANCHOR111
	.loc 3 551 0
	ldr	x11, [x0, #:lo12:.LANCHOR114]
	adrp	x0, .LANCHOR24
	.loc 3 539 0
	ldrh	w8, [x20, #:lo12:.LANCHOR3]
	.loc 3 540 0
	ldr	x6, [x21, #:lo12:.LANCHOR111]
	.loc 3 536 0
	mov	w22, 0
	.loc 3 550 0
	ldr	x10, [x1, #:lo12:.LANCHOR113]
	.loc 3 537 0
	mov	w19, 0
	.loc 3 551 0
	ldrh	w12, [x0, #:lo12:.LANCHOR24]
	.loc 3 528 0
	stp	x25, x26, [sp, 64]
	stp	x27, x28, [sp, 80]
	.cfi_offset 25, -80
	.cfi_offset 26, -72
	.cfi_offset 27, -64
	.cfi_offset 28, -56
	stp	x0, x1, [x29, 120]
.LVL669:
.L421:
	.loc 3 539 0 discriminator 1
	cmp	w8, w5, uxth
	bhi	.L425
	.loc 3 559 0
	cbz	w22, .L420
	.loc 3 562 0
	mov	w2, w22
	ubfiz	x22, x22, 5, 16
.LVL670:
	mov	x25, 0
	mov	w1, 0
	mov	x0, x6
	bl	FlashEraseBlocks
.LVL671:
.L429:
	.loc 3 564 0
	ldr	x0, [x21, #:lo12:.LANCHOR111]
	add	x1, x0, x25
	ldr	w0, [x0, x25]
	cmn	w0, #1
	bne	.L428
	.loc 3 566 0
	ldr	w0, [x1, 4]
	.loc 3 565 0
	add	w19, w19, 1
.LVL672:
	and	w19, w19, 65535
.LVL673:
	.loc 3 566 0
	lsr	w0, w0, 10
	bl	FtlBbmMapBadBlock
.LVL674:
.L428:
	add	x25, x25, 32
	.loc 3 563 0 discriminator 2
	cmp	x25, x22
	bne	.L429
	.loc 3 571 0
	cbz	w23, .L442
.LVL675:
	.loc 3 573 0
	adrp	x0, .LANCHOR20
	.loc 3 572 0
	mov	w25, 1
	.loc 3 573 0
	ldrh	w26, [x0, #:lo12:.LANCHOR20]
.LVL676:
	.loc 3 574 0
	lsr	w28, w26, 2
.LVL677:
.L430:
	.loc 3 578 0
	add	x0, x20, :lo12:.LANCHOR3
	.loc 3 580 0
	adrp	x27, .LANCHOR13
	.loc 3 578 0
	str	x0, [x29, 136]
	mov	w22, 0
	.loc 3 580 0
	add	x0, x27, :lo12:.LANCHOR13
	str	x0, [x29, 112]
.LVL678:
.L438:
	.loc 3 578 0
	ldr	x0, [x29, 136]
	mov	x5, 0
	.loc 3 579 0
	ldr	x6, [x21, #:lo12:.LANCHOR111]
	.loc 3 577 0
	mov	w20, 0
	.loc 3 578 0
	ldrh	w7, [x0]
	.loc 3 587 0
	adrp	x0, .LANCHOR115
	ldr	x8, [x0, #:lo12:.LANCHOR115]
	.loc 3 588 0
	ldr	x0, [x29, 128]
	ldr	x10, [x0, #:lo12:.LANCHOR113]
	ldr	x0, [x29, 120]
	ldrh	w11, [x0, #:lo12:.LANCHOR24]
.LVL679:
.L431:
	.loc 3 578 0 discriminator 1
	cmp	w7, w5, uxth
	bhi	.L434
	.loc 3 593 0
	cbz	w20, .L420
	.loc 3 596 0
	mov	w1, w20
	mov	w3, 1
	mov	w2, w25
	mov	x0, x6
	bl	FlashProgPages
.LVL680:
	mov	x27, 0
	ubfiz	x1, x20, 5, 16
.LVL681:
.L437:
	.loc 3 598 0
	ldr	x0, [x21, #:lo12:.LANCHOR111]
	add	x3, x0, x27
	ldr	w0, [x0, x27]
	cbz	w0, .L436
	.loc 3 600 0
	ldr	w0, [x3, 4]
	.loc 3 599 0
	add	w19, w19, 1
.LVL682:
	str	x1, [x29, 104]
	and	w19, w19, 65535
.LVL683:
	.loc 3 600 0
	lsr	w0, w0, 10
	bl	FtlBbmMapBadBlock
.LVL684:
	ldr	x1, [x29, 104]
.L436:
	add	x27, x27, 32
	.loc 3 597 0 discriminator 2
	cmp	x1, x27
	bne	.L437
	.loc 3 604 0
	add	w22, w22, w28
.LVL685:
	and	w22, w22, 65535
.LVL686:
	.loc 3 605 0
	cmp	w26, w22
	bhi	.L438
	mov	x22, 0
.LVL687:
.L440:
	.loc 3 611 0
	cbz	w23, .L439
	.loc 3 611 0 is_stmt 0 discriminator 1
	ldr	x0, [x21, #:lo12:.LANCHOR111]
	add	x1, x0, x22
	ldr	w0, [x0, x22]
	cbnz	w0, .L439
	.loc 3 612 0 is_stmt 1
	ldr	w0, [x1, 4]
	mov	w1, 1
	lsr	w0, w0, 10
	bl	FtlFreeSysBlkQueueIn
.LVL688:
.L439:
	add	x22, x22, 32
	.loc 3 610 0 discriminator 2
	cmp	x22, x27
	bne	.L440
	.loc 3 615 0
	cmp	w24, 63
	ccmp	w23, 0, 0, hi
	beq	.L420
	.loc 3 616 0
	ldr	x0, [x21, #:lo12:.LANCHOR111]
	mov	w2, w20
	mov	w1, w25
	bl	FlashEraseBlocks
.LVL689:
.L420:
	.loc 3 619 0
	mov	w0, w19
	ldp	x19, x20, [sp, 16]
.LVL690:
	ldp	x21, x22, [sp, 32]
	ldp	x23, x24, [sp, 48]
.LVL691:
	ldp	x25, x26, [sp, 64]
	ldp	x27, x28, [sp, 80]
	ldp	x29, x30, [sp], 144
	.cfi_remember_state
	.cfi_restore 30
	.cfi_restore 29
	.cfi_restore 27
	.cfi_restore 28
	.cfi_restore 25
	.cfi_restore 26
	.cfi_restore 23
	.cfi_restore 24
	.cfi_restore 21
	.cfi_restore 22
	.cfi_restore 19
	.cfi_restore 20
	.cfi_def_cfa 31, 0
	ret
.LVL692:
.L425:
	.cfi_restore_state
	.loc 3 540 0
	lsl	x0, x5, 5
	.loc 3 541 0
	mov	w1, w24
	.loc 3 540 0
	str	wzr, [x6, x0]
	.loc 3 541 0
	ldrb	w0, [x7, x5]
	bl	V2P_block
.LVL693:
	and	w13, w0, 65535
	mov	w14, w13
.LVL694:
	.loc 3 543 0
	cbz	w23, .L422
	.loc 3 544 0
	bl	IsBlkInVendorPart
.LVL695:
	cbnz	w0, .L423
.L422:
	.loc 3 548 0
	mov	w0, w14
	bl	FtlBbmIsBadBlock
.LVL696:
	cbnz	w0, .L424
	.loc 3 549 0
	ubfiz	x0, x22, 5, 16
	.loc 3 551 0
	mul	w1, w22, w12
	.loc 3 549 0
	add	x0, x6, x0
	.loc 3 552 0
	add	w22, w22, 1
.LVL697:
	and	w22, w22, 65535
.LVL698:
	.loc 3 549 0
	lsl	w13, w13, 10
.LVL699:
	.loc 3 551 0
	asr	w1, w1, 2
	add	x1, x11, x1, sxtw 2
	.loc 3 549 0
	str	w13, [x0, 4]
	.loc 3 551 0
	stp	x10, x1, [x0, 8]
.L423:
.LVL700:
	add	x5, x5, 1
.LVL701:
	b	.L421
.LVL702:
.L424:
	.loc 3 554 0
	add	w19, w19, 1
.LVL703:
	and	w19, w19, 65535
.LVL704:
	b	.L423
.LVL705:
.L442:
	.loc 3 534 0
	mov	w25, 0
	.loc 3 533 0
	mov	w28, 6
	.loc 3 531 0
	mov	w26, 1
	b	.L430
.LVL706:
.L434:
	.loc 3 579 0
	lsl	x0, x5, 5
	.loc 3 580 0
	mov	w1, w24
	.loc 3 579 0
	str	wzr, [x6, x0]
	.loc 3 580 0
	ldr	x0, [x29, 112]
	ldrb	w0, [x0, x5]
	bl	V2P_block
.LVL707:
	and	w12, w0, 65535
	mov	w13, w12
.LVL708:
	.loc 3 581 0
	cbz	w23, .L432
	.loc 3 582 0
	bl	IsBlkInVendorPart
.LVL709:
	cbnz	w0, .L433
.L432:
	.loc 3 585 0
	mov	w0, w13
	bl	FtlBbmIsBadBlock
.LVL710:
	cbnz	w0, .L433
	.loc 3 586 0
	ubfiz	x0, x20, 5, 16
	.loc 3 588 0
	mul	w1, w20, w11
	.loc 3 586 0
	add	x0, x6, x0
	.loc 3 589 0
	add	w20, w20, 1
.LVL711:
	and	w20, w20, 65535
.LVL712:
	.loc 3 586 0
	add	w12, w22, w12, lsl 10
.LVL713:
	.loc 3 588 0
	asr	w1, w1, 2
	add	x1, x10, x1, sxtw 2
	.loc 3 586 0
	str	w12, [x0, 4]
	.loc 3 588 0
	stp	x8, x1, [x0, 8]
.L433:
.LVL714:
	add	x5, x5, 1
.LVL715:
	b	.L431
	.cfi_endproc
.LFE209:
	.size	FtlLowFormatEraseBlock, .-FtlLowFormatEraseBlock
	.section	.text.FtlFreeSysBlkQueueOut,"ax",@progbits
	.align	2
	.global	FtlFreeSysBlkQueueOut
	.type	FtlFreeSysBlkQueueOut, %function
FtlFreeSysBlkQueueOut:
.LFB243:
	.loc 2 181 0
	.cfi_startproc
.LVL716:
	stp	x29, x30, [sp, -64]!
	.cfi_def_cfa_offset 64
	.cfi_offset 29, -64
	.cfi_offset 30, -56
	add	x29, sp, 0
	.cfi_def_cfa_register 29
	stp	x19, x20, [sp, 16]
	.cfi_offset 19, -48
	.cfi_offset 20, -40
.LBB246:
.LBB247:
	.loc 2 89 0
	adrp	x19, .LANCHOR38
.LBE247:
.LBE246:
	.loc 2 181 0
	stp	x21, x22, [sp, 32]
.LBB250:
.LBB248:
	.loc 2 89 0
	add	x19, x19, :lo12:.LANCHOR38
	.cfi_offset 21, -32
	.cfi_offset 22, -24
.LBE248:
.LBE250:
.LBB251:
	.loc 2 195 0
	adrp	x21, .LANCHOR75
.LBE251:
	.loc 2 181 0
	str	x23, [sp, 48]
	.cfi_offset 23, -16
.LBB252:
	.loc 2 195 0
	add	x21, x21, :lo12:.LANCHOR75
.LBE252:
	.loc 2 203 0
	adrp	x23, .LC83
	add	x23, x23, :lo12:.LC83
.LVL717:
.L464:
.LBB253:
.LBB249:
	.loc 2 89 0
	ldrh	w1, [x19, 6]
.LBE249:
.LBE253:
	.loc 2 186 0
	cbz	w1, .L465
	.loc 2 187 0
	ldrh	w0, [x19, 2]
	.loc 2 188 0
	sub	w1, w1, #1
	strh	w1, [x19, 6]
	.loc 2 187 0
	add	x2, x19, x0, sxtw 1
	.loc 2 189 0
	add	w0, w0, 1
	and	w0, w0, 1023
	strh	w0, [x19, 2]
	.loc 2 187 0
	ldrh	w20, [x2, 8]
.LVL718:
.LBB254:
	.loc 2 191 0
	mov	w0, w20
	bl	P2V_block_in_plane
.LVL719:
	and	w22, w0, 65535
.LVL720:
	.loc 2 192 0
	adrp	x0, .LANCHOR111
.LVL721:
	lsl	w1, w20, 10
	.loc 2 193 0
	mov	w2, 1
	.loc 2 192 0
	ldr	x0, [x0, #:lo12:.LANCHOR111]
	str	w1, [x0, 4]
	.loc 2 193 0
	mov	w1, w2
	bl	FlashEraseBlocks
.LVL722:
	.loc 2 194 0
	adrp	x1, .LANCHOR43
	ubfiz	x0, x22, 1, 16
	ldr	x2, [x1, #:lo12:.LANCHOR43]
	ldrh	w1, [x2, x0]
	add	w1, w1, 1
	strh	w1, [x2, x0]
	.loc 2 195 0
	ldr	w0, [x21]
.LBE254:
	.loc 2 202 0
	sub	w1, w20, #1
.LBB255:
	.loc 2 195 0
	add	w0, w0, 1
	str	w0, [x21]
.LBE255:
	.loc 2 202 0
	mov	w0, 65533
	cmp	w0, w1, uxth
	bcc	.L466
	.loc 2 208 0
	mov	w0, w20
	ldr	x23, [sp, 48]
	ldp	x19, x20, [sp, 16]
.LVL723:
	ldp	x21, x22, [sp, 32]
.LVL724:
	ldp	x29, x30, [sp], 64
	.cfi_remember_state
	.cfi_restore 30
	.cfi_restore 29
	.cfi_restore 23
	.cfi_restore 21
	.cfi_restore 22
	.cfi_restore 19
	.cfi_restore 20
	.cfi_def_cfa 31, 0
	ret
.LVL725:
.L465:
	.cfi_restore_state
	.loc 2 199 0
	adrp	x0, .LC82
	mov	w1, 0
	add	x0, x0, :lo12:.LC82
	bl	printf
.LVL726:
.L468:
	b	.L468
.LVL727:
.L466:
	.loc 2 203 0
	ldrh	w2, [x19, 6]
	mov	w1, w20
	mov	x0, x23
	bl	printf
.LVL728:
	.loc 2 205 0
	b	.L464
	.cfi_endproc
.LFE243:
	.size	FtlFreeSysBlkQueueOut, .-FtlFreeSysBlkQueueOut
	.section	.text.ftl_map_blk_alloc_new_blk,"ax",@progbits
	.align	2
	.global	ftl_map_blk_alloc_new_blk
	.type	ftl_map_blk_alloc_new_blk, %function
ftl_map_blk_alloc_new_blk:
.LFB255:
	.loc 2 562 0
	.cfi_startproc
.LVL729:
	stp	x29, x30, [sp, -48]!
	.cfi_def_cfa_offset 48
	.cfi_offset 29, -48
	.cfi_offset 30, -40
.LVL730:
	add	x29, sp, 0
	.cfi_def_cfa_register 29
	stp	x19, x20, [sp, 16]
	.cfi_offset 19, -32
	.cfi_offset 20, -24
	mov	x19, x0
	.loc 2 566 0
	ldrh	w1, [x0, 10]
	mov	w20, 0
	ldr	x0, [x0, 16]
.LVL731:
	.loc 2 562 0
	str	x21, [sp, 32]
	.cfi_offset 21, -16
.LVL732:
.L472:
	.loc 2 566 0 discriminator 1
	cmp	w20, w1
	beq	.L476
	.loc 2 567 0
	mov	x21, x0
	ldrh	w2, [x0], 2
	cbnz	w2, .L473
	.loc 2 568 0
	bl	FtlFreeSysBlkQueueOut
.LVL733:
	and	w1, w0, 65535
	strh	w0, [x21]
	.loc 2 569 0
	sub	w2, w1, #1
	mov	w0, 65533
	cmp	w0, w2, uxth
	bcs	.L474
	.loc 2 570 0
	adrp	x0, .LANCHOR38+6
	ldrh	w2, [x0, #:lo12:.LANCHOR38+6]
	adrp	x0, .LC84
	add	x0, x0, :lo12:.LC84
	bl	printf
.LVL734:
.L475:
	b	.L475
.L474:
	.loc 2 576 0
	ldr	w0, [x19, 48]
	.loc 2 574 0
	strh	wzr, [x19, 2]
	.loc 2 576 0
	add	w0, w0, 1
	str	w0, [x19, 48]
	.loc 2 577 0
	ldrh	w0, [x19, 8]
	.loc 2 575 0
	strh	w20, [x19]
	.loc 2 577 0
	add	w0, w0, 1
	strh	w0, [x19, 8]
.L476:
	.loc 2 581 0
	ldrh	w0, [x19, 10]
	cmp	w0, w20
	bhi	.L478
.LVL735:
.LBB258:
.LBB259:
	adrp	x1, .LANCHOR116
	adrp	x0, .LC1
	mov	w2, 581
	add	x1, x1, :lo12:.LANCHOR116
	add	x0, x0, :lo12:.LC1
	bl	printf
.LVL736:
.L478:
.LBE259:
.LBE258:
	.loc 2 583 0
	mov	w0, 0
	ldr	x21, [sp, 32]
	ldp	x19, x20, [sp, 16]
.LVL737:
	ldp	x29, x30, [sp], 48
	.cfi_remember_state
	.cfi_restore 30
	.cfi_restore 29
	.cfi_restore 21
	.cfi_restore 19
	.cfi_restore 20
	.cfi_def_cfa 31, 0
	ret
.LVL738:
.L473:
	.cfi_restore_state
	.loc 2 566 0 discriminator 2
	add	w20, w20, 1
.LVL739:
	and	w20, w20, 65535
.LVL740:
	b	.L472
	.cfi_endproc
.LFE255:
	.size	ftl_map_blk_alloc_new_blk, .-ftl_map_blk_alloc_new_blk
	.section	.text.ftl_memset,"ax",@progbits
	.align	2
	.global	ftl_memset
	.type	ftl_memset, %function
ftl_memset:
.LFB346:
	.loc 1 242 0
	.cfi_startproc
.LVL741:
	.loc 1 243 0
	uxtw	x2, w2
	b	memset
.LVL742:
	.cfi_endproc
.LFE346:
	.size	ftl_memset, .-ftl_memset
	.section	.text.FtlMemInit,"ax",@progbits
	.align	2
	.global	FtlMemInit
	.type	FtlMemInit, %function
FtlMemInit:
.LFB206:
	.loc 3 280 0
	.cfi_startproc
	stp	x29, x30, [sp, -208]!
	.cfi_def_cfa_offset 208
	.cfi_offset 29, -208
	.cfi_offset 30, -200
	.loc 3 283 0
	adrp	x0, .LANCHOR70
	.loc 3 298 0
	mov	w1, 65535
	.loc 3 280 0
	add	x29, sp, 0
	.cfi_def_cfa_register 29
	.loc 3 283 0
	str	wzr, [x0, #:lo12:.LANCHOR70]
	.loc 3 284 0
	adrp	x0, .LANCHOR71
	.loc 3 280 0
	stp	x19, x20, [sp, 16]
	.cfi_offset 19, -192
	.cfi_offset 20, -184
	.loc 3 311 0
	adrp	x19, .LANCHOR21
	.loc 3 284 0
	str	wzr, [x0, #:lo12:.LANCHOR71]
	.loc 3 285 0
	adrp	x0, .LANCHOR67
	.loc 3 280 0
	stp	x21, x22, [sp, 32]
	.cfi_offset 21, -176
	.cfi_offset 22, -168
	.loc 3 313 0
	adrp	x22, .LANCHOR3
	.loc 3 285 0
	str	wzr, [x0, #:lo12:.LANCHOR67]
	.loc 3 286 0
	adrp	x0, .LANCHOR64
	.loc 3 280 0
	stp	x23, x24, [sp, 48]
	.loc 3 320 0
	adrp	x21, .LANCHOR23
	.loc 3 286 0
	str	wzr, [x0, #:lo12:.LANCHOR64]
	.loc 3 287 0
	adrp	x0, .LANCHOR63
	.loc 3 280 0
	stp	x25, x26, [sp, 64]
	.cfi_offset 23, -160
	.cfi_offset 24, -152
	.cfi_offset 25, -144
	.cfi_offset 26, -136
	.loc 3 331 0
	adrp	x24, .LANCHOR108
	.loc 3 287 0
	str	wzr, [x0, #:lo12:.LANCHOR63]
	.loc 3 288 0
	adrp	x0, .LANCHOR65
	.loc 3 280 0
	stp	x27, x28, [sp, 80]
	.cfi_offset 27, -128
	.cfi_offset 28, -120
	.loc 3 332 0
	adrp	x23, .LANCHOR114
	.loc 3 288 0
	str	wzr, [x0, #:lo12:.LANCHOR65]
	.loc 3 289 0
	adrp	x0, .LANCHOR66
	.loc 3 350 0
	adrp	x25, .LANCHOR42
	.loc 3 352 0
	adrp	x27, .LANCHOR129
	.loc 3 289 0
	str	wzr, [x0, #:lo12:.LANCHOR66]
	.loc 3 290 0
	adrp	x0, .LANCHOR62
	.loc 3 353 0
	adrp	x26, .LANCHOR130
	.loc 3 290 0
	str	wzr, [x0, #:lo12:.LANCHOR62]
	.loc 3 291 0
	adrp	x0, .LANCHOR72
	str	wzr, [x0, #:lo12:.LANCHOR72]
	.loc 3 292 0
	adrp	x0, .LANCHOR73
	str	wzr, [x0, #:lo12:.LANCHOR73]
	.loc 3 293 0
	adrp	x0, .LANCHOR75
	str	wzr, [x0, #:lo12:.LANCHOR75]
	.loc 3 294 0
	adrp	x0, .LANCHOR76
	str	wzr, [x0, #:lo12:.LANCHOR76]
	.loc 3 295 0
	adrp	x0, .LANCHOR77
	str	wzr, [x0, #:lo12:.LANCHOR77]
	.loc 3 296 0
	adrp	x0, .LANCHOR117
	str	wzr, [x0, #:lo12:.LANCHOR117]
	.loc 3 297 0
	adrp	x0, .LANCHOR87
	str	wzr, [x0, #:lo12:.LANCHOR87]
	.loc 3 298 0
	adrp	x0, .LANCHOR118
	str	w1, [x0, #:lo12:.LANCHOR118]
	.loc 3 299 0
	adrp	x0, .LANCHOR119
	.loc 3 302 0
	adrp	x1, .LANCHOR99
	.loc 3 299 0
	str	wzr, [x0, #:lo12:.LANCHOR119]
	.loc 3 300 0
	adrp	x0, .LANCHOR84
	str	wzr, [x0, #:lo12:.LANCHOR84]
	.loc 3 301 0
	adrp	x0, .LANCHOR112
	str	wzr, [x0, #:lo12:.LANCHOR112]
	.loc 3 302 0
	mov	w0, -1
	strh	w0, [x1, #:lo12:.LANCHOR99]
	.loc 3 303 0
	adrp	x1, .LANCHOR100
	strh	w0, [x1, #:lo12:.LANCHOR100]
	.loc 3 304 0
	adrp	x0, .LANCHOR82
	mov	w1, 32
	strh	w1, [x0, #:lo12:.LANCHOR82]
	.loc 3 305 0
	adrp	x0, .LANCHOR83
	mov	w1, 128
	strh	w1, [x0, #:lo12:.LANCHOR83]
	.loc 3 306 0
	adrp	x0, .LANCHOR85
	strh	wzr, [x0, #:lo12:.LANCHOR85]
	.loc 3 307 0
	adrp	x0, .LANCHOR101
	strh	wzr, [x0, #:lo12:.LANCHOR101]
	.loc 3 308 0
	adrp	x0, .LANCHOR103
	strh	wzr, [x0, #:lo12:.LANCHOR103]
	.loc 3 311 0
	ldrh	w0, [x19, #:lo12:.LANCHOR21]
	lsl	w0, w0, 1
	bl	ftl_malloc
.LVL743:
	adrp	x1, .LANCHOR96
	str	x0, [x1, #:lo12:.LANCHOR96]
	.loc 3 312 0
	mov	w0, 12
	ldrh	w1, [x19, #:lo12:.LANCHOR21]
	mul	w0, w1, w0
	bl	ftl_malloc
.LVL744:
	.loc 3 313 0
	ldrh	w19, [x22, #:lo12:.LANCHOR3]
	.loc 3 312 0
	adrp	x3, .LANCHOR98
	str	x3, [x29, 104]
	.loc 3 313 0
	lsl	w20, w19, 5
.LVL745:
	.loc 3 314 0
	lsl	w19, w19, 7
	.loc 3 312 0
	str	x0, [x3, #:lo12:.LANCHOR98]
	.loc 3 314 0
	mov	w0, w19
	bl	ftl_malloc
.LVL746:
	adrp	x15, .LANCHOR120
	str	x15, [x29, 112]
	str	x0, [x15, #:lo12:.LANCHOR120]
	.loc 3 315 0
	mov	w0, w20
	bl	ftl_malloc
.LVL747:
	adrp	x11, .LANCHOR121
	str	x11, [x29, 120]
	str	x0, [x11, #:lo12:.LANCHOR121]
	.loc 3 316 0
	mov	w0, w19
	bl	ftl_malloc
.LVL748:
	adrp	x14, .LANCHOR122
	str	x14, [x29, 128]
	str	x0, [x14, #:lo12:.LANCHOR122]
	.loc 3 317 0
	mov	w0, w20
	bl	ftl_malloc
.LVL749:
	adrp	x13, .LANCHOR111
	str	x13, [x29, 136]
	str	x0, [x13, #:lo12:.LANCHOR111]
	.loc 3 318 0
	mov	w0, w20
	bl	ftl_malloc
.LVL750:
	.loc 3 321 0
	adrp	x20, .LANCHOR94
.LVL751:
	.loc 3 318 0
	adrp	x12, .LANCHOR93
	.loc 3 320 0
	ldrh	w19, [x21, #:lo12:.LANCHOR23]
.LVL752:
	.loc 3 318 0
	str	x12, [x29, 144]
	str	x0, [x12, #:lo12:.LANCHOR93]
	.loc 3 321 0
	ldrh	w0, [x22, #:lo12:.LANCHOR3]
	lsl	w0, w0, 1
	add	w0, w0, 1
	str	w0, [x20, #:lo12:.LANCHOR94]
	.loc 3 322 0
	mov	w0, w19
	bl	ftl_malloc
.LVL753:
	adrp	x10, .LANCHOR107
	str	x10, [x29, 152]
	str	x0, [x10, #:lo12:.LANCHOR107]
	.loc 3 323 0
	mov	w0, w19
	bl	ftl_malloc
.LVL754:
	adrp	x8, .LANCHOR123
	str	x8, [x29, 160]
	str	x0, [x8, #:lo12:.LANCHOR123]
	.loc 3 324 0
	mov	w0, w19
	bl	ftl_malloc
.LVL755:
	adrp	x7, .LANCHOR124
	str	x7, [x29, 168]
	str	x0, [x7, #:lo12:.LANCHOR124]
	.loc 3 325 0
	ldr	w0, [x20, #:lo12:.LANCHOR94]
	mul	w0, w19, w0
	bl	ftl_malloc
.LVL756:
	adrp	x6, .LANCHOR91
	str	x6, [x29, 176]
	str	x0, [x6, #:lo12:.LANCHOR91]
	.loc 3 326 0
	mov	w0, w19
	bl	ftl_malloc
.LVL757:
	adrp	x5, .LANCHOR115
	str	x5, [x29, 184]
	str	x0, [x5, #:lo12:.LANCHOR115]
	.loc 3 327 0
	mov	w0, w19
	bl	ftl_malloc
.LVL758:
	.loc 3 330 0
	adrp	x19, .LANCHOR24
.LVL759:
	.loc 3 327 0
	adrp	x4, .LANCHOR113
	.loc 3 328 0
	ldr	w2, [x20, #:lo12:.LANCHOR94]
	.loc 3 327 0
	str	x4, [x29, 192]
	str	x0, [x4, #:lo12:.LANCHOR113]
	.loc 3 328 0
	mov	w0, 24
	mul	w0, w2, w0
	bl	ftl_malloc
.LVL760:
	.loc 3 330 0
	ldrh	w28, [x19, #:lo12:.LANCHOR24]
	.loc 3 328 0
	adrp	x1, .LANCHOR90
	str	x0, [x1, #:lo12:.LANCHOR90]
	.loc 3 330 0
	ldrh	w0, [x22, #:lo12:.LANCHOR3]
	.loc 3 333 0
	adrp	x22, .LANCHOR92
	.loc 3 330 0
	mul	w28, w28, w0
.LVL761:
	.loc 3 331 0
	mov	w0, w28
	bl	ftl_malloc
.LVL762:
	str	x0, [x24, #:lo12:.LANCHOR108]
	.loc 3 332 0
	lsl	w0, w28, 2
	bl	ftl_malloc
.LVL763:
	str	x0, [x23, #:lo12:.LANCHOR114]
	.loc 3 333 0
	ldrh	w1, [x19, #:lo12:.LANCHOR24]
	.loc 3 336 0
	adrp	x28, .LANCHOR125
.LVL764:
	.loc 3 333 0
	ldr	w0, [x20, #:lo12:.LANCHOR94]
	.loc 3 336 0
	adrp	x20, .LANCHOR6
	.loc 3 333 0
	mul	w0, w1, w0
	bl	ftl_malloc
.LVL765:
	str	x0, [x22, #:lo12:.LANCHOR92]
	.loc 3 336 0
	ldrh	w0, [x20, #:lo12:.LANCHOR6]
	ubfiz	w0, w0, 1, 15
	strh	w0, [x28, #:lo12:.LANCHOR125]
	.loc 3 337 0
	and	w0, w0, 65534
	bl	ftl_malloc
.LVL766:
	adrp	x1, .LANCHOR126
	str	x0, [x1, #:lo12:.LANCHOR126]
	.loc 3 338 0
	ldrh	w0, [x28, #:lo12:.LANCHOR125]
	add	x0, x0, 547
	lsr	x0, x0, 9
	strh	w0, [x28, #:lo12:.LANCHOR125]
	.loc 3 339 0
	lsl	w0, w0, 9
	bl	ftl_malloc
.LVL767:
	adrp	x1, .LANCHOR127
	.loc 3 346 0
	ldrh	w28, [x20, #:lo12:.LANCHOR6]
	.loc 3 339 0
	str	x0, [x1, #:lo12:.LANCHOR127]
	.loc 3 340 0
	adrp	x1, .LANCHOR43
	.loc 3 346 0
	lsl	w28, w28, 1
	.loc 3 340 0
	add	x0, x0, 32
	str	x0, [x1, #:lo12:.LANCHOR43]
.LVL768:
	.loc 3 348 0
	mov	w0, w28
	bl	ftl_malloc
.LVL769:
	adrp	x1, .LANCHOR128
	str	x0, [x1, #:lo12:.LANCHOR128]
	.loc 3 350 0
	mov	w0, w28
	.loc 3 351 0
	adrp	x28, .LANCHOR30
.LVL770:
	.loc 3 350 0
	bl	ftl_malloc
.LVL771:
	str	x0, [x25, #:lo12:.LANCHOR42]
.LVL772:
	.loc 3 351 0
	ldr	w1, [x28, #:lo12:.LANCHOR30]
	lsl	w19, w1, 1
	.loc 3 352 0
	mov	w0, w19
	bl	ftl_malloc
.LVL773:
	str	x0, [x27, #:lo12:.LANCHOR129]
	.loc 3 353 0
	mov	w0, w19
	bl	ftl_malloc
.LVL774:
	str	x0, [x26, #:lo12:.LANCHOR130]
	.loc 3 354 0
	ldrh	w0, [x20, #:lo12:.LANCHOR6]
	.loc 3 355 0
	adrp	x19, .LANCHOR27
	.loc 3 354 0
	lsr	w0, w0, 3
	add	w0, w0, 4
	bl	ftl_malloc
.LVL775:
	adrp	x1, .LANCHOR1
	str	x0, [x1, #:lo12:.LANCHOR1]
	.loc 3 355 0
	ldrh	w0, [x19, #:lo12:.LANCHOR27]
	lsl	w0, w0, 1
	bl	ftl_malloc
.LVL776:
	adrp	x2, .LANCHOR36
	str	x0, [x2, #:lo12:.LANCHOR36]
	.loc 3 356 0
	ldrh	w0, [x19, #:lo12:.LANCHOR27]
	lsl	w0, w0, 1
	bl	ftl_malloc
.LVL777:
	adrp	x2, .LANCHOR131
	str	x0, [x2, #:lo12:.LANCHOR131]
	.loc 3 357 0
	ldrh	w0, [x19, #:lo12:.LANCHOR27]
	adrp	x19, .LANCHOR43
	lsl	w0, w0, 2
	bl	ftl_malloc
.LVL778:
	adrp	x1, .LANCHOR132
	str	x0, [x1, #:lo12:.LANCHOR132]
	.loc 3 358 0
	adrp	x1, .LANCHOR28
	str	x1, [x29, 200]
	ldrh	w0, [x1, #:lo12:.LANCHOR28]
	lsl	w0, w0, 2
	bl	ftl_malloc
.LVL779:
	.loc 3 359 0
	ldr	x1, [x29, 200]
	.loc 3 358 0
	adrp	x2, .LANCHOR133
	str	x0, [x2, #:lo12:.LANCHOR133]
	.loc 3 359 0
	ldrh	w2, [x1, #:lo12:.LANCHOR28]
	mov	w1, 0
	lsl	w2, w2, 2
	bl	ftl_memset
.LVL780:
	.loc 3 361 0
	adrp	x0, .LANCHOR32
	ldrh	w0, [x0, #:lo12:.LANCHOR32]
	.loc 3 362 0
	lsl	w0, w0, 2
.LVL781:
	bl	ftl_malloc
.LVL782:
	adrp	x1, .LANCHOR134
	str	x0, [x1, #:lo12:.LANCHOR134]
.LVL783:
	.loc 3 363 0
	ldr	w0, [x28, #:lo12:.LANCHOR30]
	.loc 3 365 0
	adrp	x28, .LANCHOR33
	.loc 3 364 0
	lsl	w0, w0, 2
	bl	ftl_malloc
.LVL784:
	adrp	x1, .LANCHOR135
	str	x0, [x1, #:lo12:.LANCHOR135]
.LVL785:
	.loc 3 365 0
	ldrh	w0, [x28, #:lo12:.LANCHOR33]
	.loc 3 366 0
	lsl	w0, w0, 4
.LVL786:
	bl	ftl_malloc
.LVL787:
	adrp	x1, .LANCHOR55
	str	x0, [x1, #:lo12:.LANCHOR55]
.LVL788:
	.loc 3 367 0
	ldrh	w1, [x28, #:lo12:.LANCHOR33]
	ldrh	w0, [x21, #:lo12:.LANCHOR23]
	.loc 3 372 0
	adrp	x21, .LANCHOR10
	.loc 3 368 0
	mul	w0, w1, w0
.LVL789:
	bl	ftl_malloc
.LVL790:
	adrp	x1, .LANCHOR136
	str	x0, [x1, #:lo12:.LANCHOR136]
.LVL791:
	.loc 3 370 0
	mov	w0, 6
	.loc 3 369 0
	ldrh	w1, [x20, #:lo12:.LANCHOR6]
	.loc 3 371 0
	adrp	x20, .LANCHOR137
	.loc 3 370 0
	mul	w0, w1, w0
.LVL792:
	bl	ftl_malloc
.LVL793:
	adrp	x1, .LANCHOR40
	str	x0, [x1, #:lo12:.LANCHOR40]
	.loc 3 371 0
	adrp	x0, .LANCHOR17
	.loc 3 372 0
	ldrh	w1, [x21, #:lo12:.LANCHOR10]
	.loc 3 371 0
	ldrh	w0, [x0, #:lo12:.LANCHOR17]
	add	w0, w0, 31
	asr	w0, w0, 5
	strh	w0, [x20, #:lo12:.LANCHOR137]
.LVL794:
	.loc 3 372 0
	mul	w0, w1, w0
.LVL795:
	.loc 3 373 0
	lsl	w0, w0, 2
.LVL796:
	bl	ftl_malloc
.LVL797:
	ldp	x3, x15, [x29, 104]
	adrp	x1, .LANCHOR37
	.loc 3 375 0
	ldrh	w20, [x20, #:lo12:.LANCHOR137]
	.loc 3 373 0
	add	x2, x1, :lo12:.LANCHOR37
	ldp	x11, x14, [x29, 120]
	.loc 3 374 0
	mov	w30, w20
	ldp	x13, x12, [x29, 136]
	mov	x16, x3
	ldp	x10, x8, [x29, 152]
	.loc 3 373 0
	str	x0, [x2, 32]
.LVL798:
	ldp	x7, x6, [x29, 168]
	adrp	x17, .LANCHOR96
	ldp	x5, x4, [x29, 184]
	adrp	x3, .LANCHOR90
	.loc 3 374 0
	ldrh	w28, [x21, #:lo12:.LANCHOR10]
	add	x21, x2, 40
	mov	x0, 1
	str	x19, [x29, 200]
.LVL799:
.L482:
	.loc 3 374 0 is_stmt 0 discriminator 1
	cmp	w0, w28
	bcc	.L483
	mov	w2, 8
	sub	w2, w2, w0
	add	x2, x2, 1
	.loc 3 380 0 is_stmt 1
	add	x1, x1, :lo12:.LANCHOR37
	.loc 3 374 0
	mov	x19, 0
.L484:
	add	x19, x19, 1
	.loc 3 378 0 discriminator 1
	cmp	x19, x2
	bne	.L485
	.loc 3 384 0
	ldr	x0, [x27, #:lo12:.LANCHOR129]
	cbnz	x0, .L486
.L488:
	.loc 3 386 0
	adrp	x1, .LANCHOR138
	adrp	x0, .LC85
	add	x1, x1, :lo12:.LANCHOR138
	add	x0, x0, :lo12:.LC85
	bl	printf
.LVL800:
	.loc 3 387 0
	mov	w0, -1
.L481:
	.loc 3 485 0
	ldp	x19, x20, [sp, 16]
	ldp	x21, x22, [sp, 32]
	ldp	x23, x24, [sp, 48]
	ldp	x25, x26, [sp, 64]
	ldp	x27, x28, [sp, 80]
	ldp	x29, x30, [sp], 208
	.cfi_remember_state
	.cfi_restore 30
	.cfi_restore 29
	.cfi_restore 27
	.cfi_restore 28
	.cfi_restore 25
	.cfi_restore 26
	.cfi_restore 23
	.cfi_restore 24
	.cfi_restore 21
	.cfi_restore 22
	.cfi_restore 19
	.cfi_restore 20
	.cfi_def_cfa 31, 0
	ret
.L483:
	.cfi_restore_state
	.loc 3 375 0 discriminator 3
	ldr	x19, [x2, 32]
	.loc 3 374 0 discriminator 3
	add	w0, w0, 1
	.loc 3 375 0 discriminator 3
	add	x19, x19, x30, uxtw 2
	add	w30, w30, w20
	str	x19, [x21], 8
	b	.L482
.L485:
	.loc 3 380 0 discriminator 2
	add	x20, x0, x19
	add	x20, x1, x20, lsl 3
	str	xzr, [x20, 24]
	b	.L484
.L486:
	.loc 3 389 0
	ldr	x0, [x26, #:lo12:.LANCHOR130]
	cbz	x0, .L488
	.loc 3 394 0
	adrp	x0, .LANCHOR134
	ldr	x0, [x0, #:lo12:.LANCHOR134]
	cbz	x0, .L488
	.loc 3 399 0
	adrp	x0, .LANCHOR135
	ldr	x0, [x0, #:lo12:.LANCHOR135]
	cbz	x0, .L488
	.loc 3 405 0
	adrp	x0, .LANCHOR55
	ldr	x0, [x0, #:lo12:.LANCHOR55]
	cbz	x0, .L488
	.loc 3 410 0
	adrp	x0, .LANCHOR136
	ldr	x0, [x0, #:lo12:.LANCHOR136]
	cbz	x0, .L488
	.loc 3 415 0
	adrp	x0, .LANCHOR40
	ldr	x0, [x0, #:lo12:.LANCHOR40]
	cbz	x0, .L488
	.loc 3 420 0
	adrp	x0, .LANCHOR37+32
	ldr	x0, [x0, #:lo12:.LANCHOR37+32]
	cbz	x0, .L488
	.loc 3 426 0
	ldr	x0, [x25, #:lo12:.LANCHOR42]
	cbz	x0, .L488
	.loc 3 431 0
	ldr	x0, [x17, #:lo12:.LANCHOR96]
	cbz	x0, .L488
	.loc 3 431 0 is_stmt 0 discriminator 1
	ldr	x0, [x16, #:lo12:.LANCHOR98]
	cbz	x0, .L488
	.loc 3 436 0 is_stmt 1
	ldr	x0, [x15, #:lo12:.LANCHOR120]
	cbz	x0, .L488
	.loc 3 436 0 is_stmt 0 discriminator 1
	ldr	x0, [x14, #:lo12:.LANCHOR122]
	cbz	x0, .L488
	.loc 3 436 0 discriminator 2
	ldr	x0, [x13, #:lo12:.LANCHOR111]
	cbz	x0, .L488
	.loc 3 436 0 discriminator 3
	ldr	x0, [x12, #:lo12:.LANCHOR93]
	cbz	x0, .L488
	.loc 3 436 0 discriminator 4
	ldr	x0, [x11, #:lo12:.LANCHOR121]
	cbz	x0, .L488
	.loc 3 441 0 is_stmt 1
	ldr	x0, [x10, #:lo12:.LANCHOR107]
	cbz	x0, .L488
	.loc 3 441 0 is_stmt 0 discriminator 1
	ldr	x0, [x8, #:lo12:.LANCHOR123]
	cbz	x0, .L488
	.loc 3 441 0 discriminator 2
	ldr	x0, [x7, #:lo12:.LANCHOR124]
	cbz	x0, .L488
	.loc 3 441 0 discriminator 3
	ldr	x0, [x6, #:lo12:.LANCHOR91]
	cbz	x0, .L488
	.loc 3 442 0 is_stmt 1
	ldr	x0, [x5, #:lo12:.LANCHOR115]
	cbz	x0, .L488
	.loc 3 442 0 is_stmt 0 discriminator 1
	ldr	x0, [x4, #:lo12:.LANCHOR113]
	cbz	x0, .L488
	.loc 3 442 0 discriminator 2
	ldr	x0, [x3, #:lo12:.LANCHOR90]
	cbz	x0, .L488
	.loc 3 447 0 is_stmt 1
	ldr	x0, [x24, #:lo12:.LANCHOR108]
	cbz	x0, .L488
	.loc 3 447 0 is_stmt 0 discriminator 1
	ldr	x0, [x23, #:lo12:.LANCHOR114]
	cbz	x0, .L488
	.loc 3 447 0 discriminator 2
	ldr	x0, [x22, #:lo12:.LANCHOR92]
	cbz	x0, .L488
	.loc 3 453 0 is_stmt 1
	ldr	x0, [x29, 200]
	ldr	x0, [x0, #:lo12:.LANCHOR43]
	cbz	x0, .L488
	.loc 3 453 0 is_stmt 0 discriminator 1
	adrp	x0, .LANCHOR126
	ldr	x0, [x0, #:lo12:.LANCHOR126]
	cbz	x0, .L488
	.loc 3 459 0 is_stmt 1
	adrp	x0, .LANCHOR36
	ldr	x0, [x0, #:lo12:.LANCHOR36]
	cbz	x0, .L488
	.loc 3 465 0
	adrp	x0, .LANCHOR131
	ldr	x0, [x0, #:lo12:.LANCHOR131]
	cbz	x0, .L488
	.loc 3 471 0
	adrp	x0, .LANCHOR132
	ldr	x0, [x0, #:lo12:.LANCHOR132]
	cbz	x0, .L488
	.loc 3 477 0
	adrp	x0, .LANCHOR133
	ldr	x0, [x0, #:lo12:.LANCHOR133]
	cbz	x0, .L488
	.loc 3 484 0
	mov	w0, 0
	b	.L481
	.cfi_endproc
.LFE206:
	.size	FtlMemInit, .-FtlMemInit
	.section	.text.FtlBbt2Bitmap,"ax",@progbits
	.align	2
	.global	FtlBbt2Bitmap
	.type	FtlBbt2Bitmap, %function
FtlBbt2Bitmap:
.LFB225:
	.loc 4 66 0
	.cfi_startproc
.LVL801:
	stp	x29, x30, [sp, -64]!
	.cfi_def_cfa_offset 64
	.cfi_offset 29, -64
	.cfi_offset 30, -56
	add	x29, sp, 0
	.cfi_def_cfa_register 29
	stp	x21, x22, [sp, 32]
	.cfi_offset 21, -32
	.cfi_offset 22, -24
	mov	x22, x0
	.loc 4 69 0
	adrp	x0, .LANCHOR137
.LVL802:
	.loc 4 66 0
	stp	x23, x24, [sp, 48]
	.loc 4 74 0
	adrp	x21, .LANCHOR17
	.cfi_offset 23, -16
	.cfi_offset 24, -8
	adrp	x23, .LANCHOR139
	.loc 4 69 0
	ldrh	w2, [x0, #:lo12:.LANCHOR137]
	.loc 4 74 0
	add	x21, x21, :lo12:.LANCHOR17
	add	x23, x23, :lo12:.LANCHOR139
	.loc 4 66 0
	stp	x19, x20, [sp, 16]
	.cfi_offset 19, -48
	.cfi_offset 20, -40
	.loc 4 72 0
	mov	w24, 65535
	.loc 4 69 0
	mov	x19, 0
	.loc 4 66 0
	mov	x20, x1
	.loc 4 69 0
	lsl	w2, w2, 2
	mov	w1, 0
.LVL803:
	mov	x0, x20
	bl	ftl_memset
.LVL804:
.L586:
	.loc 4 72 0
	ldrh	w0, [x22, x19]
	cmp	w0, w24
	beq	.L583
	.loc 4 74 0
	ldrh	w1, [x21]
	cmp	w1, w0
	bhi	.L585
	.loc 4 74 0 is_stmt 0 discriminator 1
	adrp	x0, .LC1
	mov	w2, 74
	mov	x1, x23
	add	x0, x0, :lo12:.LC1
	bl	printf
.LVL805:
.L585:
	.loc 4 75 0 is_stmt 1 discriminator 2
	ldrh	w2, [x22, x19]
	mov	w1, 1
	add	x19, x19, 2
	.loc 4 70 0 discriminator 2
	cmp	x19, 1024
	.loc 4 75 0 discriminator 2
	ubfx	x0, x2, 5, 11
	lsl	w2, w1, w2
	lsl	x0, x0, 2
	ldr	w1, [x20, x0]
	orr	w1, w1, w2
	str	w1, [x20, x0]
	.loc 4 70 0 discriminator 2
	bne	.L586
.L583:
	.loc 4 77 0
	ldp	x19, x20, [sp, 16]
.LVL806:
	ldp	x21, x22, [sp, 32]
.LVL807:
	ldp	x23, x24, [sp, 48]
	ldp	x29, x30, [sp], 64
	.cfi_restore 30
	.cfi_restore 29
	.cfi_restore 23
	.cfi_restore 24
	.cfi_restore 21
	.cfi_restore 22
	.cfi_restore 19
	.cfi_restore 20
	.cfi_def_cfa 31, 0
	ret
	.cfi_endproc
.LFE225:
	.size	FtlBbt2Bitmap, .-FtlBbt2Bitmap
	.section	.text.FtlBbtMemInit,"ax",@progbits
	.align	2
	.global	FtlBbtMemInit
	.type	FtlBbtMemInit, %function
FtlBbtMemInit:
.LFB227:
	.loc 4 149 0
	.cfi_startproc
	.loc 4 150 0
	adrp	x1, .LANCHOR37
	add	x0, x1, :lo12:.LANCHOR37
	mov	w2, -1
	.loc 4 152 0
	add	x0, x0, 12
	.loc 4 150 0
	strh	w2, [x1, #:lo12:.LANCHOR37]
	.loc 4 152 0
	mov	w2, 16
	.loc 4 151 0
	strh	wzr, [x0, -6]
	.loc 4 152 0
	mov	w1, 255
	b	ftl_memset
.LVL808:
	.cfi_endproc
.LFE227:
	.size	FtlBbtMemInit, .-FtlBbtMemInit
	.section	.text.FtlFreeSysBlkQueueInit,"ax",@progbits
	.align	2
	.global	FtlFreeSysBlkQueueInit
	.type	FtlFreeSysBlkQueueInit, %function
FtlFreeSysBlkQueueInit:
.LFB237:
	.loc 2 76 0
	.cfi_startproc
.LVL809:
	stp	x29, x30, [sp, -16]!
	.cfi_def_cfa_offset 16
	.cfi_offset 29, -16
	.cfi_offset 30, -8
	.loc 2 79 0
	adrp	x1, .LANCHOR38
	add	x3, x1, :lo12:.LANCHOR38
	.loc 2 83 0
	mov	w2, 2048
	.loc 2 76 0
	add	x29, sp, 0
	.cfi_def_cfa_register 29
	.loc 2 82 0
	strh	w0, [x1, #:lo12:.LANCHOR38]
	.loc 2 83 0
	mov	w1, 0
	.loc 2 79 0
	strh	wzr, [x3, 2]
	.loc 2 83 0
	add	x0, x3, 8
.LVL810:
	.loc 2 80 0
	strh	wzr, [x3, 4]
	.loc 2 81 0
	strh	wzr, [x3, 6]
	.loc 2 83 0
	bl	ftl_memset
.LVL811:
	.loc 2 85 0
	mov	w0, 0
	ldp	x29, x30, [sp], 16
	.cfi_restore 30
	.cfi_restore 29
	.cfi_def_cfa 31, 0
	ret
	.cfi_endproc
.LFE237:
	.size	FtlFreeSysBlkQueueInit, .-FtlFreeSysBlkQueueInit
	.section	.text.load_l2p_region,"ax",@progbits
	.align	2
	.global	load_l2p_region
	.type	load_l2p_region, %function
load_l2p_region:
.LFB253:
	.loc 2 488 0
	.cfi_startproc
.LVL812:
	stp	x29, x30, [sp, -80]!
	.cfi_def_cfa_offset 80
	.cfi_offset 29, -80
	.cfi_offset 30, -72
	add	x29, sp, 0
	.cfi_def_cfa_register 29
	stp	x23, x24, [sp, 48]
	.cfi_offset 23, -32
	.cfi_offset 24, -24
	.loc 2 492 0
	adrp	x23, .LANCHOR32
	.loc 2 488 0
	stp	x19, x20, [sp, 16]
	.cfi_offset 19, -64
	.cfi_offset 20, -56
	and	x19, x1, 65535
	stp	x21, x22, [sp, 32]
	.cfi_offset 21, -48
	.cfi_offset 22, -40
	and	w21, w0, 65535
	stp	x25, x26, [sp, 64]
	.cfi_offset 25, -16
	.cfi_offset 26, -8
	.loc 2 492 0
	ldrh	w0, [x23, #:lo12:.LANCHOR32]
.LVL813:
	cmp	w0, w21
	bcs	.L594
	.loc 2 492 0 is_stmt 0 discriminator 1
	adrp	x1, .LANCHOR140
.LVL814:
	adrp	x0, .LC1
	mov	w2, 492
	add	x1, x1, :lo12:.LANCHOR140
	add	x0, x0, :lo12:.LC1
	bl	printf
.LVL815:
.L594:
	.loc 2 493 0 is_stmt 1
	adrp	x26, .LANCHOR134
	ubfiz	x0, x21, 2, 16
	adrp	x22, .LANCHOR55
	ldr	x1, [x26, #:lo12:.LANCHOR134]
	ldr	w24, [x1, x0]
.LVL816:
	.loc 2 495 0
	cbnz	w24, .L595
	.loc 2 496 0
	ldr	x0, [x22, #:lo12:.LANCHOR55]
	lsl	x19, x19, 4
.LVL817:
	adrp	x1, .LANCHOR23
	add	x0, x0, x19
	ldrh	w2, [x1, #:lo12:.LANCHOR23]
	mov	w1, 255
	ldr	x0, [x0, 8]
	bl	ftl_memset
.LVL818:
	.loc 2 497 0
	ldr	x0, [x22, #:lo12:.LANCHOR55]
	add	x1, x0, x19
	strh	w21, [x0, x19]
	.loc 2 498 0
	str	wzr, [x1, 4]
.L596:
	.loc 2 519 0
	mov	w0, 0
	ldp	x19, x20, [sp, 16]
	ldp	x21, x22, [sp, 32]
.LVL819:
	ldp	x23, x24, [sp, 48]
.LVL820:
	ldp	x25, x26, [sp, 64]
	ldp	x29, x30, [sp], 80
	.cfi_remember_state
	.cfi_restore 30
	.cfi_restore 29
	.cfi_restore 25
	.cfi_restore 26
	.cfi_restore 23
	.cfi_restore 24
	.cfi_restore 21
	.cfi_restore 22
	.cfi_restore 19
	.cfi_restore 20
	.cfi_def_cfa 31, 0
	ret
.LVL821:
.L595:
	.cfi_restore_state
	.loc 2 502 0
	ldr	x0, [x22, #:lo12:.LANCHOR55]
	lsl	x19, x19, 4
	.loc 2 501 0
	adrp	x20, .LANCHOR106
	add	x20, x20, :lo12:.LANCHOR106
	.loc 2 502 0
	add	x0, x0, x19
	.loc 2 504 0
	mov	w2, 1
	mov	w1, w2
	.loc 2 501 0
	str	w24, [x20, 4]
	.loc 2 502 0
	ldr	x0, [x0, 8]
	str	x0, [x20, 8]
	.loc 2 503 0
	adrp	x0, .LANCHOR108
	ldr	x0, [x0, #:lo12:.LANCHOR108]
	str	x0, [x20, 16]
	.loc 2 504 0
	mov	x0, x20
	bl	FlashReadPages
.LVL822:
	.loc 2 505 0
	ldr	x25, [x20, 16]
.LVL823:
	.loc 2 507 0
	ldrh	w0, [x25, 8]
	cmp	w0, w21
	beq	.L597
	.loc 2 508 0
	mov	w2, w24
	mov	w1, w21
	adrp	x0, .LC86
	add	x0, x0, :lo12:.LC86
	bl	printf
.LVL824:
	.loc 2 509 0
	ldr	x1, [x20, 16]
	mov	w3, 4
	adrp	x0, .LC87
	mov	w2, w3
	add	x0, x0, :lo12:.LC87
	bl	rknand_print_hex
.LVL825:
	.loc 2 510 0
	ldrh	w3, [x23, #:lo12:.LANCHOR32]
	adrp	x0, .LC88
	ldr	x1, [x26, #:lo12:.LANCHOR134]
	mov	w2, 4
	add	x0, x0, :lo12:.LC88
	bl	rknand_print_hex
.LVL826:
.L597:
	.loc 2 513 0
	ldrh	w0, [x25, 8]
	cmp	w0, w21
	beq	.L598
	.loc 2 513 0 is_stmt 0 discriminator 1
	adrp	x1, .LANCHOR140
	adrp	x0, .LC1
	mov	w2, 513
	add	x1, x1, :lo12:.LANCHOR140
	add	x0, x0, :lo12:.LC1
	bl	printf
.LVL827:
.L598:
	.loc 2 516 0 is_stmt 1
	ldr	x0, [x22, #:lo12:.LANCHOR55]
	add	x1, x0, x19
	str	wzr, [x1, 4]
	.loc 2 517 0
	strh	w21, [x0, x19]
	.loc 2 518 0
	b	.L596
	.cfi_endproc
.LFE253:
	.size	load_l2p_region, .-load_l2p_region
	.section	.text.ftl_free_no_use_map_blk,"ax",@progbits
	.align	2
	.global	ftl_free_no_use_map_blk
	.type	ftl_free_no_use_map_blk, %function
ftl_free_no_use_map_blk:
.LFB254:
	.loc 2 522 0
	.cfi_startproc
.LVL828:
	stp	x29, x30, [sp, -80]!
	.cfi_def_cfa_offset 80
	.cfi_offset 29, -80
	.cfi_offset 30, -72
	.loc 2 531 0
	mov	w1, 0
	.loc 2 522 0
	add	x29, sp, 0
	.cfi_def_cfa_register 29
	stp	x19, x20, [sp, 16]
	.cfi_offset 19, -64
	.cfi_offset 20, -56
	mov	x19, x0
	.loc 2 531 0
	ldrh	w2, [x0, 10]
	.loc 2 522 0
	stp	x21, x22, [sp, 32]
	.cfi_offset 21, -48
	.cfi_offset 22, -40
	.loc 2 524 0
	ldp	x21, x20, [x0, 32]
	.loc 2 522 0
	stp	x23, x24, [sp, 48]
	stp	x25, x26, [sp, 64]
	.cfi_offset 23, -32
	.cfi_offset 24, -24
	.cfi_offset 25, -16
	.cfi_offset 26, -8
	.loc 2 531 0
	lsl	w2, w2, 1
	.loc 2 523 0
	ldr	x23, [x0, 16]
.LVL829:
	.loc 2 531 0
	mov	x0, x21
.LVL830:
	bl	ftl_memset
.LVL831:
	.loc 2 532 0
	mov	w0, 0
.LVL832:
.L601:
	.loc 2 532 0 is_stmt 0 discriminator 1
	ldrh	w1, [x19, 6]
	cmp	w1, w0
	bhi	.L605
	.loc 2 540 0 is_stmt 1
	ldrh	w26, [x21]
.LVL833:
	.loc 2 544 0
	adrp	x24, .LANCHOR20
	add	x24, x24, :lo12:.LANCHOR20
	.loc 2 541 0
	mov	w25, 0
	.loc 2 543 0
	mov	w20, 0
.LVL834:
.L606:
	.loc 2 543 0 is_stmt 0 discriminator 1
	ldrh	w0, [x19, 10]
	cmp	w0, w20
	bhi	.L610
	.loc 2 559 0 is_stmt 1
	mov	w0, w25
	ldp	x19, x20, [sp, 16]
.LVL835:
	ldp	x21, x22, [sp, 32]
.LVL836:
	ldp	x23, x24, [sp, 48]
.LVL837:
	ldp	x25, x26, [sp, 64]
.LVL838:
	ldp	x29, x30, [sp], 80
	.cfi_remember_state
	.cfi_restore 30
	.cfi_restore 29
	.cfi_restore 25
	.cfi_restore 26
	.cfi_restore 23
	.cfi_restore 24
	.cfi_restore 21
	.cfi_restore 22
	.cfi_restore 19
	.cfi_restore 20
	.cfi_def_cfa 31, 0
	ret
.LVL839:
.L605:
	.cfi_restore_state
	.loc 2 533 0
	ubfiz	x1, x0, 2, 16
	ldr	w2, [x20, x1]
	.loc 2 534 0
	mov	w1, 0
	.loc 2 533 0
	ubfx	x2, x2, 10, 16
.LVL840:
.L602:
	.loc 2 534 0 discriminator 1
	ldrh	w3, [x19, 10]
	cmp	w3, w1
	bhi	.L604
	.loc 2 532 0 discriminator 2
	add	w0, w0, 1
.LVL841:
	and	w0, w0, 65535
.LVL842:
	b	.L601
.L604:
	.loc 2 535 0
	ubfiz	x3, x1, 1, 16
	ldrh	w4, [x23, x3]
	cmp	w4, w2
	bne	.L603
	.loc 2 536 0
	ldrh	w4, [x21, x3]
	add	w4, w4, 1
	strh	w4, [x21, x3]
.L603:
	.loc 2 534 0 discriminator 2
	add	w1, w1, 1
.LVL843:
	and	w1, w1, 65535
.LVL844:
	b	.L602
.LVL845:
.L610:
	.loc 2 544 0
	ldrh	w0, [x19]
	uxtw	x22, w20
	cmp	w0, w20
	bne	.L607
	.loc 2 544 0 is_stmt 0 discriminator 1
	ldrh	w0, [x24]
	ldrh	w1, [x19, 2]
	cmp	w1, w0
	bcs	.L607
	.loc 2 545 0 is_stmt 1
	strh	w0, [x21, x22, lsl 1]
.L607:
	.loc 2 546 0
	lsl	x22, x22, 1
	ldrh	w0, [x21, x22]
	cmp	w26, w0
	bls	.L608
	mov	w25, w20
.LVL846:
	mov	w26, w0
.LVL847:
.L608:
	.loc 2 550 0
	cbnz	w0, .L609
	.loc 2 550 0 is_stmt 0 discriminator 1
	ldrh	w0, [x23, x22]
	cbz	w0, .L609
	.loc 2 552 0 is_stmt 1
	mov	w1, 1
	bl	FtlFreeSysBlkQueueIn
.LVL848:
	.loc 2 553 0
	strh	wzr, [x23, x22]
	.loc 2 554 0
	ldrh	w0, [x19, 8]
	sub	w0, w0, #1
	strh	w0, [x19, 8]
.L609:
	.loc 2 543 0 discriminator 2
	add	w20, w20, 1
.LVL849:
	and	w20, w20, 65535
.LVL850:
	b	.L606
	.cfi_endproc
.LFE254:
	.size	ftl_free_no_use_map_blk, .-ftl_free_no_use_map_blk
	.section	.text.Ftl_write_map_blk_to_last_page,"ax",@progbits
	.align	2
	.global	Ftl_write_map_blk_to_last_page
	.type	Ftl_write_map_blk_to_last_page, %function
Ftl_write_map_blk_to_last_page:
.LFB257:
	.loc 2 632 0
	.cfi_startproc
.LVL851:
	stp	x29, x30, [sp, -64]!
	.cfi_def_cfa_offset 64
	.cfi_offset 29, -64
	.cfi_offset 30, -56
	.loc 2 640 0
	mov	w1, 65535
	.loc 2 632 0
	add	x29, sp, 0
	.cfi_def_cfa_register 29
	stp	x19, x20, [sp, 16]
	.cfi_offset 19, -48
	.cfi_offset 20, -40
	mov	x19, x0
	.loc 2 635 0
	ldr	x20, [x0, 16]
.LVL852:
	.loc 2 632 0
	stp	x21, x22, [sp, 32]
	.loc 2 640 0
	ldrh	w0, [x0]
.LVL853:
	.loc 2 632 0
	str	x23, [sp, 48]
	.cfi_offset 21, -32
	.cfi_offset 22, -24
	.cfi_offset 23, -16
	.loc 2 640 0
	cmp	w0, w1
	bne	.L616
	.loc 2 641 0
	ldrh	w0, [x19, 8]
	cbz	w0, .L617
	.loc 2 641 0 is_stmt 0 discriminator 1
	adrp	x1, .LANCHOR141
	adrp	x0, .LC1
	mov	w2, 641
	add	x1, x1, :lo12:.LANCHOR141
	add	x0, x0, :lo12:.LC1
	bl	printf
.LVL854:
.L617:
	.loc 2 642 0 is_stmt 1
	ldrh	w0, [x19, 8]
	add	w0, w0, 1
	strh	w0, [x19, 8]
	.loc 2 643 0
	bl	FtlFreeSysBlkQueueOut
.LVL855:
	strh	w0, [x20]
	.loc 2 646 0
	ldr	w0, [x19, 48]
	.loc 2 644 0
	strh	wzr, [x19, 2]
	.loc 2 646 0
	add	w0, w0, 1
	.loc 2 645 0
	strh	wzr, [x19]
	.loc 2 646 0
	str	w0, [x19, 48]
.LVL856:
.L618:
	.loc 2 677 0
	mov	w0, 0
	ldr	x23, [sp, 48]
	ldp	x19, x20, [sp, 16]
.LVL857:
	ldp	x21, x22, [sp, 32]
	ldp	x29, x30, [sp], 64
	.cfi_remember_state
	.cfi_restore 30
	.cfi_restore 29
	.cfi_restore 23
	.cfi_restore 21
	.cfi_restore 22
	.cfi_restore 19
	.cfi_restore 20
	.cfi_def_cfa 31, 0
	ret
.LVL858:
.L616:
	.cfi_restore_state
	.loc 2 650 0
	ubfiz	x0, x0, 1, 16
	.loc 2 653 0
	adrp	x1, .LANCHOR108
	.loc 2 652 0
	adrp	x23, .LANCHOR107
	.loc 2 636 0
	ldr	x22, [x19, 40]
	.loc 2 653 0
	ldr	x1, [x1, #:lo12:.LANCHOR108]
	.loc 2 650 0
	ldrh	w21, [x20, x0]
	.loc 2 651 0
	adrp	x20, .LANCHOR106
.LVL859:
	ldrh	w0, [x19, 2]
	add	x2, x20, :lo12:.LANCHOR106
	orr	w0, w0, w21, lsl 10
	str	w0, [x2, 4]
	.loc 2 652 0
	ldr	x0, [x23, #:lo12:.LANCHOR107]
	.loc 2 653 0
	str	x1, [x2, 16]
.LVL860:
	.loc 2 652 0
	str	x0, [x2, 8]
	.loc 2 656 0
	ldr	w2, [x19, 48]
	str	w2, [x1, 4]
	.loc 2 657 0
	mov	w2, -1291
	strh	w2, [x1, 8]
	.loc 2 658 0
	ldrh	w2, [x19, 4]
	strh	w2, [x1]
	.loc 2 659 0
	strh	w21, [x1, 2]
	.loc 2 661 0
	adrp	x1, .LANCHOR20
.LVL861:
	ldrh	w2, [x1, #:lo12:.LANCHOR20]
	mov	w1, 255
	lsl	w2, w2, 3
	bl	ftl_memset
.LVL862:
	.loc 2 663 0
	ldrh	w4, [x19, 6]
	mov	x1, 0
	.loc 2 666 0
	ldr	x3, [x23, #:lo12:.LANCHOR107]
	.loc 2 662 0
	mov	w2, 0
.LVL863:
.L619:
	.loc 2 663 0 discriminator 1
	cmp	w4, w1, uxth
	bhi	.L621
	.loc 2 670 0
	mov	w2, 1
.LVL864:
	mov	w3, 0
	mov	w1, w2
.LVL865:
	add	x0, x20, :lo12:.LANCHOR106
	bl	FlashProgPages
.LVL866:
	.loc 2 671 0
	ldrh	w0, [x19, 2]
	add	w0, w0, 1
	strh	w0, [x19, 2]
	.loc 2 675 0
	mov	x0, x19
	bl	ftl_map_blk_gc
.LVL867:
	.loc 2 676 0
	b	.L618
.LVL868:
.L621:
	.loc 2 664 0
	ldr	w0, [x22, x1, lsl 2]
	cmp	w21, w0, lsr 10
	bne	.L620
	.loc 2 665 0
	add	w2, w2, 1
.LVL869:
	and	w2, w2, 65535
.LVL870:
	.loc 2 666 0
	ubfiz	x0, x2, 1, 16
	str	w1, [x3, x0, lsl 2]
	.loc 2 667 0
	add	x0, x0, 1
	ldr	w5, [x22, x1, lsl 2]
	str	w5, [x3, x0, lsl 2]
.L620:
.LVL871:
	add	x1, x1, 1
.LVL872:
	b	.L619
	.cfi_endproc
.LFE257:
	.size	Ftl_write_map_blk_to_last_page, .-Ftl_write_map_blk_to_last_page
	.section	.text.FtlMapWritePage,"ax",@progbits
	.align	2
	.global	FtlMapWritePage
	.type	FtlMapWritePage, %function
FtlMapWritePage:
.LFB258:
	.loc 2 680 0
	.cfi_startproc
.LVL873:
	stp	x29, x30, [sp, -112]!
	.cfi_def_cfa_offset 112
	.cfi_offset 29, -112
	.cfi_offset 30, -104
	add	x29, sp, 0
	.cfi_def_cfa_register 29
	stp	x23, x24, [sp, 48]
	.cfi_offset 23, -64
	.cfi_offset 24, -56
	.loc 2 686 0
	adrp	x23, .LANCHOR66
	.loc 2 680 0
	stp	x25, x26, [sp, 64]
	.loc 2 699 0
	adrp	x24, .LANCHOR142
	.loc 2 680 0
	stp	x27, x28, [sp, 80]
	.cfi_offset 25, -48
	.cfi_offset 26, -40
	.cfi_offset 27, -32
	.cfi_offset 28, -24
	.loc 2 687 0
	adrp	x26, .LANCHOR20
	.loc 2 680 0
	stp	x19, x20, [sp, 16]
	mov	w25, w1
	.cfi_offset 19, -96
	.cfi_offset 20, -88
	mov	x19, x0
	mov	x27, x2
	.loc 2 686 0
	add	x23, x23, :lo12:.LANCHOR66
	.loc 2 699 0
	add	x24, x24, :lo12:.LANCHOR142
	.loc 2 720 0
	add	x28, x26, :lo12:.LANCHOR20
	.loc 2 680 0
	stp	x21, x22, [sp, 32]
	.cfi_offset 21, -80
	.cfi_offset 22, -72
	.loc 2 683 0
	mov	w22, 0
.LVL874:
.L627:
	.loc 2 686 0
	ldr	w0, [x23]
	.loc 2 687 0
	ldrh	w1, [x19, 2]
	.loc 2 686 0
	add	w0, w0, 1
	str	w0, [x23]
	.loc 2 687 0
	ldrh	w0, [x26, #:lo12:.LANCHOR20]
	sub	w0, w0, #1
	cmp	w1, w0
	bge	.L628
	.loc 2 687 0 is_stmt 0 discriminator 1
	ldrh	w1, [x19]
	mov	w0, 65535
	cmp	w1, w0
	bne	.L629
.L628:
	.loc 2 688 0 is_stmt 1
	mov	x0, x19
	bl	Ftl_write_map_blk_to_last_page
.LVL875:
.L629:
	.loc 2 699 0
	ldrh	w1, [x19]
	ldr	x0, [x19, 16]
	ldrh	w0, [x0, x1, lsl 1]
	cbnz	w0, .L630
	.loc 2 699 0 is_stmt 0 discriminator 1
	adrp	x0, .LC1
	mov	w2, 699
	mov	x1, x24
	add	x0, x0, :lo12:.LC1
	bl	printf
.LVL876:
.L630:
	.loc 2 700 0 is_stmt 1
	ldrh	w1, [x19]
	ldrh	w0, [x19, 10]
	cmp	w1, w0
	bcc	.L631
	.loc 2 700 0 is_stmt 0 discriminator 1
	adrp	x0, .LC1
	mov	w2, 700
	mov	x1, x24
	add	x0, x0, :lo12:.LC1
	bl	printf
.LVL877:
.L631:
	.loc 2 701 0 is_stmt 1
	ldrh	w1, [x19]
	.loc 2 703 0
	adrp	x21, .LANCHOR106
	.loc 2 701 0
	ldr	x0, [x19, 16]
	.loc 2 703 0
	add	x20, x21, :lo12:.LANCHOR106
	.loc 2 707 0
	mov	w2, 16
	.loc 2 701 0
	ldrh	w3, [x0, x1, lsl 1]
.LVL878:
	.loc 2 707 0
	mov	w1, 0
	.loc 2 703 0
	ldrh	w0, [x19, 2]
	str	w3, [x29, 108]
	.loc 2 704 0
	str	x27, [x20, 8]
	.loc 2 703 0
	orr	w0, w0, w3, lsl 10
	str	w0, [x20, 4]
	.loc 2 705 0
	adrp	x0, .LANCHOR108
	ldr	x0, [x0, #:lo12:.LANCHOR108]
	str	x0, [x20, 16]
	.loc 2 707 0
	bl	ftl_memset
.LVL879:
	.loc 2 708 0
	ldr	x0, [x20, 16]
.LVL880:
	.loc 2 709 0
	ldr	w1, [x19, 48]
	.loc 2 712 0
	ldr	w3, [x29, 108]
	.loc 2 709 0
	str	w1, [x0, 4]
	.loc 2 711 0
	ldrh	w1, [x19, 4]
	strh	w1, [x0]
	.loc 2 712 0
	strh	w3, [x0, 2]
	.loc 2 713 0
	mov	w3, 1
	.loc 2 710 0
	strh	w25, [x0, 8]
	.loc 2 713 0
	mov	w1, w3
	mov	w2, w3
	mov	x0, x20
.LVL881:
	bl	FlashProgPages
.LVL882:
	.loc 2 714 0
	ldrh	w0, [x19, 2]
	.loc 2 716 0
	ldr	w1, [x21, #:lo12:.LANCHOR106]
	.loc 2 714 0
	add	w0, w0, 1
	and	w0, w0, 65535
	strh	w0, [x19, 2]
	.loc 2 716 0
	cmn	w1, #1
	bne	.L632
	.loc 2 717 0
	ldr	w1, [x20, 4]
	adrp	x0, .LC89
	add	x0, x0, :lo12:.LC89
	.loc 2 718 0
	add	w22, w22, 1
.LVL883:
	and	w22, w22, 65535
	.loc 2 717 0
	bl	printf
.LVL884:
	.loc 2 719 0
	ldrh	w0, [x19, 2]
	cmp	w0, 2
	bhi	.L633
	.loc 2 720 0
	ldrh	w0, [x28]
	sub	w0, w0, #1
	strh	w0, [x19, 2]
.L633:
	.loc 2 722 0
	cmp	w22, 3
	bls	.L634
	.loc 2 723 0
	add	x21, x21, :lo12:.LANCHOR106
	adrp	x0, .LC90
	mov	w2, w22
	add	x0, x0, :lo12:.LC90
	ldr	w1, [x21, 4]
	bl	printf
.LVL885:
.L635:
	b	.L635
.L634:
	.loc 2 727 0
	ldr	w0, [x19, 52]
	cbz	w0, .L627
.L644:
	b	.L644
.L632:
	.loc 2 731 0
	cmp	w0, 1
	beq	.L627
	.loc 2 734 0
	ldr	x0, [x19, 40]
	ldr	w1, [x20, 4]
	.loc 2 736 0
	ldp	x21, x22, [sp, 32]
.LVL886:
	ldp	x23, x24, [sp, 48]
	ldp	x27, x28, [sp, 80]
.LVL887:
	.loc 2 734 0
	str	w1, [x0, w25, uxtw 2]
	.loc 2 736 0
	ldp	x19, x20, [sp, 16]
.LVL888:
	mov	w0, 0
	ldp	x25, x26, [sp, 64]
.LVL889:
	ldp	x29, x30, [sp], 112
	.cfi_restore 30
	.cfi_restore 29
	.cfi_restore 27
	.cfi_restore 28
	.cfi_restore 25
	.cfi_restore 26
	.cfi_restore 23
	.cfi_restore 24
	.cfi_restore 21
	.cfi_restore 22
	.cfi_restore 19
	.cfi_restore 20
	.cfi_def_cfa 31, 0
.LVL890:
	ret
	.cfi_endproc
.LFE258:
	.size	FtlMapWritePage, .-FtlMapWritePage
	.section	.text.ftl_map_blk_gc,"ax",@progbits
	.align	2
	.global	ftl_map_blk_gc
	.type	ftl_map_blk_gc, %function
ftl_map_blk_gc:
.LFB256:
	.loc 2 586 0
	.cfi_startproc
.LVL891:
	stp	x29, x30, [sp, -96]!
	.cfi_def_cfa_offset 96
	.cfi_offset 29, -96
	.cfi_offset 30, -88
	add	x29, sp, 0
	.cfi_def_cfa_register 29
	stp	x19, x20, [sp, 16]
	.cfi_offset 19, -80
	.cfi_offset 20, -72
	mov	x19, x0
	stp	x23, x24, [sp, 48]
	.cfi_offset 23, -48
	.cfi_offset 24, -40
	adrp	x23, .LANCHOR20
	stp	x21, x22, [sp, 32]
	stp	x25, x26, [sp, 64]
	stp	x27, x28, [sp, 80]
	.cfi_offset 21, -64
	.cfi_offset 22, -56
	.cfi_offset 25, -32
	.cfi_offset 26, -24
	.cfi_offset 27, -16
	.cfi_offset 28, -8
	.loc 2 590 0
	ldr	x20, [x0, 16]
.LVL892:
	.loc 2 591 0
	ldr	x24, [x0, 40]
.LVL893:
	.loc 2 594 0
	bl	ftl_free_no_use_map_blk
.LVL894:
	.loc 2 596 0
	ldrh	w1, [x19, 10]
	ldrh	w2, [x19, 8]
	sub	w1, w1, #4
	cmp	w2, w1
	blt	.L647
	.loc 2 597 0
	ubfiz	x0, x0, 1, 16
.LVL895:
	ldrh	w21, [x20, x0]
.LVL896:
	.loc 2 598 0
	cbz	w21, .L647
	.loc 2 598 0 is_stmt 0 discriminator 1
	ldr	w1, [x19, 52]
	cbnz	w1, .L647
	.loc 2 599 0 is_stmt 1
	mov	w1, 1
	str	w1, [x19, 52]
	.loc 2 600 0
	strh	wzr, [x20, x0]
	.loc 2 601 0
	ldrh	w0, [x19, 8]
	.loc 2 602 0
	ldrh	w1, [x19, 2]
	.loc 2 601 0
	sub	w0, w0, #1
	strh	w0, [x19, 8]
	.loc 2 602 0
	ldrh	w0, [x23, #:lo12:.LANCHOR20]
	cmp	w1, w0
	bcc	.L648
	.loc 2 603 0
	mov	x0, x19
	bl	ftl_map_blk_alloc_new_blk
.LVL897:
.L648:
	.loc 2 607 0 discriminator 1
	adrp	x25, .LANCHOR106
	.loc 2 613 0 discriminator 1
	adrp	x22, .LANCHOR143
	.loc 2 614 0 discriminator 1
	add	x26, x25, :lo12:.LANCHOR106
	.loc 2 613 0 discriminator 1
	add	x22, x22, :lo12:.LANCHOR143
	.loc 2 586 0 discriminator 1
	mov	w20, 0
.LVL898:
.L649:
	.loc 2 605 0 discriminator 1
	ldrh	w0, [x19, 6]
	cmp	w0, w20
	bhi	.L653
	.loc 2 621 0
	mov	w1, 1
	mov	w0, w21
	bl	FtlFreeSysBlkQueueIn
.LVL899:
	.loc 2 622 0
	str	wzr, [x19, 52]
.LVL900:
.L647:
	.loc 2 626 0
	ldrh	w1, [x19, 2]
	ldrh	w0, [x23, #:lo12:.LANCHOR20]
	cmp	w1, w0
	bcc	.L654
	.loc 2 627 0
	mov	x0, x19
	bl	ftl_map_blk_alloc_new_blk
.LVL901:
.L654:
	.loc 2 629 0
	mov	w0, 0
	ldp	x19, x20, [sp, 16]
.LVL902:
	ldp	x21, x22, [sp, 32]
	ldp	x23, x24, [sp, 48]
.LVL903:
	ldp	x25, x26, [sp, 64]
	ldp	x27, x28, [sp, 80]
	ldp	x29, x30, [sp], 96
	.cfi_remember_state
	.cfi_restore 30
	.cfi_restore 29
	.cfi_restore 27
	.cfi_restore 28
	.cfi_restore 25
	.cfi_restore 26
	.cfi_restore 23
	.cfi_restore 24
	.cfi_restore 21
	.cfi_restore 22
	.cfi_restore 19
	.cfi_restore 20
	.cfi_def_cfa 31, 0
	ret
.LVL904:
.L653:
	.cfi_restore_state
	.loc 2 606 0
	ubfiz	x27, x20, 2, 16
	ldr	w1, [x24, x27]
	cmp	w21, w1, lsr 10
	bne	.L650
	.loc 2 607 0
	adrp	x2, .LANCHOR123
	add	x0, x25, :lo12:.LANCHOR106
	ldr	x2, [x2, #:lo12:.LANCHOR123]
	str	x2, [x0, 8]
	.loc 2 608 0
	adrp	x2, .LANCHOR108
	.loc 2 609 0
	str	w1, [x0, 4]
	.loc 2 608 0
	ldr	x28, [x2, #:lo12:.LANCHOR108]
.LVL905:
	.loc 2 611 0
	mov	w2, 1
	.loc 2 608 0
	str	x28, [x0, 16]
	.loc 2 611 0
	mov	w1, w2
	bl	FlashReadPages
.LVL906:
	.loc 2 613 0
	ldrh	w0, [x28, 8]
	cmp	w0, w20
	beq	.L651
	.loc 2 613 0 is_stmt 0 discriminator 1
	adrp	x0, .LC1
	mov	w2, 613
	mov	x1, x22
	add	x0, x0, :lo12:.LC1
	bl	printf
.LVL907:
.L651:
	.loc 2 614 0 is_stmt 1
	ldr	w0, [x26]
	cmn	w0, #1
	bne	.L652
	.loc 2 615 0
	str	wzr, [x24, x27]
.LVL908:
.L650:
	.loc 2 605 0 discriminator 2
	add	w20, w20, 1
.LVL909:
	and	w20, w20, 65535
.LVL910:
	b	.L649
.LVL911:
.L652:
	.loc 2 617 0
	ldr	x2, [x26, 8]
	mov	w1, w20
	mov	x0, x19
	bl	FtlMapWritePage
.LVL912:
	b	.L650
	.cfi_endproc
.LFE256:
	.size	ftl_map_blk_gc, .-ftl_map_blk_gc
	.section	.text.flush_l2p_region,"ax",@progbits
	.align	2
	.global	flush_l2p_region
	.type	flush_l2p_region, %function
flush_l2p_region:
.LFB259:
	.loc 2 739 0
	.cfi_startproc
.LVL913:
	stp	x29, x30, [sp, -32]!
	.cfi_def_cfa_offset 32
	.cfi_offset 29, -32
	.cfi_offset 30, -24
	add	x29, sp, 0
	.cfi_def_cfa_register 29
	stp	x19, x20, [sp, 16]
	.cfi_offset 19, -16
	.cfi_offset 20, -8
	.loc 2 742 0
	adrp	x20, .LANCHOR55
	ubfiz	x19, x0, 4, 16
	ldr	x0, [x20, #:lo12:.LANCHOR55]
.LVL914:
	add	x1, x0, x19
.LVL915:
	.loc 2 743 0
	ldr	x2, [x1, 8]
	ldrh	w1, [x0, x19]
.LVL916:
	adrp	x0, .LANCHOR144
	add	x0, x0, :lo12:.LANCHOR144
	bl	FtlMapWritePage
.LVL917:
	.loc 2 744 0
	ldr	x0, [x20, #:lo12:.LANCHOR55]
	add	x0, x0, x19
	.loc 2 746 0
	ldp	x19, x20, [sp, 16]
	.loc 2 744 0
	ldr	w1, [x0, 4]
	and	w1, w1, 2147483647
	str	w1, [x0, 4]
	.loc 2 746 0
	mov	w0, 0
	ldp	x29, x30, [sp], 32
	.cfi_restore 30
	.cfi_restore 29
	.cfi_restore 19
	.cfi_restore 20
	.cfi_def_cfa 31, 0
	ret
	.cfi_endproc
.LFE259:
	.size	flush_l2p_region, .-flush_l2p_region
	.section	.text.log2phys,"ax",@progbits
	.align	2
	.global	log2phys
	.type	log2phys, %function
log2phys:
.LFB262:
	.loc 2 802 0
	.cfi_startproc
.LVL918:
	stp	x29, x30, [sp, -80]!
	.cfi_def_cfa_offset 80
	.cfi_offset 29, -80
	.cfi_offset 30, -72
	add	x29, sp, 0
	.cfi_def_cfa_register 29
	stp	x23, x24, [sp, 48]
	.cfi_offset 23, -32
	.cfi_offset 24, -24
	mov	x23, x1
	.loc 2 805 0
	adrp	x1, .LANCHOR22
.LVL919:
	.loc 2 802 0
	stp	x19, x20, [sp, 16]
	stp	x21, x22, [sp, 32]
	mov	w24, w2
	.cfi_offset 19, -64
	.cfi_offset 20, -56
	.cfi_offset 21, -48
	.cfi_offset 22, -40
	.loc 2 805 0
	ldrh	w19, [x1, #:lo12:.LANCHOR22]
	.loc 2 802 0
	str	x25, [sp, 64]
	.cfi_offset 25, -16
	.loc 2 805 0
	add	w1, w19, 7
	.loc 2 806 0
	mov	x19, 1
	.loc 2 805 0
	lsr	w22, w0, w1
	and	w22, w22, 65535
.LVL920:
	.loc 2 806 0
	lsl	x19, x19, x1
	.loc 2 808 0
	adrp	x1, .LANCHOR61
	.loc 2 806 0
	sub	w19, w19, #1
	.loc 2 808 0
	ldr	w1, [x1, #:lo12:.LANCHOR61]
	.loc 2 806 0
	and	w19, w19, w0
	and	x19, x19, 65535
.LVL921:
	.loc 2 808 0
	cmp	w0, w1
	bcc	.L662
	.loc 2 808 0 is_stmt 0 discriminator 1
	adrp	x1, .LANCHOR145
	adrp	x0, .LC1
.LVL922:
	mov	w2, 808
.LVL923:
	add	x1, x1, :lo12:.LANCHOR145
	add	x0, x0, :lo12:.LC1
	bl	printf
.LVL924:
.L662:
	.loc 2 811 0 is_stmt 1
	adrp	x21, .LANCHOR55
	.loc 2 810 0
	adrp	x0, .LANCHOR33
	.loc 2 811 0
	ldr	x2, [x21, #:lo12:.LANCHOR55]
	.loc 2 810 0
	ldrh	w1, [x0, #:lo12:.LANCHOR33]
	mov	x0, 0
.LVL925:
.L663:
	and	x20, x0, 65535
.LVL926:
	.loc 2 810 0 is_stmt 0 discriminator 1
	cmp	w20, w1
	bcc	.L668
	.loc 2 825 0 is_stmt 1
	bl	select_l2p_ram_region
.LVL927:
	and	x20, x0, 65535
.LVL928:
	.loc 2 826 0
	ldr	x2, [x21, #:lo12:.LANCHOR55]
	ubfiz	x1, x20, 4, 16
	.loc 2 825 0
	mov	w25, w0
	.loc 2 826 0
	add	x3, x2, x1
	ldrh	w2, [x2, x1]
	mov	w1, 65535
	cmp	w2, w1
	beq	.L669
	.loc 2 826 0 is_stmt 0 discriminator 1
	ldr	w1, [x3, 4]
	tbz	w1, #31, .L669
	.loc 2 827 0 is_stmt 1
	bl	flush_l2p_region
.LVL929:
.L669:
	.loc 2 830 0
	mov	w1, w25
	mov	w0, w22
	bl	load_l2p_region
.LVL930:
	.loc 2 831 0
	b	.L664
.LVL931:
.L668:
	add	x0, x0, 1
	.loc 2 811 0
	add	x3, x2, x0, lsl 4
	ldrh	w3, [x3, -16]
	cmp	w3, w22
	bne	.L663
.LVL932:
.L664:
	.loc 2 814 0
	ldr	x0, [x21, #:lo12:.LANCHOR55]
	add	x0, x0, x20, lsl 4
	.loc 2 813 0
	cbnz	w24, .L665
	.loc 2 814 0
	ldr	x0, [x0, 8]
	ldr	w0, [x0, x19, lsl 2]
	str	w0, [x23]
.L666:
	.loc 2 820 0
	ldr	x0, [x21, #:lo12:.LANCHOR55]
	add	x20, x0, x20, lsl 4
.LVL933:
	ldr	w0, [x20, 4]
	cmn	w0, #1
	beq	.L671
	.loc 2 821 0
	add	w0, w0, 1
	str	w0, [x20, 4]
.L671:
	.loc 2 832 0
	mov	w0, 0
	ldr	x25, [sp, 64]
	ldp	x19, x20, [sp, 16]
.LVL934:
	ldp	x21, x22, [sp, 32]
.LVL935:
	ldp	x23, x24, [sp, 48]
.LVL936:
	ldp	x29, x30, [sp], 80
	.cfi_remember_state
	.cfi_restore 30
	.cfi_restore 29
	.cfi_restore 25
	.cfi_restore 23
	.cfi_restore 24
	.cfi_restore 21
	.cfi_restore 22
	.cfi_restore 19
	.cfi_restore 20
	.cfi_def_cfa 31, 0
	ret
.LVL937:
.L665:
	.cfi_restore_state
	.loc 2 816 0
	ldr	x1, [x0, 8]
	ldr	w2, [x23]
	str	w2, [x1, x19, lsl 2]
	.loc 2 817 0
	ldr	w1, [x0, 4]
	orr	w1, w1, -2147483648
	str	w1, [x0, 4]
	.loc 2 818 0
	adrp	x0, .LANCHOR56
	strh	w22, [x0, #:lo12:.LANCHOR56]
	b	.L666
	.cfi_endproc
.LFE262:
	.size	log2phys, .-log2phys
	.section	.text.FtlReUsePrevPpa,"ax",@progbits
	.align	2
	.global	FtlReUsePrevPpa
	.type	FtlReUsePrevPpa, %function
FtlReUsePrevPpa:
.LFB280:
	.loc 2 1677 0
	.cfi_startproc
.LVL938:
	stp	x29, x30, [sp, -80]!
	.cfi_def_cfa_offset 80
	.cfi_offset 29, -80
	.cfi_offset 30, -72
	add	x29, sp, 0
	.cfi_def_cfa_register 29
	stp	x21, x22, [sp, 32]
	.cfi_offset 21, -48
	.cfi_offset 22, -40
	.loc 2 1680 0
	adrp	x22, .LANCHOR42
	.loc 2 1677 0
	stp	x19, x20, [sp, 16]
	mov	w21, w0
	str	w1, [x29, 76]
	.loc 2 1678 0
	lsr	w0, w1, 10
.LVL939:
	.loc 2 1677 0
	str	x23, [sp, 48]
	.cfi_offset 19, -64
	.cfi_offset 20, -56
	.cfi_offset 23, -32
	.loc 2 1678 0
	bl	P2V_block_in_plane
.LVL940:
	.loc 2 1680 0
	ldr	x2, [x22, #:lo12:.LANCHOR42]
	.loc 2 1678 0
	and	w3, w0, 65535
.LVL941:
	.loc 2 1680 0
	ubfiz	x20, x3, 1, 16
	ldrh	w1, [x2, x20]
	cbnz	w1, .L677
	.loc 2 1681 0
	adrp	x0, .LANCHOR47
.LVL942:
	ldr	x19, [x0, #:lo12:.LANCHOR47]
	cbz	x19, .L678
.LBB260:
	.loc 2 1685 0
	adrp	x2, .LANCHOR40
	mov	x5, -6148914691236517206
	movk	x5, 0xaaab, lsl 0
	.loc 2 1684 0
	adrp	x23, .LANCHOR48
	.loc 2 1685 0
	ldr	x2, [x2, #:lo12:.LANCHOR40]
	.loc 2 1693 0
	mov	w6, 65535
	.loc 2 1684 0
	ldrh	w4, [x23, #:lo12:.LANCHOR48]
.LVL943:
	.loc 2 1685 0
	sub	x19, x19, x2
	asr	x19, x19, 1
	mul	x19, x19, x5
	.loc 2 1693 0
	mov	w5, 6
	.loc 2 1685 0
	and	w19, w19, 65535
.LVL944:
.L679:
	.loc 2 1686 0 discriminator 1
	cmp	w1, w4
	beq	.L678
	.loc 2 1687 0
	cmp	w19, w3
	bne	.L680
	.loc 2 1688 0
	mov	w1, w19
.LVL945:
	add	x0, x0, :lo12:.LANCHOR47
	bl	List_remove_node
.LVL946:
	ldrh	w0, [x23, #:lo12:.LANCHOR48]
	cbnz	w0, .L681
	.loc 2 1688 0 is_stmt 0 discriminator 1
	adrp	x1, .LANCHOR146
	adrp	x0, .LC1
	mov	w2, 1688
	add	x1, x1, :lo12:.LANCHOR146
	add	x0, x0, :lo12:.LC1
	bl	printf
.LVL947:
.L681:
	.loc 2 1688 0 discriminator 3
	ldrh	w0, [x23, #:lo12:.LANCHOR48]
	sub	w0, w0, #1
	strh	w0, [x23, #:lo12:.LANCHOR48]
	.loc 2 1689 0 is_stmt 1 discriminator 3
	mov	w0, w19
	bl	INSERT_DATA_LIST
.LVL948:
	.loc 2 1690 0 discriminator 3
	ldr	x1, [x22, #:lo12:.LANCHOR42]
	ldrh	w0, [x1, x20]
	add	w0, w0, 1
	strh	w0, [x1, x20]
.LVL949:
.L678:
.LBE260:
	.loc 2 1701 0
	add	x1, x29, 76
	mov	w2, 1
	mov	w0, w21
	bl	log2phys
.LVL950:
	.loc 2 1702 0
	ldp	x19, x20, [sp, 16]
	ldp	x21, x22, [sp, 32]
.LVL951:
	ldr	x23, [sp, 48]
	ldp	x29, x30, [sp], 80
	.cfi_remember_state
	.cfi_restore 30
	.cfi_restore 29
	.cfi_restore 23
	.cfi_restore 21
	.cfi_restore 22
	.cfi_restore 19
	.cfi_restore 20
	.cfi_def_cfa 31, 0
	ret
.LVL952:
.L680:
	.cfi_restore_state
.LBB261:
	.loc 2 1693 0
	umull	x19, w19, w5
.LVL953:
	ldrh	w19, [x2, x19]
	cmp	w19, w6
	beq	.L678
.LVL954:
	.loc 2 1686 0 discriminator 2
	add	w1, w1, 1
.LVL955:
	and	w1, w1, 65535
.LVL956:
	b	.L679
.LVL957:
.L677:
.LBE261:
	.loc 2 1699 0
	add	w1, w1, 1
	strh	w1, [x2, x20]
	b	.L678
	.cfi_endproc
.LFE280:
	.size	FtlReUsePrevPpa, .-FtlReUsePrevPpa
	.section	.text.ftl_scan_all_data,"ax",@progbits
	.align	2
	.global	ftl_scan_all_data
	.type	ftl_scan_all_data, %function
ftl_scan_all_data:
.LFB291:
	.loc 2 2325 0
	.cfi_startproc
	sub	sp, sp, #96
	.cfi_def_cfa_offset 96
	.loc 2 2330 0
	adrp	x0, .LC91
	mov	w1, 0
	add	x0, x0, :lo12:.LC91
	.loc 2 2325 0
	stp	x29, x30, [sp, 16]
	.cfi_offset 29, -80
	.cfi_offset 30, -72
	add	x29, sp, 16
	.cfi_def_cfa 29, 80
	stp	x19, x20, [sp, 32]
	.cfi_offset 19, -64
	.cfi_offset 20, -56
	.loc 2 2336 0
	adrp	x20, .LANCHOR106
	.loc 2 2325 0
	stp	x21, x22, [sp, 48]
	.loc 2 2331 0
	mov	w19, 0
	.cfi_offset 21, -48
	.cfi_offset 22, -40
	adrp	x21, .LANCHOR61
	.loc 2 2347 0
	add	x22, x20, :lo12:.LANCHOR106
	.loc 2 2331 0
	add	x21, x21, :lo12:.LANCHOR61
	.loc 2 2325 0
	str	x23, [sp, 64]
	.cfi_offset 23, -32
	.loc 2 2330 0
	bl	printf
.LVL958:
.L688:
	.loc 2 2331 0 discriminator 1
	ldr	w0, [x21]
	cmp	w19, w0
	bcc	.L694
	.loc 2 2353 0
	ldp	x19, x20, [sp, 32]
.LVL959:
	ldp	x21, x22, [sp, 48]
	ldp	x29, x30, [sp, 16]
	ldr	x23, [sp, 64]
	add	sp, sp, 96
	.cfi_remember_state
	.cfi_restore 29
	.cfi_restore 30
	.cfi_restore 23
	.cfi_restore 21
	.cfi_restore 22
	.cfi_restore 19
	.cfi_restore 20
	.cfi_def_cfa 31, 0
	ret
.LVL960:
.L694:
	.cfi_restore_state
	.loc 2 2332 0
	mov	w2, 0
	add	x1, x29, 76
	mov	w0, w19
	bl	log2phys
.LVL961:
	.loc 2 2333 0
	tst	x19, 2047
	bne	.L689
	.loc 2 2334 0
	ldr	w2, [x29, 76]
	adrp	x0, .LC92
	mov	w1, w19
	add	x0, x0, :lo12:.LC92
	bl	printf
.LVL962:
.L689:
	.loc 2 2335 0
	ldr	w1, [x29, 76]
	cmn	w1, #1
	beq	.L691
	.loc 2 2336 0
	add	x0, x20, :lo12:.LANCHOR106
	.loc 2 2340 0
	str	wzr, [x20, #:lo12:.LANCHOR106]
	.loc 2 2342 0
	mov	w2, 0
	.loc 2 2336 0
	str	w1, [x0, 4]
	.loc 2 2338 0
	adrp	x1, .LANCHOR107
	.loc 2 2337 0
	str	w19, [x0, 24]
	.loc 2 2338 0
	ldr	x1, [x1, #:lo12:.LANCHOR107]
	str	x1, [x0, 8]
	.loc 2 2339 0
	adrp	x1, .LANCHOR108
	ldr	x23, [x1, #:lo12:.LANCHOR108]
.LVL963:
	.loc 2 2342 0
	mov	w1, 1
	.loc 2 2339 0
	str	x23, [x0, 16]
	.loc 2 2342 0
	bl	FlashReadPages
.LVL964:
	.loc 2 2343 0
	ldr	w0, [x20, #:lo12:.LANCHOR106]
	cmp	w0, 256
	ccmn	w0, #1, 4, ne
	beq	.L692
	.loc 2 2344 0
	ldr	w0, [x23, 8]
	cmp	w19, w0
	beq	.L691
.L692:
	.loc 2 2347 0
	ldp	x1, x0, [x22, 8]
	ldr	w2, [x1, 4]
	str	w2, [sp]
	ldr	w2, [x22, 4]
	ldp	w3, w4, [x0]
	ldp	w5, w6, [x0, 8]
	adrp	x0, .LC93
	ldr	w7, [x1]
	add	x0, x0, :lo12:.LC93
	mov	w1, w19
	bl	printf
.LVL965:
.L691:
	.loc 2 2331 0 discriminator 2
	add	w19, w19, 1
.LVL966:
	b	.L688
	.cfi_endproc
.LFE291:
	.size	ftl_scan_all_data, .-ftl_scan_all_data
	.section	.text.FtlReadRefresh,"ax",@progbits
	.align	2
	.global	FtlReadRefresh
	.type	FtlReadRefresh, %function
FtlReadRefresh:
.LFB318:
	.loc 5 419 0
	.cfi_startproc
.LVL967:
	.loc 5 425 0
	adrp	x1, .LANCHOR81
	add	x0, x1, :lo12:.LANCHOR81
	ldr	w2, [x0, 80]
	cbz	w2, .L697
	.loc 5 426 0
	adrp	x1, .LANCHOR61
	ldr	w3, [x0, 84]
	ldr	w2, [x1, #:lo12:.LANCHOR61]
	cmp	w3, w2
	bcs	.L698
	.loc 5 419 0
	stp	x29, x30, [sp, -160]!
	.cfi_def_cfa_offset 160
	.cfi_offset 29, -160
	.cfi_offset 30, -152
	add	x29, sp, 0
	.cfi_def_cfa_register 29
	stp	x19, x20, [sp, 16]
	.cfi_offset 19, -144
	.cfi_offset 20, -136
.LBB267:
.LBB268:
	.loc 5 428 0
	mov	x19, x0
	add	x20, x1, :lo12:.LANCHOR61
.LBE268:
.LBE267:
	.loc 5 419 0
	str	x21, [sp, 32]
	.cfi_offset 21, -128
	mov	w21, 2048
.L703:
.LVL968:
.LBB273:
.LBB270:
	.loc 5 428 0
	ldr	w0, [x19, 84]
	ldr	w1, [x20]
	cmp	w0, w1
	bcs	.L700
	.loc 5 430 0
	add	x1, x29, 60
	mov	w2, 0
	bl	log2phys
.LVL969:
	.loc 5 431 0
	ldr	w0, [x19, 84]
	.loc 5 432 0
	ldr	w1, [x29, 60]
	.loc 5 431 0
	add	w0, w0, 1
	str	w0, [x19, 84]
	.loc 5 432 0
	cmn	w1, #1
	beq	.L701
.LBB269:
	.loc 5 435 0
	str	w0, [x29, 88]
	.loc 5 436 0
	adrp	x0, ftl_temp_buf
	add	x0, x0, :lo12:ftl_temp_buf
	str	x0, [x29, 72]
	.loc 5 437 0
	add	x0, x29, 96
	str	x0, [x29, 80]
	.loc 5 438 0
	add	x0, x29, 160
	.loc 5 434 0
	str	w1, [x29, 68]
	.loc 5 439 0
	mov	w2, 0
	mov	w1, 1
	.loc 5 438 0
	str	wzr, [x0, -96]!
	.loc 5 439 0
	bl	FlashReadPages
.LVL970:
	.loc 5 440 0
	ldr	w0, [x29, 64]
	cmp	w0, 256
	bne	.L700
	.loc 5 442 0
	ldr	w0, [x29, 60]
	lsr	w0, w0, 10
	bl	P2V_block_in_plane
.LVL971:
	bl	FtlGcRefreshBlock
.LVL972:
.L700:
.LBE269:
.LBE270:
.LBE273:
	.loc 5 466 0
	ldp	x19, x20, [sp, 16]
.LBB274:
.LBB271:
	mov	w0, -1
.LBE271:
.LBE274:
	ldr	x21, [sp, 32]
	ldp	x29, x30, [sp], 160
	.cfi_remember_state
	.cfi_restore 30
	.cfi_restore 29
	.cfi_restore 21
	.cfi_restore 19
	.cfi_restore 20
	.cfi_def_cfa 31, 0
	ret
.LVL973:
.L701:
	.cfi_restore_state
.LBB275:
.LBB272:
	.loc 5 427 0
	subs	w21, w21, #1
.LVL974:
	bne	.L703
	b	.L700
.LVL975:
.L698:
	.cfi_def_cfa 31, 0
	.cfi_restore 19
	.cfi_restore 20
	.cfi_restore 21
	.cfi_restore 29
	.cfi_restore 30
.LBE272:
.LBE275:
	.loc 5 451 0
	adrp	x1, .LANCHOR62
	.loc 5 450 0
	str	wzr, [x0, 84]
	.loc 5 451 0
	ldr	w1, [x1, #:lo12:.LANCHOR62]
	.loc 5 449 0
	stp	w1, wzr, [x0, 76]
.L707:
	.loc 5 420 0
	mov	w0, 0
	.loc 5 465 0
	ret
.L697:
.LVL976:
.LBB276:
	.loc 5 456 0
	ldr	w4, [x0, 76]
	adrp	x0, .LANCHOR62
	ldr	w2, [x0, #:lo12:.LANCHOR62]
	add	w0, w2, 1048576
	cmp	w4, w0
	bhi	.L706
	.loc 5 454 0
	adrp	x0, .LANCHOR76
	ldr	w0, [x0, #:lo12:.LANCHOR76]
	lsr	w3, w0, 10
	mov	w0, 33554432
	asr	w0, w0, w3
	.loc 5 457 0
	add	w0, w0, w4
	cmp	w2, w0
	bhi	.L706
	.loc 5 458 0
	adrp	x0, .LANCHOR39+28
	ldrb	w0, [x0, #:lo12:.LANCHOR39+28]
	cbnz	w0, .L707
.L706:
	.loc 5 460 0
	add	x0, x1, :lo12:.LANCHOR81
	mov	w1, 1
	.loc 5 461 0
	str	wzr, [x0, 84]
	.loc 5 460 0
	stp	w2, w1, [x0, 76]
	b	.L707
.LBE276:
	.cfi_endproc
.LFE318:
	.size	FtlReadRefresh, .-FtlReadRefresh
	.section	.text.FtlMapBlkWriteDump_data,"ax",@progbits
	.align	2
	.global	FtlMapBlkWriteDump_data
	.type	FtlMapBlkWriteDump_data, %function
FtlMapBlkWriteDump_data:
.LFB267:
	.loc 2 946 0
	.cfi_startproc
.LVL977:
	.loc 2 952 0
	ldr	w1, [x0, 56]
	cbz	w1, .L713
	.loc 2 946 0
	stp	x29, x30, [sp, -48]!
	.cfi_def_cfa_offset 48
	.cfi_offset 29, -48
	.cfi_offset 30, -40
.LVL978:
	.loc 2 956 0
	adrp	x1, .LANCHOR106
	.loc 2 957 0
	adrp	x2, .LANCHOR108
	.loc 2 946 0
	add	x29, sp, 0
	.cfi_def_cfa_register 29
	stp	x19, x20, [sp, 16]
	.cfi_offset 19, -32
	.cfi_offset 20, -24
	mov	x19, x0
	.loc 2 948 0
	ldrh	w20, [x0, 6]
	.loc 2 956 0
	adrp	x0, .LANCHOR123
.LVL979:
	.loc 2 957 0
	ldr	x2, [x2, #:lo12:.LANCHOR108]
	.loc 2 956 0
	ldr	x3, [x0, #:lo12:.LANCHOR123]
	add	x0, x1, :lo12:.LANCHOR106
	.loc 2 948 0
	sub	w20, w20, #1
	.loc 2 949 0
	ldr	x4, [x19, 40]
	.loc 2 948 0
	and	w20, w20, 65535
	.loc 2 946 0
	str	x21, [sp, 32]
	.cfi_offset 21, -16
	.loc 2 957 0
	stp	x3, x2, [x0, 8]
	.loc 2 979 0
	ubfiz	x2, x20, 2, 16
	.loc 2 954 0
	str	wzr, [x19, 56]
	mov	x21, x1
	.loc 2 979 0
	ldr	w2, [x4, x2]
.LVL980:
	.loc 2 980 0
	str	w2, [x0, 4]
	.loc 2 981 0
	cbz	w2, .L715
	.loc 2 983 0
	mov	w2, 1
.LVL981:
	mov	w1, w2
	bl	FlashReadPages
.LVL982:
.L716:
	.loc 2 990 0
	add	x1, x21, :lo12:.LANCHOR106
	mov	x0, x19
	.loc 2 992 0
	ldr	x21, [sp, 32]
	.loc 2 990 0
	ldr	x2, [x1, 8]
	mov	w1, w20
	.loc 2 992 0
	ldp	x19, x20, [sp, 16]
.LVL983:
	ldp	x29, x30, [sp], 48
	.cfi_remember_state
	.cfi_restore 30
	.cfi_restore 29
	.cfi_restore 21
	.cfi_restore 19
	.cfi_restore 20
	.cfi_def_cfa 31, 0
	.loc 2 990 0
	b	FtlMapWritePage
.LVL984:
.L715:
	.cfi_restore_state
	.loc 2 987 0
	adrp	x0, .LANCHOR23
	mov	w1, 255
	ldrh	w2, [x0, #:lo12:.LANCHOR23]
.LVL985:
	mov	x0, x3
	bl	ftl_memset
.LVL986:
	b	.L716
.LVL987:
.L713:
	.cfi_def_cfa 31, 0
	.cfi_restore 19
	.cfi_restore 20
	.cfi_restore 21
	.cfi_restore 29
	.cfi_restore 30
	ret
	.cfi_endproc
.LFE267:
	.size	FtlMapBlkWriteDump_data, .-FtlMapBlkWriteDump_data
	.section	.text.FtlScanSysBlk,"ax",@progbits
	.align	2
	.global	FtlScanSysBlk
	.type	FtlScanSysBlk, %function
FtlScanSysBlk:
.LFB270:
	.loc 2 1144 0
	.cfi_startproc
	stp	x29, x30, [sp, -176]!
	.cfi_def_cfa_offset 176
	.cfi_offset 29, -176
	.cfi_offset 30, -168
	.loc 2 1152 0
	mov	w1, 0
	.loc 2 1144 0
	add	x29, sp, 0
	.cfi_def_cfa_register 29
	stp	x25, x26, [sp, 64]
	.cfi_offset 25, -112
	.cfi_offset 26, -104
	.loc 2 1152 0
	adrp	x25, .LANCHOR135
	.loc 2 1144 0
	stp	x21, x22, [sp, 32]
	.cfi_offset 21, -144
	.cfi_offset 22, -136
	.loc 2 1152 0
	adrp	x21, .LANCHOR30
	ldr	x0, [x25, #:lo12:.LANCHOR135]
	.loc 2 1154 0
	adrp	x22, .LANCHOR132
	.loc 2 1152 0
	ldr	w2, [x21, #:lo12:.LANCHOR30]
	.loc 2 1144 0
	stp	x19, x20, [sp, 16]
	.cfi_offset 19, -160
	.cfi_offset 20, -152
	.loc 2 1150 0
	adrp	x20, .LANCHOR147
	.loc 2 1144 0
	stp	x23, x24, [sp, 48]
	.cfi_offset 23, -128
	.cfi_offset 24, -120
	.loc 2 1151 0
	adrp	x23, .LANCHOR35
	.loc 2 1144 0
	stp	x27, x28, [sp, 80]
	.cfi_offset 27, -96
	.cfi_offset 28, -88
	.loc 2 1153 0
	adrp	x27, .LANCHOR129
	.loc 2 1152 0
	lsl	w2, w2, 2
	.loc 2 1150 0
	strh	wzr, [x20, #:lo12:.LANCHOR147]
	.loc 2 1151 0
	strh	wzr, [x23, #:lo12:.LANCHOR35]
	.loc 2 1152 0
	bl	ftl_memset
.LVL988:
	.loc 2 1153 0
	ldr	x0, [x27, #:lo12:.LANCHOR129]
	mov	w1, 0
	ldr	w2, [x21, #:lo12:.LANCHOR30]
	.loc 2 1154 0
	adrp	x19, .LANCHOR27
	.loc 2 1155 0
	adrp	x28, .LANCHOR36
	.loc 2 1156 0
	adrp	x24, .LANCHOR79
	.loc 2 1153 0
	lsl	w2, w2, 1
	bl	ftl_memset
.LVL989:
	.loc 2 1154 0
	ldr	x0, [x22, #:lo12:.LANCHOR132]
	mov	w1, 0
	ldrh	w2, [x19, #:lo12:.LANCHOR27]
	lsl	w2, w2, 2
	bl	ftl_memset
.LVL990:
	.loc 2 1155 0
	ldr	x0, [x28, #:lo12:.LANCHOR36]
	mov	w1, 0
	ldrh	w2, [x19, #:lo12:.LANCHOR27]
	lsl	w2, w2, 1
	bl	ftl_memset
.LVL991:
	.loc 2 1156 0
	mov	w2, 12
	mov	w1, 255
	add	x0, x24, :lo12:.LANCHOR79
	bl	ftl_memset
.LVL992:
	.loc 2 1158 0
	adrp	x0, .LANCHOR5
	stp	x22, x25, [x29, 144]
	str	x27, [x29, 160]
	ldrh	w0, [x0, #:lo12:.LANCHOR5]
	str	w0, [x29, 172]
.LVL993:
	adrp	x0, .LANCHOR6
	add	x0, x0, :lo12:.LANCHOR6
	str	x0, [x29, 120]
	.loc 2 1201 0
	adrp	x0, .LANCHOR70
	add	x0, x0, :lo12:.LANCHOR70
	str	x0, [x29, 112]
.L721:
	.loc 2 1158 0 discriminator 1
	ldr	x0, [x29, 120]
	ldr	w1, [x29, 172]
	ldrh	w0, [x0]
	cmp	w0, w1
	bls	.L761
	.loc 2 1162 0 discriminator 1
	adrp	x0, .LANCHOR3
	.loc 2 1167 0 discriminator 1
	adrp	x25, .LANCHOR120
	.loc 2 1164 0 discriminator 1
	adrp	x6, .LANCHOR13
	.loc 2 1169 0 discriminator 1
	mov	x5, 0
	.loc 2 1162 0 discriminator 1
	ldrh	w12, [x0, #:lo12:.LANCHOR3]
	.loc 2 1168 0 discriminator 1
	adrp	x0, .LANCHOR91
	.loc 2 1167 0 discriminator 1
	ldr	x7, [x25, #:lo12:.LANCHOR120]
	.loc 2 1169 0 discriminator 1
	mov	w22, 0
	.loc 2 1168 0 discriminator 1
	ldr	x11, [x0, #:lo12:.LANCHOR91]
	.loc 2 1169 0 discriminator 1
	adrp	x0, .LANCHOR92
	.loc 2 1164 0 discriminator 1
	add	x6, x6, :lo12:.LANCHOR13
	.loc 2 1169 0 discriminator 1
	ldr	x10, [x0, #:lo12:.LANCHOR92]
	adrp	x0, .LANCHOR24
	ldrh	w8, [x0, #:lo12:.LANCHOR24]
	b	.L762
.LVL994:
.L723:
	.loc 2 1164 0
	ldrh	w1, [x29, 172]
	ldrb	w0, [x6, x5]
	bl	V2P_block
.LVL995:
	and	w4, w0, 65535
.LVL996:
	.loc 2 1165 0
	bl	FtlBbmIsBadBlock
.LVL997:
	cbnz	w0, .L722
	.loc 2 1167 0
	ubfiz	x0, x22, 5, 16
	.loc 2 1169 0
	mul	w1, w22, w8
	.loc 2 1167 0
	add	x0, x7, x0
	.loc 2 1170 0
	add	w22, w22, 1
.LVL998:
	and	w22, w22, 65535
.LVL999:
	.loc 2 1167 0
	lsl	w4, w4, 10
.LVL1000:
	.loc 2 1169 0
	asr	w1, w1, 2
	add	x1, x10, x1, sxtw 2
	.loc 2 1167 0
	str	w4, [x0, 4]
	.loc 2 1169 0
	stp	x11, x1, [x0, 8]
.L722:
.LVL1001:
	add	x5, x5, 1
.LVL1002:
.L762:
	.loc 2 1162 0 discriminator 1
	cmp	w12, w5, uxth
	bhi	.L723
	.loc 2 1173 0
	cbnz	w22, .L724
.LVL1003:
.L760:
	.loc 2 1158 0
	ldr	w0, [x29, 172]
	add	w26, w0, 1
	and	w0, w26, 65535
	str	w0, [x29, 172]
.LVL1004:
	b	.L721
.LVL1005:
.L724:
	.loc 2 1176 0
	mov	w1, w22
	mov	w2, 1
	mov	x0, x7
	bl	FlashReadPages
.LVL1006:
	ubfiz	x0, x22, 5, 16
	mov	x22, 0
.LVL1007:
	str	x0, [x29, 128]
.LVL1008:
	.loc 2 1211 0
	adrp	x0, .LANCHOR148
	add	x0, x0, :lo12:.LANCHOR148
	str	x0, [x29, 136]
.L759:
	.loc 2 1178 0
	ldr	x0, [x25, #:lo12:.LANCHOR120]
	add	x1, x0, x22
	.loc 2 1181 0
	ldr	w0, [x0, x22]
	.loc 2 1178 0
	ldr	w3, [x1, 4]
	.loc 2 1181 0
	cmn	w0, #1
	.loc 2 1179 0
	ldr	x27, [x1, 16]
	.loc 2 1178 0
	ubfx	x26, x3, 10, 16
.LVL1009:
	.loc 2 1181 0
	bne	.L727
	mov	w5, 16
	.loc 2 1185 0
	mov	w7, 65535
.L729:
	.loc 2 1183 0
	ldr	x0, [x25, #:lo12:.LANCHOR120]
	add	x6, x25, :lo12:.LANCHOR120
	.loc 2 1184 0
	mov	w2, 1
	str	w7, [x29, 100]
	.loc 2 1183 0
	add	x0, x0, x22
	str	x6, [x29, 104]
	str	w5, [x29, 168]
.LVL1010:
	ldr	w1, [x0, 4]
	add	w1, w1, 1
	str	w1, [x0, 4]
	.loc 2 1184 0
	mov	w1, w2
	bl	FlashReadPages
.LVL1011:
	.loc 2 1185 0
	ldrh	w0, [x27]
	ldr	w7, [x29, 100]
	ldr	w5, [x29, 168]
	cmp	w0, w7
	ldr	x6, [x29, 104]
	bne	.L726
	.loc 2 1186 0
	ldr	x0, [x6]
	mov	w1, -1
	str	w1, [x0, x22]
	.loc 2 1194 0
	ldr	x0, [x6]
	ldr	w0, [x0, x22]
	cmp	w0, w1
	bne	.L727
.LVL1012:
.L728:
	.loc 2 1336 0
	mov	w1, 0
	mov	w0, w26
	bl	FtlFreeSysBlkQueueIn
.LVL1013:
	b	.L732
.LVL1014:
.L726:
	.loc 2 1188 0
	ldr	x0, [x25, #:lo12:.LANCHOR120]
	ldr	w0, [x0, x22]
	cmn	w0, #1
	bne	.L727
.LVL1015:
	sub	w5, w5, #1
.LVL1016:
	.loc 2 1182 0 discriminator 2
	ands	w5, w5, 65535
	bne	.L729
	b	.L728
.L727:
	.loc 2 1196 0
	adrp	x0, .LANCHOR70
	ldr	w1, [x0, #:lo12:.LANCHOR70]
	ldr	w0, [x27, 4]
	cmn	w1, #1
	beq	.L730
	.loc 2 1196 0 is_stmt 0 discriminator 1
	cmp	w1, w0
	bhi	.L731
.L730:
	.loc 2 1198 0 is_stmt 1
	cmn	w0, #1
	beq	.L731
	.loc 2 1201 0
	ldr	x2, [x29, 112]
	add	w1, w0, 1
	str	w1, [x2]
.L731:
	.loc 2 1206 0
	ldrh	w1, [x27]
	mov	w2, 61604
	cmp	w1, w2
	beq	.L733
	bhi	.L734
	mov	w0, 61574
	cmp	w1, w0
	beq	.L735
.L732:
	.loc 2 1177 0 discriminator 2
	ldr	x0, [x29, 128]
	add	x22, x22, 32
	cmp	x0, x22
	bne	.L759
	b	.L760
.L734:
	.loc 2 1206 0
	mov	w0, 61634
	cmp	w1, w0
	beq	.L736
	mov	w0, 65535
	cmp	w1, w0
	beq	.L728
	b	.L732
.L736:
	.loc 2 1211 0
	ldrh	w1, [x20, #:lo12:.LANCHOR147]
	ldr	w0, [x21, #:lo12:.LANCHOR30]
	cmp	w1, w0
	bls	.L738
	.loc 2 1211 0 is_stmt 0 discriminator 1
	ldr	x1, [x29, 136]
	adrp	x0, .LC1
	mov	w2, 1211
	add	x0, x0, :lo12:.LC1
	bl	printf
.LVL1017:
.L738:
	.loc 2 1212 0 is_stmt 1
	ldr	w6, [x21, #:lo12:.LANCHOR30]
	.loc 2 1214 0
	ldr	x3, [x29, 152]
	.loc 2 1212 0
	ldrh	w1, [x20, #:lo12:.LANCHOR147]
	and	w2, w6, 65535
	sub	w0, w2, #1
	sub	w2, w2, w1
	sxth	x0, w0
.LVL1018:
	sub	w2, w2, #1
	.loc 2 1214 0
	ldr	x5, [x3, #:lo12:.LANCHOR135]
	.loc 2 1212 0
	sxth	w2, w2
.L739:
	.loc 2 1212 0 is_stmt 0 discriminator 1
	cmp	w0, w2
	bgt	.L745
	.loc 2 1235 0 is_stmt 1
	tbz	w0, #31, .L779
	b	.L732
.L745:
	.loc 2 1214 0
	sxtw	x8, w0
	ldr	w11, [x27, 4]
	lsl	x7, x8, 2
	add	x10, x5, x7
	ldr	w7, [x5, x7]
	cmp	w11, w7
	bls	.L740
	.loc 2 1216 0
	ldr	w2, [x5]
	cbnz	w2, .L741
	.loc 2 1216 0 is_stmt 0 discriminator 1
	cmp	w6, w1
	beq	.L741
	.loc 2 1221 0 is_stmt 1
	add	w1, w1, 1
	strh	w1, [x20, #:lo12:.LANCHOR147]
.L741:
	.loc 2 1227 0 discriminator 1
	ldr	x1, [x29, 160]
	ldr	x6, [x1, #:lo12:.LANCHOR129]
	mov	w1, 0
.L742:
.LVL1019:
	.loc 2 1224 0 discriminator 1
	cmp	w1, w0
	bne	.L743
	.loc 2 1229 0
	ldr	w1, [x27, 4]
.LVL1020:
	str	w1, [x10]
	.loc 2 1230 0
	strh	w26, [x6, x8, lsl 1]
	.loc 2 1235 0
	tbnz	w0, #31, .L732
	.loc 2 1242 0
	ldrh	w1, [x20, #:lo12:.LANCHOR147]
	ldr	w2, [x21, #:lo12:.LANCHOR30]
	sub	w2, w2, w1
	sub	w2, w2, #1
	cmp	w0, w2, sxth
	bgt	.L732
.L779:
	.loc 2 1244 0
	add	w1, w1, 1
	strh	w1, [x20, #:lo12:.LANCHOR147]
	.loc 2 1245 0
	ldr	w1, [x27, 4]
	str	w1, [x5, x0, lsl 2]
	.loc 2 1246 0
	ldr	x1, [x29, 160]
	ldr	x1, [x1, #:lo12:.LANCHOR129]
.L797:
	.loc 2 1290 0
	strh	w26, [x1, x0, lsl 1]
	b	.L732
.LVL1021:
.L743:
	.loc 2 1226 0 discriminator 3
	sxtw	x2, w1
	add	w1, w1, 1
.LVL1022:
	lsl	x7, x2, 2
	.loc 2 1227 0 discriminator 3
	lsl	x2, x2, 1
	.loc 2 1226 0 discriminator 3
	add	x11, x5, x7
	sxth	w1, w1
.LVL1023:
	ldr	w11, [x11, 4]
	str	w11, [x5, x7]
	.loc 2 1227 0 discriminator 3
	add	x7, x6, x2
	ldrh	w7, [x7, 2]
	strh	w7, [x6, x2]
	b	.L742
.LVL1024:
.L740:
	sub	w0, w0, #1
.LVL1025:
	sxth	x0, w0
.LVL1026:
	b	.L739
.LVL1027:
.L735:
	.loc 2 1252 0
	ldrh	w1, [x23, #:lo12:.LANCHOR35]
	ldrh	w0, [x19, #:lo12:.LANCHOR27]
	cmp	w1, w0
	bls	.L748
	.loc 2 1252 0 is_stmt 0 discriminator 1
	ldr	x1, [x29, 136]
	adrp	x0, .LC1
	mov	w2, 1252
	add	x0, x0, :lo12:.LC1
	bl	printf
.LVL1028:
.L748:
	.loc 2 1253 0 is_stmt 1
	ldrh	w6, [x19, #:lo12:.LANCHOR27]
	ldrh	w2, [x23, #:lo12:.LANCHOR35]
	sub	w1, w6, #1
	sxth	x0, w1
.LVL1029:
	sub	w5, w1, w2
	.loc 2 1255 0
	ldr	x1, [x29, 144]
	ldr	x1, [x1, #:lo12:.LANCHOR132]
.L749:
	.loc 2 1253 0 discriminator 1
	cmp	w0, w5
	ble	.L754
	.loc 2 1255 0
	sxtw	x7, w0
	ldr	w11, [x27, 4]
	lsl	x8, x7, 2
	add	x10, x1, x8
	ldr	w8, [x1, x8]
	cmp	w11, w8
	bls	.L750
	.loc 2 1257 0
	ldr	w5, [x1]
	cbnz	w5, .L751
	.loc 2 1257 0 is_stmt 0 discriminator 1
	cmp	w6, w2
	beq	.L751
	.loc 2 1265 0 is_stmt 1
	add	w2, w2, 1
	strh	w2, [x23, #:lo12:.LANCHOR35]
.L751:
	.loc 2 1270 0 discriminator 1
	ldr	x6, [x28, #:lo12:.LANCHOR36]
	mov	w2, 0
.L752:
.LVL1030:
	.loc 2 1267 0 discriminator 1
	cmp	w2, w0
	bne	.L753
	.loc 2 1272 0
	ldr	w2, [x27, 4]
.LVL1031:
	str	w2, [x10]
	.loc 2 1273 0
	strh	w26, [x6, x7, lsl 1]
.L754:
	.loc 2 1278 0
	tbnz	w0, #31, .L732
	.loc 2 1286 0
	ldrh	w2, [x19, #:lo12:.LANCHOR27]
	ldrh	w5, [x23, #:lo12:.LANCHOR35]
	sub	w2, w2, #1
	sub	w2, w2, w5
	cmp	w0, w2, sxth
	bgt	.L732
	.loc 2 1288 0
	add	w5, w5, 1
	.loc 2 1289 0
	ldr	w2, [x27, 4]
	.loc 2 1288 0
	strh	w5, [x23, #:lo12:.LANCHOR35]
	.loc 2 1289 0
	str	w2, [x1, x0, lsl 2]
	.loc 2 1290 0
	ldr	x1, [x28, #:lo12:.LANCHOR36]
	b	.L797
.LVL1032:
.L753:
	.loc 2 1269 0 discriminator 3
	sxtw	x5, w2
	add	w2, w2, 1
.LVL1033:
	lsl	x8, x5, 2
	.loc 2 1270 0 discriminator 3
	lsl	x5, x5, 1
	.loc 2 1269 0 discriminator 3
	add	x11, x1, x8
	sxth	w2, w2
.LVL1034:
	ldr	w11, [x11, 4]
	str	w11, [x1, x8]
	.loc 2 1270 0 discriminator 3
	add	x8, x6, x5
	ldrh	w8, [x8, 2]
	strh	w8, [x6, x5]
	b	.L752
.LVL1035:
.L750:
	sub	w0, w0, #1
.LVL1036:
	sxth	x0, w0
.LVL1037:
	b	.L749
.LVL1038:
.L733:
	.loc 2 1297 0
	ldrh	w5, [x24, #:lo12:.LANCHOR79]
	mov	w1, 65535
	add	x2, x24, :lo12:.LANCHOR79
	cmp	w5, w1
	bne	.L756
	.loc 2 1299 0
	strh	w26, [x24, #:lo12:.LANCHOR79]
	.loc 2 1300 0
	str	w0, [x2, 8]
	b	.L732
.L756:
	.loc 2 1304 0
	ldrh	w0, [x2, 4]
	cmp	w0, w1
	beq	.L757
	.loc 2 1305 0
	mov	w1, 1
	bl	FtlFreeSysBlkQueueIn
.LVL1039:
.L757:
	.loc 2 1306 0
	add	x0, x24, :lo12:.LANCHOR79
	ldr	w1, [x27, 4]
	ldr	w2, [x0, 8]
	cmp	w2, w1
	bcs	.L758
	.loc 2 1308 0
	ldrh	w2, [x24, #:lo12:.LANCHOR79]
	strh	w2, [x0, 4]
	.loc 2 1309 0
	strh	w26, [x24, #:lo12:.LANCHOR79]
	.loc 2 1310 0
	str	w1, [x0, 8]
	b	.L732
.L758:
	.loc 2 1314 0
	strh	w26, [x0, 4]
	b	.L732
.LVL1040:
.L761:
	.loc 2 1341 0
	ldr	x0, [x29, 160]
	ldr	x2, [x0, #:lo12:.LANCHOR129]
	ldrh	w0, [x2]
	cbz	w0, .L763
.L766:
	.loc 2 1359 0
	ldr	x1, [x28, #:lo12:.LANCHOR36]
	ldrh	w0, [x1]
	cbz	w0, .L764
.L765:
	.loc 2 1377 0
	ldrh	w1, [x20, #:lo12:.LANCHOR147]
	ldr	w0, [x21, #:lo12:.LANCHOR30]
	cmp	w1, w0
	bls	.L795
	.loc 2 1377 0 is_stmt 0 discriminator 1
	adrp	x1, .LANCHOR148
	adrp	x0, .LC1
	mov	w2, 1377
	add	x1, x1, :lo12:.LANCHOR148
	add	x0, x0, :lo12:.LC1
	bl	printf
.LVL1041:
.L795:
	.loc 2 1379 0 is_stmt 1
	ldp	x19, x20, [sp, 16]
	mov	w0, 0
	ldp	x21, x22, [sp, 32]
	ldp	x23, x24, [sp, 48]
	ldp	x25, x26, [sp, 64]
	ldp	x27, x28, [sp, 80]
	ldp	x29, x30, [sp], 176
	.cfi_remember_state
	.cfi_restore 30
	.cfi_restore 29
	.cfi_restore 27
	.cfi_restore 28
	.cfi_restore 25
	.cfi_restore 26
	.cfi_restore 23
	.cfi_restore 24
	.cfi_restore 21
	.cfi_restore 22
	.cfi_restore 19
	.cfi_restore 20
	.cfi_def_cfa 31, 0
.LVL1042:
	ret
.LVL1043:
.L763:
	.cfi_restore_state
	.loc 2 1341 0 discriminator 1
	ldrh	w0, [x20, #:lo12:.LANCHOR147]
	cbz	w0, .L766
	.loc 2 1343 0 discriminator 1
	ldr	w1, [x21, #:lo12:.LANCHOR30]
	mov	w0, 0
.L767:
.LVL1044:
	cmp	w0, w1
	bcs	.L766
	.loc 2 1345 0
	ldrh	w3, [x2, w0, sxtw 1]
	cbz	w3, .L768
	.loc 2 1350 0
	ldr	x1, [x29, 152]
	.loc 2 1347 0
	add	x7, x21, :lo12:.LANCHOR30
	.loc 2 1350 0
	ldr	x4, [x1, #:lo12:.LANCHOR135]
	mov	w1, w0
.L769:
.LVL1045:
	.loc 2 1347 0 discriminator 1
	ldr	w3, [x7]
	cmp	w1, w3
	bcs	.L766
	.loc 2 1349 0 discriminator 3
	sxtw	x6, w1
	sub	w3, w1, w0
	lsl	x5, x6, 1
	sxtw	x3, w3
	add	w1, w1, 1
.LVL1046:
	.loc 2 1350 0 discriminator 3
	ldr	w6, [x4, x6, lsl 2]
	sxth	w1, w1
.LVL1047:
	.loc 2 1349 0 discriminator 3
	ldrh	w8, [x2, x5]
	strh	w8, [x2, x3, lsl 1]
	.loc 2 1350 0 discriminator 3
	str	w6, [x4, x3, lsl 2]
	.loc 2 1351 0 discriminator 3
	strh	wzr, [x2, x5]
	b	.L769
.LVL1048:
.L768:
	add	w0, w0, 1
.LVL1049:
	sxth	w0, w0
.LVL1050:
	b	.L767
.LVL1051:
.L764:
	.loc 2 1359 0 discriminator 1
	ldrh	w0, [x23, #:lo12:.LANCHOR35]
	cbz	w0, .L765
	.loc 2 1361 0 discriminator 1
	ldrh	w2, [x19, #:lo12:.LANCHOR27]
	mov	w0, 0
.L774:
.LVL1052:
	mov	w6, w0
	cmp	w0, w2
	bge	.L765
	.loc 2 1363 0
	ldrh	w3, [x1, w0, sxtw 1]
	cbz	w3, .L775
	.loc 2 1368 0
	ldr	x2, [x29, 144]
	.loc 2 1365 0
	add	x19, x19, :lo12:.LANCHOR27
	.loc 2 1368 0
	ldr	x3, [x2, #:lo12:.LANCHOR132]
.LVL1053:
.L776:
	.loc 2 1365 0 discriminator 1
	ldrh	w2, [x19]
	cmp	w0, w2
	bge	.L765
	.loc 2 1367 0 discriminator 3
	sxtw	x5, w0
	sub	w2, w0, w6
	lsl	x4, x5, 1
	sxtw	x2, w2
	add	w0, w0, 1
.LVL1054:
	.loc 2 1368 0 discriminator 3
	ldr	w5, [x3, x5, lsl 2]
	sxth	w0, w0
.LVL1055:
	.loc 2 1367 0 discriminator 3
	ldrh	w7, [x1, x4]
	strh	w7, [x1, x2, lsl 1]
	.loc 2 1368 0 discriminator 3
	str	w5, [x3, x2, lsl 2]
	.loc 2 1369 0 discriminator 3
	strh	wzr, [x1, x4]
	b	.L776
.LVL1056:
.L775:
	add	w0, w0, 1
.LVL1057:
	sxth	w0, w0
.LVL1058:
	b	.L774
	.cfi_endproc
.LFE270:
	.size	FtlScanSysBlk, .-FtlScanSysBlk
	.section	.text.FtlMapTblRecovery,"ax",@progbits
	.align	2
	.global	FtlMapTblRecovery
	.type	FtlMapTblRecovery, %function
FtlMapTblRecovery:
.LFB275:
	.loc 2 1515 0
	.cfi_startproc
.LVL1059:
	stp	x29, x30, [sp, -144]!
	.cfi_def_cfa_offset 144
	.cfi_offset 29, -144
	.cfi_offset 30, -136
	.loc 2 1526 0
	mov	w1, 0
	.loc 2 1515 0
	add	x29, sp, 0
	.cfi_def_cfa_register 29
	stp	x19, x20, [sp, 16]
	.cfi_offset 19, -128
	.cfi_offset 20, -120
	mov	x19, x0
	stp	x23, x24, [sp, 48]
	.loc 2 1527 0
	adrp	x20, .LANCHOR106
	.cfi_offset 23, -96
	.cfi_offset 24, -88
	.loc 2 1522 0
	ldrh	w23, [x0, 6]
	.loc 2 1560 0
	adrp	x24, .LANCHOR20
	.loc 2 1515 0
	stp	x21, x22, [sp, 32]
	.cfi_offset 21, -112
	.cfi_offset 22, -104
	.loc 2 1519 0
	ldr	x21, [x0, 40]
.LVL1060:
	.loc 2 1520 0
	ldr	x22, [x0, 16]
.LVL1061:
	.loc 2 1526 0
	lsl	w2, w23, 2
	.loc 2 1521 0
	ldr	x0, [x0, 24]
.LVL1062:
	str	x0, [x29, 128]
.LVL1063:
	.loc 2 1523 0
	ldrh	w0, [x19, 8]
.LVL1064:
	.loc 2 1515 0
	stp	x25, x26, [sp, 64]
	stp	x27, x28, [sp, 80]
	.cfi_offset 25, -80
	.cfi_offset 26, -72
	.cfi_offset 27, -64
	.cfi_offset 28, -56
	.loc 2 1535 0
	mov	w27, 0
	.loc 2 1523 0
	str	w0, [x29, 140]
.LVL1065:
	.loc 2 1526 0
	mov	x0, x21
	bl	ftl_memset
.LVL1066:
	str	x20, [x29, 120]
	.loc 2 1527 0
	adrp	x7, .LANCHOR107
	add	x3, x20, :lo12:.LANCHOR106
	mov	x26, x7
	.loc 2 1559 0
	mov	x20, x3
	.loc 2 1527 0
	ldr	x0, [x7, #:lo12:.LANCHOR107]
	str	x0, [x3, 8]
	.loc 2 1528 0
	adrp	x0, .LANCHOR108
	.loc 2 1532 0
	stp	wzr, wzr, [x19, 48]
	.loc 2 1528 0
	ldr	x25, [x0, #:lo12:.LANCHOR108]
	.loc 2 1530 0
	mov	w0, -1
	.loc 2 1528 0
	str	x25, [x3, 16]
.LVL1067:
	.loc 2 1530 0
	strh	w0, [x19]
	.loc 2 1531 0
	strh	w0, [x19, 2]
	.loc 2 1534 0
	mov	w0, 1
	str	w0, [x19, 56]
.LVL1068:
	.loc 2 1537 0
	ldr	w0, [x29, 140]
	sub	w0, w0, #1
	str	w0, [x29, 136]
	.loc 2 1579 0
	add	x0, x24, :lo12:.LANCHOR20
	str	x0, [x29, 112]
.LVL1069:
.L799:
	.loc 2 1535 0 discriminator 1
	ldr	w0, [x29, 140]
	cmp	w27, w0
	bge	.L816
	.loc 2 1537 0
	ldr	w0, [x29, 136]
	sxtw	x28, w27
	cmp	w27, w0
	bne	.L800
	.loc 2 1539 0
	lsl	x0, x28, 1
	mov	w1, 1
	add	x24, x22, x0
	ldrh	w0, [x22, x0]
	.loc 2 1543 0
	mov	w22, 0
.LVL1070:
	.loc 2 1539 0
	bl	FtlGetLastWrittenPage
.LVL1071:
	sxth	w26, w0
.LVL1072:
	.loc 2 1540 0
	add	w0, w0, 1
	strh	w0, [x19, 2]
	.loc 2 1542 0
	ldr	x0, [x29, 128]
	.loc 2 1541 0
	strh	w27, [x19]
	.loc 2 1542 0
	ldr	w0, [x0, x28, lsl 2]
	str	w0, [x19, 48]
.LVL1073:
	.loc 2 1545 0
	ldr	x0, [x29, 120]
	add	x20, x0, :lo12:.LANCHOR106
.LVL1074:
.L801:
	.loc 2 1543 0 discriminator 1
	cmp	w22, w26
	ble	.L803
.LVL1075:
.L816:
	.loc 2 1596 0
	mov	x0, x19
	bl	ftl_free_no_use_map_blk
.LVL1076:
	.loc 2 1597 0
	adrp	x0, .LANCHOR20
	ldrh	w1, [x19, 2]
	ldrh	w0, [x0, #:lo12:.LANCHOR20]
	cmp	w1, w0
	bne	.L805
	.loc 2 1599 0
	mov	x0, x19
	bl	ftl_map_blk_alloc_new_blk
.LVL1077:
.L805:
	.loc 2 1602 0
	mov	x0, x19
	bl	ftl_map_blk_gc
.LVL1078:
	.loc 2 1604 0
	mov	x0, x19
	bl	ftl_map_blk_gc
.LVL1079:
	.loc 2 1606 0
	mov	w0, 0
	ldp	x19, x20, [sp, 16]
.LVL1080:
	ldp	x21, x22, [sp, 32]
.LVL1081:
	ldp	x23, x24, [sp, 48]
.LVL1082:
	ldp	x25, x26, [sp, 64]
.LVL1083:
	ldp	x27, x28, [sp, 80]
.LVL1084:
	ldp	x29, x30, [sp], 144
	.cfi_remember_state
	.cfi_restore 30
	.cfi_restore 29
	.cfi_restore 27
	.cfi_restore 28
	.cfi_restore 25
	.cfi_restore 26
	.cfi_restore 23
	.cfi_restore 24
	.cfi_restore 21
	.cfi_restore 22
	.cfi_restore 19
	.cfi_restore 20
	.cfi_def_cfa 31, 0
.LVL1085:
	ret
.LVL1086:
.L803:
	.cfi_restore_state
	.loc 2 1545 0
	ldrh	w0, [x24]
	.loc 2 1546 0
	mov	w2, 1
	mov	w1, w2
	.loc 2 1545 0
	orr	w0, w22, w0, lsl 10
	str	w0, [x20, 4]
	.loc 2 1546 0
	mov	x0, x20
	bl	FlashReadPages
.LVL1087:
	.loc 2 1549 0
	ldr	w0, [x20]
	cmn	w0, #1
	beq	.L802
	.loc 2 1551 0
	ldrh	w0, [x25, 8]
	cmp	w23, w0
	bls	.L802
	.loc 2 1551 0 is_stmt 0 discriminator 1
	ldrh	w2, [x25]
	ldrh	w1, [x19, 4]
	cmp	w2, w1
	bne	.L802
	.loc 2 1553 0 is_stmt 1
	ubfiz	x0, x0, 2, 16
	ldr	w1, [x20, 4]
	str	w1, [x21, x0]
.L802:
	add	w22, w22, 1
.LVL1088:
	sxth	w22, w22
.LVL1089:
	b	.L801
.LVL1090:
.L800:
	.loc 2 1559 0
	ldr	x0, [x26, #:lo12:.LANCHOR107]
	.loc 2 1561 0
	mov	w2, 1
	.loc 2 1559 0
	str	x0, [x20, 8]
	.loc 2 1560 0
	lsl	x0, x28, 1
	ldrh	w1, [x24, #:lo12:.LANCHOR20]
	add	x28, x22, x0
	ldrh	w0, [x22, x0]
	sub	w1, w1, #1
	orr	w0, w1, w0, lsl 10
	.loc 2 1561 0
	mov	w1, w2
	.loc 2 1560 0
	str	w0, [x20, 4]
	.loc 2 1561 0
	mov	x0, x20
	bl	FlashReadPages
.LVL1091:
	.loc 2 1564 0
	ldr	w0, [x20]
	cmn	w0, #1
	beq	.L818
	.loc 2 1564 0 is_stmt 0 discriminator 1
	ldrh	w1, [x25]
	ldrh	w0, [x19, 4]
	cmp	w1, w0
	bne	.L818
	.loc 2 1564 0 discriminator 2
	ldrh	w1, [x25, 8]
	mov	w0, 64245
	cmp	w1, w0
	beq	.L807
.L818:
	mov	w5, 0
.L808:
.LVL1092:
	.loc 2 1579 0 is_stmt 1 discriminator 1
	ldr	x0, [x29, 112]
	ldrh	w0, [x0]
	cmp	w5, w0
	bge	.L814
	.loc 2 1581 0
	ldrh	w0, [x28]
	.loc 2 1582 0
	mov	w2, 1
	.loc 2 1581 0
	str	w5, [x29, 108]
	.loc 2 1582 0
	mov	w1, w2
	.loc 2 1581 0
	orr	w0, w5, w0, lsl 10
	str	w0, [x20, 4]
	.loc 2 1582 0
	mov	x0, x20
	bl	FlashReadPages
.LVL1093:
	.loc 2 1585 0
	ldr	w0, [x20]
	ldr	w5, [x29, 108]
	cmn	w0, #1
	beq	.L812
	.loc 2 1587 0
	ldrh	w0, [x25, 8]
	cmp	w23, w0
	bls	.L812
	.loc 2 1587 0 is_stmt 0 discriminator 1
	ldrh	w2, [x25]
	ldrh	w1, [x19, 4]
	cmp	w2, w1
	bne	.L812
	.loc 2 1589 0 is_stmt 1
	ubfiz	x0, x0, 2, 16
	ldr	w1, [x20, 4]
	str	w1, [x21, x0]
.L812:
	add	w5, w5, 1
	sxth	w5, w5
.LVL1094:
	b	.L808
.LVL1095:
.L807:
	.loc 2 1567 0 discriminator 1
	ldrh	w5, [x24, #:lo12:.LANCHOR20]
	.loc 2 1569 0 discriminator 1
	mov	w0, 0
	ldr	x10, [x26, #:lo12:.LANCHOR107]
	.loc 2 1567 0 discriminator 1
	sub	w5, w5, #1
.L809:
.LVL1096:
	cmp	w0, w5
	blt	.L811
.LVL1097:
.L814:
	add	w4, w27, 1
	sxth	w27, w4
.LVL1098:
	b	.L799
.LVL1099:
.L811:
	.loc 2 1569 0
	lsl	w2, w0, 1
	sxtw	x2, w2
	lsl	x1, x2, 2
	ldrh	w1, [x10, x1]
.LVL1100:
	.loc 2 1570 0
	cmp	w23, w1
	bls	.L810
	.loc 2 1572 0
	add	x2, x2, 1
	ubfiz	x1, x1, 2, 16
.LVL1101:
	ldr	w2, [x10, x2, lsl 2]
.LVL1102:
	str	w2, [x21, x1]
.LVL1103:
.L810:
	add	w0, w0, 1
.LVL1104:
	sxth	w0, w0
.LVL1105:
	b	.L809
	.cfi_endproc
.LFE275:
	.size	FtlMapTblRecovery, .-FtlMapTblRecovery
	.section	.text.FtlLoadVonderInfo,"ax",@progbits
	.align	2
	.global	FtlLoadVonderInfo
	.type	FtlLoadVonderInfo, %function
FtlLoadVonderInfo:
.LFB276:
	.loc 2 1609 0
	.cfi_startproc
	stp	x29, x30, [sp, -16]!
	.cfi_def_cfa_offset 16
	.cfi_offset 29, -16
	.cfi_offset 30, -8
	.loc 2 1610 0
	adrp	x1, .LANCHOR27
	adrp	x0, .LANCHOR149
	add	x0, x0, :lo12:.LANCHOR149
	.loc 2 1609 0
	add	x29, sp, 0
	.cfi_def_cfa_register 29
	.loc 2 1610 0
	ldrh	w1, [x1, #:lo12:.LANCHOR27]
	strh	w1, [x0, 10]
	.loc 2 1611 0
	mov	w1, -3962
	strh	w1, [x0, 4]
	.loc 2 1612 0
	adrp	x1, .LANCHOR35
	ldrh	w1, [x1, #:lo12:.LANCHOR35]
	strh	w1, [x0, 8]
	.loc 2 1613 0
	adrp	x1, .LANCHOR28
	ldrh	w1, [x1, #:lo12:.LANCHOR28]
	strh	w1, [x0, 6]
	.loc 2 1614 0
	adrp	x1, .LANCHOR36
	ldr	x1, [x1, #:lo12:.LANCHOR36]
	str	x1, [x0, 16]
	.loc 2 1615 0
	adrp	x1, .LANCHOR132
	ldr	x1, [x1, #:lo12:.LANCHOR132]
	str	x1, [x0, 24]
	.loc 2 1616 0
	adrp	x1, .LANCHOR131
	ldr	x1, [x1, #:lo12:.LANCHOR131]
	str	x1, [x0, 32]
	.loc 2 1617 0
	adrp	x1, .LANCHOR133
	ldr	x1, [x1, #:lo12:.LANCHOR133]
	str	x1, [x0, 40]
	.loc 2 1619 0
	bl	FtlMapTblRecovery
.LVL1106:
	.loc 2 1622 0
	mov	w0, 0
	ldp	x29, x30, [sp], 16
	.cfi_restore 30
	.cfi_restore 29
	.cfi_def_cfa 31, 0
	ret
	.cfi_endproc
.LFE276:
	.size	FtlLoadVonderInfo, .-FtlLoadVonderInfo
	.section	.text.FtlL2PDataInit,"ax",@progbits
	.align	2
	.global	FtlL2PDataInit
	.type	FtlL2PDataInit, %function
FtlL2PDataInit:
.LFB277:
	.loc 2 1625 0
	.cfi_startproc
	stp	x29, x30, [sp, -64]!
	.cfi_def_cfa_offset 64
	.cfi_offset 29, -64
	.cfi_offset 30, -56
	.loc 2 1627 0
	mov	w1, 0
	.loc 2 1625 0
	add	x29, sp, 0
	.cfi_def_cfa_register 29
	stp	x19, x20, [sp, 16]
	.cfi_offset 19, -48
	.cfi_offset 20, -40
	.loc 2 1627 0
	adrp	x19, .LANCHOR130
	adrp	x20, .LANCHOR30
	.loc 2 1625 0
	stp	x21, x22, [sp, 32]
	.loc 2 1627 0
	ldr	x0, [x19, #:lo12:.LANCHOR130]
	.cfi_offset 21, -32
	.cfi_offset 22, -24
	.loc 2 1628 0
	adrp	x22, .LANCHOR23
	.loc 2 1627 0
	ldr	w2, [x20, #:lo12:.LANCHOR30]
	.loc 2 1628 0
	adrp	x21, .LANCHOR33
	.loc 2 1625 0
	str	x23, [sp, 48]
	.cfi_offset 23, -16
	.loc 2 1628 0
	adrp	x23, .LANCHOR136
	.loc 2 1627 0
	lsl	w2, w2, 1
	bl	ftl_memset
.LVL1107:
	.loc 2 1628 0
	ldrh	w0, [x21, #:lo12:.LANCHOR33]
	mov	w1, 255
	ldrh	w2, [x22, #:lo12:.LANCHOR23]
	mul	w2, w2, w0
	ldr	x0, [x23, #:lo12:.LANCHOR136]
	bl	ftl_memset
.LVL1108:
	adrp	x0, .LANCHOR55
	ldrh	w3, [x21, #:lo12:.LANCHOR33]
	.loc 2 1633 0
	ldr	x6, [x23, #:lo12:.LANCHOR136]
	.loc 2 1629 0
	mov	x1, 0
	ldr	x0, [x0, #:lo12:.LANCHOR55]
	mov	w2, -1
	ldrh	w5, [x22, #:lo12:.LANCHOR23]
	add	x3, x0, x3, lsl 4
.LVL1109:
.L829:
	add	x4, x1, x5
	.loc 2 1629 0 is_stmt 0 discriminator 1
	cmp	x0, x3
	bne	.L830
	.loc 2 1635 0 is_stmt 1
	adrp	x1, .LANCHOR144
	add	x0, x1, :lo12:.LANCHOR144
	.loc 2 1645 0
	ldp	x21, x22, [sp, 32]
	.loc 2 1636 0
	strh	w2, [x1, #:lo12:.LANCHOR144]
	.loc 2 1637 0
	ldr	w1, [x20, #:lo12:.LANCHOR30]
	strh	w1, [x0, 10]
	.loc 2 1638 0
	mov	w1, -3902
	strh	w1, [x0, 4]
	.loc 2 1639 0
	adrp	x1, .LANCHOR147
	.loc 2 1645 0
	ldr	x23, [sp, 48]
	.loc 2 1635 0
	strh	w2, [x0, 2]
	.loc 2 1639 0
	ldrh	w1, [x1, #:lo12:.LANCHOR147]
	strh	w1, [x0, 8]
	.loc 2 1640 0
	adrp	x1, .LANCHOR32
	ldrh	w1, [x1, #:lo12:.LANCHOR32]
	strh	w1, [x0, 6]
	.loc 2 1641 0
	adrp	x1, .LANCHOR129
	ldr	x1, [x1, #:lo12:.LANCHOR129]
	str	x1, [x0, 16]
	.loc 2 1642 0
	adrp	x1, .LANCHOR135
	ldr	x1, [x1, #:lo12:.LANCHOR135]
	str	x1, [x0, 24]
	.loc 2 1643 0
	ldr	x1, [x19, #:lo12:.LANCHOR130]
	.loc 2 1645 0
	ldp	x19, x20, [sp, 16]
	.loc 2 1643 0
	str	x1, [x0, 32]
	.loc 2 1644 0
	adrp	x1, .LANCHOR134
	ldr	x1, [x1, #:lo12:.LANCHOR134]
	str	x1, [x0, 40]
	.loc 2 1645 0
	ldp	x29, x30, [sp], 64
	.cfi_remember_state
	.cfi_restore 30
	.cfi_restore 29
	.cfi_restore 23
	.cfi_restore 21
	.cfi_restore 22
	.cfi_restore 19
	.cfi_restore 20
	.cfi_def_cfa 31, 0
	ret
.L830:
	.cfi_restore_state
	.loc 2 1633 0 discriminator 3
	and	x1, x1, -4
	.loc 2 1632 0 discriminator 3
	strh	w2, [x0]
	.loc 2 1633 0 discriminator 3
	add	x1, x6, x1
	.loc 2 1631 0 discriminator 3
	str	wzr, [x0, 4]
	.loc 2 1633 0 discriminator 3
	str	x1, [x0, 8]
	add	x0, x0, 16
	mov	x1, x4
	b	.L829
	.cfi_endproc
.LFE277:
	.size	FtlL2PDataInit, .-FtlL2PDataInit
	.section	.text.FtlLoadMapInfo,"ax",@progbits
	.align	2
	.global	FtlLoadMapInfo
	.type	FtlLoadMapInfo, %function
FtlLoadMapInfo:
.LFB278:
	.loc 2 1648 0
	.cfi_startproc
	stp	x29, x30, [sp, -16]!
	.cfi_def_cfa_offset 16
	.cfi_offset 29, -16
	.cfi_offset 30, -8
	add	x29, sp, 0
	.cfi_def_cfa_register 29
	.loc 2 1649 0
	bl	FtlL2PDataInit
.LVL1110:
	.loc 2 1651 0
	adrp	x0, .LANCHOR144
	add	x0, x0, :lo12:.LANCHOR144
	bl	FtlMapTblRecovery
.LVL1111:
	.loc 2 1654 0
	mov	w0, 0
	ldp	x29, x30, [sp], 16
	.cfi_restore 30
	.cfi_restore 29
	.cfi_def_cfa 31, 0
	ret
	.cfi_endproc
.LFE278:
	.size	FtlLoadMapInfo, .-FtlLoadMapInfo
	.section	.text.FtlVariablesInit,"ax",@progbits
	.align	2
	.global	FtlVariablesInit
	.type	FtlVariablesInit, %function
FtlVariablesInit:
.LFB207:
	.loc 3 494 0
	.cfi_startproc
	stp	x29, x30, [sp, -32]!
	.cfi_def_cfa_offset 32
	.cfi_offset 29, -32
	.cfi_offset 30, -24
	.loc 3 497 0
	adrp	x0, .LANCHOR150
	mov	w1, -1
	.loc 3 494 0
	add	x29, sp, 0
	.cfi_def_cfa_register 29
	.loc 3 497 0
	strh	w1, [x0, #:lo12:.LANCHOR150]
	.loc 3 498 0
	adrp	x0, .LANCHOR151
	.loc 3 500 0
	mov	w1, -1
	.loc 3 494 0
	str	x19, [sp, 16]
	.cfi_offset 19, -16
	.loc 3 498 0
	str	wzr, [x0, #:lo12:.LANCHOR151]
	.loc 3 499 0
	adrp	x0, .LANCHOR152
	.loc 3 503 0
	adrp	x19, .LANCHOR6
	.loc 3 499 0
	str	wzr, [x0, #:lo12:.LANCHOR152]
	.loc 3 500 0
	adrp	x0, .LANCHOR153
	str	w1, [x0, #:lo12:.LANCHOR153]
	.loc 3 501 0
	adrp	x0, .LANCHOR35
	.loc 3 502 0
	mov	w1, 0
	.loc 3 501 0
	strh	wzr, [x0, #:lo12:.LANCHOR35]
	.loc 3 502 0
	adrp	x0, .LANCHOR27
	ldrh	w2, [x0, #:lo12:.LANCHOR27]
	adrp	x0, .LANCHOR36
	ldr	x0, [x0, #:lo12:.LANCHOR36]
	lsl	w2, w2, 1
	bl	ftl_memset
.LVL1112:
	.loc 3 503 0
	adrp	x0, .LANCHOR43
	ldrh	w2, [x19, #:lo12:.LANCHOR6]
	mov	w1, 0
	ldr	x0, [x0, #:lo12:.LANCHOR43]
	lsl	w2, w2, 1
	bl	ftl_memset
.LVL1113:
	.loc 3 504 0
	adrp	x0, .LANCHOR126
	ldrh	w2, [x19, #:lo12:.LANCHOR6]
	mov	w1, 0
	ldr	x0, [x0, #:lo12:.LANCHOR126]
	lsl	w2, w2, 1
	bl	ftl_memset
.LVL1114:
	.loc 3 505 0
	mov	w2, 48
	mov	w1, 0
	adrp	x0, .LANCHOR39
	add	x0, x0, :lo12:.LANCHOR39
	bl	ftl_memset
.LVL1115:
	.loc 3 506 0
	mov	w2, 512
	mov	w1, 0
	adrp	x0, .LANCHOR81
	add	x0, x0, :lo12:.LANCHOR81
	bl	ftl_memset
.LVL1116:
	.loc 3 507 0
	bl	FtlGcBufInit
.LVL1117:
	.loc 3 508 0
	bl	FtlL2PDataInit
.LVL1118:
	.loc 3 510 0
	ldr	x19, [sp, 16]
	mov	w0, 0
	ldp	x29, x30, [sp], 32
	.cfi_restore 30
	.cfi_restore 29
	.cfi_restore 19
	.cfi_def_cfa 31, 0
	ret
	.cfi_endproc
.LFE207:
	.size	FtlVariablesInit, .-FtlVariablesInit
	.section	.text.SupperBlkListInit,"ax",@progbits
	.align	2
	.global	SupperBlkListInit
	.type	SupperBlkListInit, %function
SupperBlkListInit:
.LFB285:
	.loc 2 2116 0
	.cfi_startproc
	stp	x29, x30, [sp, -96]!
	.cfi_def_cfa_offset 96
	.cfi_offset 29, -96
	.cfi_offset 30, -88
	.loc 2 2120 0
	adrp	x0, .LANCHOR6
	mov	w1, 0
	.loc 2 2116 0
	add	x29, sp, 0
	.cfi_def_cfa_register 29
	.loc 2 2120 0
	ldrh	w2, [x0, #:lo12:.LANCHOR6]
	mov	w0, 6
	.loc 2 2116 0
	stp	x23, x24, [sp, 48]
	.cfi_offset 23, -48
	.cfi_offset 24, -40
	.loc 2 2120 0
	adrp	x24, .LANCHOR40
	.loc 2 2116 0
	stp	x19, x20, [sp, 16]
	.loc 2 2124 0
	adrp	x23, .LANCHOR45
	.loc 2 2116 0
	stp	x21, x22, [sp, 32]
	.cfi_offset 19, -80
	.cfi_offset 20, -72
	.cfi_offset 21, -64
	.cfi_offset 22, -56
	.loc 2 2125 0
	adrp	x22, .LANCHOR48
	.loc 2 2120 0
	mul	w2, w2, w0
	ldr	x0, [x24, #:lo12:.LANCHOR40]
	.loc 2 2116 0
	stp	x25, x26, [sp, 64]
	.cfi_offset 25, -32
	.cfi_offset 26, -24
	.loc 2 2128 0
	adrp	x25, .LANCHOR5
	.loc 2 2116 0
	str	x27, [sp, 80]
	.cfi_offset 27, -16
	.loc 2 2131 0
	adrp	x26, .LANCHOR13
	.loc 2 2128 0
	add	x25, x25, :lo12:.LANCHOR5
	.loc 2 2131 0
	add	x26, x26, :lo12:.LANCHOR13
	.loc 2 2120 0
	bl	ftl_memset
.LVL1119:
	.loc 2 2126 0
	mov	w21, 0
	.loc 2 2121 0
	adrp	x0, .LANCHOR47
	.loc 2 2126 0
	mov	w20, 0
	.loc 2 2128 0
	mov	w19, 0
	.loc 2 2124 0
	strh	wzr, [x23, #:lo12:.LANCHOR45]
	.loc 2 2121 0
	str	xzr, [x0, #:lo12:.LANCHOR47]
	.loc 2 2122 0
	adrp	x0, .LANCHOR41
	.loc 2 2125 0
	strh	wzr, [x22, #:lo12:.LANCHOR48]
.LVL1120:
	.loc 2 2130 0
	adrp	x27, .LANCHOR3
	.loc 2 2122 0
	str	xzr, [x0, #:lo12:.LANCHOR41]
	.loc 2 2123 0
	adrp	x0, .LANCHOR44
	str	xzr, [x0, #:lo12:.LANCHOR44]
.LVL1121:
.L837:
	.loc 2 2128 0 discriminator 1
	ldrh	w0, [x25]
	cmp	w19, w0
	bcs	.L843
	.loc 2 2133 0
	adrp	x0, .LANCHOR19
	.loc 2 2130 0
	ldrh	w8, [x27, #:lo12:.LANCHOR3]
	.loc 2 2133 0
	mov	x6, 0
	mov	w5, 0
	ldrh	w7, [x0, #:lo12:.LANCHOR19]
	b	.L844
.LVL1122:
.L839:
	.loc 2 2131 0
	ldrb	w0, [x26, x6]
	mov	w1, w19
	bl	V2P_block
.LVL1123:
	.loc 2 2132 0
	bl	FtlBbmIsBadBlock
.LVL1124:
	cbnz	w0, .L838
	.loc 2 2133 0
	add	w5, w5, w7
.LVL1125:
	and	w5, w5, 65535
.LVL1126:
.L838:
	add	x6, x6, 1
.LVL1127:
.L844:
	.loc 2 2130 0 discriminator 1
	cmp	w8, w6, uxth
	bhi	.L839
	.loc 2 2135 0
	cbz	w5, .L846
	.loc 2 2136 0
	mov	w0, 32768
	sdiv	w5, w0, w5
.LVL1128:
.L840:
	.loc 2 2137 0
	ldr	x1, [x24, #:lo12:.LANCHOR40]
	mov	w0, 6
	umaddl	x0, w19, w0, x1
	strh	w5, [x0, 4]
	.loc 2 2139 0
	adrp	x0, .LANCHOR51
	ldrh	w0, [x0, #:lo12:.LANCHOR51]
	cmp	w0, w19
	beq	.L841
	.loc 2 2140 0 discriminator 1
	adrp	x0, .LANCHOR52
	.loc 2 2139 0 discriminator 1
	ldrh	w0, [x0, #:lo12:.LANCHOR52]
	cmp	w0, w19
	beq	.L841
	.loc 2 2141 0
	adrp	x0, .LANCHOR53
	.loc 2 2140 0
	ldrh	w0, [x0, #:lo12:.LANCHOR53]
	cmp	w0, w19
	beq	.L841
	.loc 2 2143 0
	adrp	x1, .LANCHOR42
	ubfiz	x0, x19, 1, 16
	ldr	x1, [x1, #:lo12:.LANCHOR42]
	ldrh	w0, [x1, x0]
	cbnz	w0, .L842
	.loc 2 2144 0
	add	w21, w21, 1
.LVL1129:
	.loc 2 2145 0
	mov	w0, w19
	.loc 2 2144 0
	and	w21, w21, 65535
.LVL1130:
	.loc 2 2145 0
	bl	INSERT_FREE_LIST
.LVL1131:
.L841:
	.loc 2 2128 0 discriminator 2
	add	w19, w19, 1
.LVL1132:
	and	w19, w19, 65535
.LVL1133:
	b	.L837
.LVL1134:
.L846:
	mov	w5, 0
.LVL1135:
	b	.L840
.LVL1136:
.L842:
	.loc 2 2147 0
	add	w20, w20, 1
.LVL1137:
	.loc 2 2148 0
	mov	w0, w19
	.loc 2 2147 0
	and	w20, w20, 65535
.LVL1138:
	.loc 2 2148 0
	bl	INSERT_DATA_LIST
.LVL1139:
	b	.L841
.L843:
	.loc 2 2152 0
	strh	w20, [x23, #:lo12:.LANCHOR45]
	.loc 2 2154 0
	add	w20, w20, w21
.LVL1140:
	.loc 2 2153 0
	strh	w21, [x22, #:lo12:.LANCHOR48]
	.loc 2 2154 0
	cmp	w20, w0
	ble	.L845
	.loc 2 2154 0 is_stmt 0 discriminator 1
	adrp	x1, .LANCHOR154
	adrp	x0, .LC1
	mov	w2, 2154
	add	x1, x1, :lo12:.LANCHOR154
	add	x0, x0, :lo12:.LC1
	bl	printf
.LVL1141:
.L845:
	.loc 2 2156 0 is_stmt 1
	mov	w0, 0
	ldr	x27, [sp, 80]
	ldp	x19, x20, [sp, 16]
.LVL1142:
	ldp	x21, x22, [sp, 32]
.LVL1143:
	ldp	x23, x24, [sp, 48]
	ldp	x25, x26, [sp, 64]
	ldp	x29, x30, [sp], 96
	.cfi_restore 30
	.cfi_restore 29
	.cfi_restore 27
	.cfi_restore 25
	.cfi_restore 26
	.cfi_restore 23
	.cfi_restore 24
	.cfi_restore 21
	.cfi_restore 22
	.cfi_restore 19
	.cfi_restore 20
	.cfi_def_cfa 31, 0
	ret
	.cfi_endproc
.LFE285:
	.size	SupperBlkListInit, .-SupperBlkListInit
	.section	.text.ftl_check_vpc,"ax",@progbits
	.align	2
	.global	ftl_check_vpc
	.type	ftl_check_vpc, %function
ftl_check_vpc:
.LFB290:
	.loc 2 2273 0
	.cfi_startproc
.LVL1144:
	stp	x29, x30, [sp, -112]!
	.cfi_def_cfa_offset 112
	.cfi_offset 29, -112
	.cfi_offset 30, -104
	.loc 2 2279 0
	adrp	x0, .LC94
	add	x0, x0, :lo12:.LC94
	.loc 2 2273 0
	add	x29, sp, 0
	.cfi_def_cfa_register 29
	stp	x23, x24, [sp, 48]
	.cfi_offset 23, -64
	.cfi_offset 24, -56
	.loc 2 2282 0
	adrp	x23, .LANCHOR61
	add	x23, x23, :lo12:.LANCHOR61
	.loc 2 2273 0
	stp	x21, x22, [sp, 32]
	.cfi_offset 21, -80
	.cfi_offset 22, -72
	.loc 2 2282 0
	mov	w22, 0
	.loc 2 2273 0
	stp	x19, x20, [sp, 16]
	stp	x25, x26, [sp, 64]
	.loc 2 2279 0
	adrp	x21, .LANCHOR155
	.loc 2 2273 0
	stp	x27, x28, [sp, 80]
	.cfi_offset 19, -96
	.cfi_offset 20, -88
	.cfi_offset 25, -48
	.cfi_offset 26, -40
	.cfi_offset 27, -32
	.cfi_offset 28, -24
	.loc 2 2279 0
	add	x1, x21, :lo12:.LANCHOR155
	.loc 2 2281 0
	adrp	x20, check_vpc_table
	.loc 2 2279 0
	bl	printf
.LVL1145:
	.loc 2 2281 0
	add	x19, x20, :lo12:check_vpc_table
	mov	w2, 8192
	mov	w1, 0
	mov	x0, x19
	bl	ftl_memset
.LVL1146:
.L849:
	.loc 2 2282 0 discriminator 1
	ldr	w0, [x23]
	cmp	w22, w0
	bcc	.L851
	.loc 2 2293 0 discriminator 1
	adrp	x22, .LANCHOR5
.LVL1147:
	.loc 2 2297 0 discriminator 1
	adrp	x24, .LC95
	.loc 2 2293 0 discriminator 1
	add	x22, x22, :lo12:.LANCHOR5
	.loc 2 2295 0 discriminator 1
	add	x26, x20, :lo12:check_vpc_table
	.loc 2 2297 0 discriminator 1
	add	x24, x24, :lo12:.LC95
	mov	w23, 0
	mov	w19, 0
	.loc 2 2295 0 discriminator 1
	adrp	x25, .LANCHOR42
.LVL1148:
.L852:
	.loc 2 2293 0 discriminator 1
	ldrh	w0, [x22]
	cmp	w0, w19
	bhi	.L854
	.loc 2 2305 0
	adrp	x0, .LANCHOR47
	ldr	x19, [x0, #:lo12:.LANCHOR47]
.LVL1149:
	cbz	x19, .L855
.LBB277:
	.loc 2 2307 0
	adrp	x0, .LANCHOR48
	.loc 2 2313 0
	adrp	x25, .LC96
	add	x20, x20, :lo12:check_vpc_table
	add	x25, x25, :lo12:.LC96
	.loc 2 2307 0
	ldrh	w26, [x0, #:lo12:.LANCHOR48]
.LVL1150:
	.loc 2 2308 0
	adrp	x0, .LANCHOR40
	mov	x24, x0
	.loc 2 2309 0
	mov	w22, 0
	.loc 2 2308 0
	ldr	x1, [x0, #:lo12:.LANCHOR40]
	.loc 2 2311 0
	adrp	x27, .LANCHOR42
	.loc 2 2316 0
	mov	w28, 6
	.loc 2 2308 0
	sub	x19, x19, x1
	mov	x1, -6148914691236517206
	asr	x19, x19, 1
	movk	x1, 0xaaab, lsl 0
	mul	x19, x19, x1
	and	w19, w19, 65535
.LVL1151:
.L856:
	.loc 2 2309 0 discriminator 1
	cmp	w22, w26
	bne	.L858
.LVL1152:
.L855:
.LBE277:
	.loc 2 2321 0
	cbz	w23, .L848
.LVL1153:
	.loc 2 2321 0 is_stmt 0 discriminator 1
	adrp	x0, .LC1
	mov	w2, 2321
	add	x1, x21, :lo12:.LANCHOR155
	add	x0, x0, :lo12:.LC1
	bl	printf
.LVL1154:
.L848:
	.loc 2 2322 0 is_stmt 1
	ldp	x19, x20, [sp, 16]
	ldp	x21, x22, [sp, 32]
	ldp	x23, x24, [sp, 48]
	ldp	x25, x26, [sp, 64]
	ldp	x27, x28, [sp, 80]
	ldp	x29, x30, [sp], 112
	.cfi_remember_state
	.cfi_restore 30
	.cfi_restore 29
	.cfi_restore 27
	.cfi_restore 28
	.cfi_restore 25
	.cfi_restore 26
	.cfi_restore 23
	.cfi_restore 24
	.cfi_restore 21
	.cfi_restore 22
	.cfi_restore 19
	.cfi_restore 20
	.cfi_def_cfa 31, 0
	ret
.LVL1155:
.L851:
	.cfi_restore_state
	.loc 2 2284 0
	mov	w2, 0
	add	x1, x29, 108
	mov	w0, w22
	bl	log2phys
.LVL1156:
	.loc 2 2285 0
	ldr	w0, [x29, 108]
	cmn	w0, #1
	beq	.L850
	.loc 2 2287 0
	lsr	w0, w0, 10
	bl	P2V_block_in_plane
.LVL1157:
	.loc 2 2288 0
	and	x0, x0, 65535
	ldrh	w1, [x19, x0, lsl 1]
	add	w1, w1, 1
	strh	w1, [x19, x0, lsl 1]
.LVL1158:
.L850:
	.loc 2 2282 0 discriminator 2
	add	w22, w22, 1
.LVL1159:
	b	.L849
.LVL1160:
.L854:
	.loc 2 2295 0
	ldr	x0, [x25, #:lo12:.LANCHOR42]
	ubfiz	x28, x19, 1, 16
	sxtw	x27, w19
	ldrh	w2, [x0, x28]
	ldrh	w3, [x26, x27, lsl 1]
	cmp	w2, w3
	beq	.L853
	.loc 2 2297 0
	mov	w1, w19
	mov	x0, x24
	bl	printf
.LVL1161:
	.loc 2 2298 0
	ldr	x0, [x25, #:lo12:.LANCHOR42]
	mov	w1, 65535
	ldrh	w0, [x0, x28]
	cmp	w0, w1
	beq	.L853
	.loc 2 2298 0 is_stmt 0 discriminator 1
	ldrh	w1, [x26, x27, lsl 1]
	.loc 2 2300 0 is_stmt 1 discriminator 1
	cmp	w1, w0
	csinc	w23, w23, wzr, ls
.LVL1162:
.L853:
	.loc 2 2293 0 discriminator 2
	add	w19, w19, 1
.LVL1163:
	and	w19, w19, 65535
.LVL1164:
	b	.L852
.LVL1165:
.L858:
.LBB278:
	.loc 2 2311 0
	ldr	x1, [x27, #:lo12:.LANCHOR42]
	ubfiz	x0, x19, 1, 16
	ldrh	w2, [x1, x0]
	cbz	w2, .L857
	.loc 2 2313 0
	ldrh	w3, [x20, w19, sxtw 1]
	.loc 2 2314 0
	mov	w23, 1
.LVL1166:
	.loc 2 2313 0
	mov	w1, w19
	mov	x0, x25
	bl	printf
.LVL1167:
.L857:
	.loc 2 2316 0
	ldr	x0, [x24, #:lo12:.LANCHOR40]
	umull	x19, w19, w28
.LVL1168:
	ldrh	w19, [x0, x19]
	mov	w0, 65535
	cmp	w19, w0
	beq	.L855
.LVL1169:
	.loc 2 2309 0 discriminator 2
	add	w22, w22, 1
.LVL1170:
	and	w22, w22, 65535
.LVL1171:
	b	.L856
.LBE278:
	.cfi_endproc
.LFE290:
	.size	ftl_check_vpc, .-ftl_check_vpc
	.section	.text.FtlGcPageVarInit,"ax",@progbits
	.align	2
	.global	FtlGcPageVarInit
	.type	FtlGcPageVarInit, %function
FtlGcPageVarInit:
.LFB309:
	.loc 5 202 0
	.cfi_startproc
	stp	x29, x30, [sp, -32]!
	.cfi_def_cfa_offset 32
	.cfi_offset 29, -32
	.cfi_offset 30, -24
	.loc 5 203 0
	adrp	x0, .LANCHOR95
	.loc 5 205 0
	mov	w1, 255
	.loc 5 202 0
	add	x29, sp, 0
	.cfi_def_cfa_register 29
	.loc 5 203 0
	strh	wzr, [x0, #:lo12:.LANCHOR95]
	.loc 5 204 0
	adrp	x0, .LANCHOR97
	.loc 5 202 0
	str	x19, [sp, 16]
	.cfi_offset 19, -16
	.loc 5 205 0
	adrp	x19, .LANCHOR21
	.loc 5 204 0
	strh	wzr, [x0, #:lo12:.LANCHOR97]
	.loc 5 205 0
	adrp	x0, .LANCHOR96
	ldrh	w2, [x19, #:lo12:.LANCHOR21]
	ldr	x0, [x0, #:lo12:.LANCHOR96]
	lsl	w2, w2, 1
	bl	ftl_memset
.LVL1172:
	.loc 5 206 0
	ldrh	w2, [x19, #:lo12:.LANCHOR21]
	mov	w0, 12
	mov	w1, 255
	mul	w2, w2, w0
	adrp	x0, .LANCHOR98
	ldr	x0, [x0, #:lo12:.LANCHOR98]
	bl	ftl_memset
.LVL1173:
	.loc 5 208 0
	ldr	x19, [sp, 16]
	ldp	x29, x30, [sp], 32
	.cfi_restore 30
	.cfi_restore 29
	.cfi_restore 19
	.cfi_def_cfa 31, 0
	.loc 5 207 0
	b	FtlGcBufInit
.LVL1174:
	.cfi_endproc
.LFE309:
	.size	FtlGcPageVarInit, .-FtlGcPageVarInit
	.section	.text.FtlGcScanTempBlk,"ax",@progbits
	.align	2
	.global	FtlGcScanTempBlk
	.type	FtlGcScanTempBlk, %function
FtlGcScanTempBlk:
.LFB310:
	.loc 5 211 0
	.cfi_startproc
.LVL1175:
	stp	x29, x30, [sp, -112]!
	.cfi_def_cfa_offset 112
	.cfi_offset 29, -112
	.cfi_offset 30, -104
	add	x29, sp, 0
	.cfi_def_cfa_register 29
	stp	x21, x22, [sp, 32]
	.cfi_offset 21, -80
	.cfi_offset 22, -72
	.loc 5 220 0
	adrp	x21, .LANCHOR156
	.loc 5 211 0
	stp	x19, x20, [sp, 16]
	.cfi_offset 19, -96
	.cfi_offset 20, -88
	mov	x20, x0
	stp	x27, x28, [sp, 80]
	.loc 5 221 0
	mov	w0, 65535
.LVL1176:
	.loc 5 220 0
	ldrh	w19, [x21, #:lo12:.LANCHOR156]
.LVL1177:
	.cfi_offset 27, -32
	.cfi_offset 28, -24
	.loc 5 211 0
	mov	w28, w1
	stp	x23, x24, [sp, 48]
	stp	x25, x26, [sp, 64]
	.cfi_offset 23, -64
	.cfi_offset 24, -56
	.cfi_offset 25, -48
	.cfi_offset 26, -40
	.loc 5 221 0
	cmp	w19, w0
	beq	.L892
	.loc 5 223 0
	cbnz	w19, .L876
.L877:
	.loc 5 224 0
	bl	FtlGcPageVarInit
.LVL1178:
	b	.L878
.LVL1179:
.L892:
	.loc 5 222 0
	mov	w19, 0
.LVL1180:
.L876:
	.loc 5 223 0 discriminator 1
	adrp	x0, .LANCHOR19
	ldrh	w0, [x0, #:lo12:.LANCHOR19]
	cmp	w0, w28
	beq	.L877
.LVL1181:
.L878:
	.loc 5 235 0
	adrp	x27, .LANCHOR23
	add	x27, x27, :lo12:.LANCHOR23
	.loc 5 222 0
	mov	w22, 0
	.loc 5 228 0
	mov	w23, 65535
.LVL1182:
.L886:
	ldrh	w0, [x20]
	.loc 5 226 0
	strb	wzr, [x20, 8]
.LVL1183:
	.loc 5 228 0
	cmp	w0, w23
	beq	.L893
	.loc 5 236 0
	adrp	x25, .LANCHOR24
	.loc 5 231 0
	adrp	x26, .LANCHOR3
	.loc 5 236 0
	add	x25, x25, :lo12:.LANCHOR24
	.loc 5 231 0
	add	x26, x26, :lo12:.LANCHOR3
.L889:
.LVL1184:
	.loc 5 235 0
	adrp	x1, .LANCHOR91
	.loc 5 234 0
	adrp	x24, .LANCHOR120
	.loc 5 235 0
	ldrh	w7, [x27]
	add	x5, x20, 16
	ldr	x6, [x1, #:lo12:.LANCHOR91]
	.loc 5 236 0
	adrp	x1, .LANCHOR92
	.loc 5 234 0
	ldr	x0, [x24, #:lo12:.LANCHOR120]
	.loc 5 230 0
	mov	w3, 0
	.loc 5 236 0
	ldr	x8, [x1, #:lo12:.LANCHOR92]
	ldrh	w1, [x26]
	ldrh	w10, [x25]
	add	x1, x1, 8
	add	x1, x20, x1, lsl 1
.LVL1185:
.L880:
	.loc 5 231 0 discriminator 1
	cmp	x1, x5
	bne	.L882
	.loc 5 240 0
	mov	w1, w3
	str	w3, [x29, 108]
	mov	w2, 0
	bl	FlashReadPages
.LVL1186:
	ldr	w3, [x29, 108]
	.loc 5 241 0
	mov	x11, 0
	ubfiz	x12, x3, 5, 16
.LVL1187:
.L883:
	.loc 5 241 0 is_stmt 0 discriminator 1
	cmp	x11, x12
	bne	.L887
	.loc 5 264 0 is_stmt 1
	add	w19, w19, 1
.LVL1188:
	.loc 5 266 0
	add	w22, w22, 1
.LVL1189:
	.loc 5 264 0
	and	w19, w19, 65535
.LVL1190:
	.loc 5 268 0
	cmp	w28, w22
	adrp	x1, .LANCHOR19
	bls	.L888
.L890:
	.loc 5 274 0
	ldrh	w0, [x1, #:lo12:.LANCHOR19]
	cmp	w0, w19
	bhi	.L889
.L893:
	.loc 5 227 0
	mov	w2, 0
	b	.L879
.LVL1191:
.L882:
	.loc 5 232 0
	ldrh	w4, [x5]
.LVL1192:
	.loc 5 233 0
	cmp	w4, w23
	beq	.L881
	.loc 5 234 0
	ubfiz	x2, x3, 5, 16
	orr	w4, w19, w4, lsl 10
.LVL1193:
	add	x2, x0, x2
	str	w4, [x2, 4]
	.loc 5 235 0
	mul	w4, w3, w7
	asr	w4, w4, 2
	add	x4, x6, x4, sxtw 2
	str	x4, [x2, 8]
	.loc 5 236 0
	mul	w4, w3, w10
	.loc 5 237 0
	add	w3, w3, 1
.LVL1194:
	and	w3, w3, 65535
.LVL1195:
	.loc 5 236 0
	asr	w4, w4, 2
	add	x4, x8, x4, sxtw 2
	str	x4, [x2, 16]
.L881:
	add	x5, x5, 2
.LVL1196:
	b	.L880
.LVL1197:
.L887:
	.loc 5 242 0
	ldr	x6, [x24, #:lo12:.LANCHOR120]
	add	x5, x6, x11
	ldr	w4, [x5, 4]
.LVL1198:
	.loc 5 243 0
	lsr	w0, w4, 10
	bl	P2V_plane
.LVL1199:
	and	w2, w0, 65535
.LVL1200:
	.loc 5 245 0
	ldr	w0, [x6, x11]
.LVL1201:
	cbnz	w0, .L884
	.loc 5 247 0
	ldr	x0, [x5, 16]
.LVL1202:
	add	x11, x11, 32
	.loc 5 248 0
	ldrh	w1, [x0]
	cmp	w1, w23
	bne	.L885
	.loc 5 249 0
	adrp	x0, .LANCHOR152
.LVL1203:
	mov	w1, 1
	str	w1, [x0, #:lo12:.LANCHOR152]
.LVL1204:
.L879:
	.loc 5 282 0
	strh	w19, [x20, 2]
	.loc 5 281 0
	mov	w0, -1
	.loc 5 283 0
	strb	w2, [x20, 6]
	.loc 5 284 0
	mov	w1, w19
	.loc 5 281 0
	strh	w0, [x21, #:lo12:.LANCHOR156]
	.loc 5 284 0
	mov	x0, x20
	bl	ftl_sb_update_avl_pages
.LVL1205:
	.loc 5 285 0
	b	.L891
.LVL1206:
.L885:
	.loc 5 252 0
	ldp	w2, w0, [x0, 8]
.LVL1207:
	mov	w1, w4
	bl	FtlGcUpdatePage
.LVL1208:
	b	.L883
.LVL1209:
.L884:
	.loc 5 256 0
	adrp	x0, .LANCHOR42
	ldrh	w1, [x20]
	.loc 5 259 0
	mov	w19, 0
.LVL1210:
	.loc 5 256 0
	ldr	x0, [x0, #:lo12:.LANCHOR42]
	strh	wzr, [x0, x1, lsl 1]
	.loc 5 257 0
	ldrh	w0, [x20]
	bl	INSERT_FREE_LIST
.LVL1211:
	.loc 5 258 0
	mov	w0, -1
	strh	w0, [x20]
.LVL1212:
	.loc 5 260 0
	bl	FtlGcPageVarInit
.LVL1213:
	.loc 5 261 0
	b	.L886
.LVL1214:
.L888:
	.loc 5 268 0 discriminator 1
	ldrh	w0, [x21, #:lo12:.LANCHOR156]
	cmp	w0, w23
	beq	.L890
	.loc 5 269 0
	add	w0, w0, w22
	strh	w0, [x21, #:lo12:.LANCHOR156]
	.loc 5 270 0
	ldrh	w0, [x1, #:lo12:.LANCHOR19]
	cmp	w0, w19
	bls	.L890
.LVL1215:
.L891:
	.loc 5 286 0
	ldp	x19, x20, [sp, 16]
.LVL1216:
	mov	w0, -1
	ldp	x21, x22, [sp, 32]
.LVL1217:
	ldp	x23, x24, [sp, 48]
	ldp	x25, x26, [sp, 64]
	ldp	x27, x28, [sp, 80]
.LVL1218:
	ldp	x29, x30, [sp], 112
	.cfi_restore 30
	.cfi_restore 29
	.cfi_restore 27
	.cfi_restore 28
	.cfi_restore 25
	.cfi_restore 26
	.cfi_restore 23
	.cfi_restore 24
	.cfi_restore 21
	.cfi_restore 22
	.cfi_restore 19
	.cfi_restore 20
	.cfi_def_cfa 31, 0
	ret
	.cfi_endproc
.LFE310:
	.size	FtlGcScanTempBlk, .-FtlGcScanTempBlk
	.section	.text.FlashTestBlk,"ax",@progbits
	.align	2
	.global	FlashTestBlk
	.type	FlashTestBlk, %function
FlashTestBlk:
.LFB344:
	.loc 1 197 0
	.cfi_startproc
.LVL1219:
	stp	x29, x30, [sp, -128]!
	.cfi_def_cfa_offset 128
	.cfi_offset 29, -128
	.cfi_offset 30, -120
	add	x29, sp, 0
	.cfi_def_cfa_register 29
	stp	x19, x20, [sp, 16]
	.cfi_offset 19, -112
	.cfi_offset 20, -104
	.loc 1 197 0
	and	w19, w0, 65535
	.loc 1 202 0
	cmp	w19, 11
	bls	.L901
.LVL1220:
.LBB281:
.LBB282:
	.loc 1 207 0
	add	x0, x29, 64
.LVL1221:
	.loc 1 208 0
	mov	w2, 32
	mov	w1, 165
	.loc 1 206 0
	adrp	x20, ftl_temp_buf
	add	x20, x20, :lo12:ftl_temp_buf
	.loc 1 207 0
	stp	x20, x0, [x29, 40]
	.loc 1 208 0
	bl	ftl_memset
.LVL1222:
	.loc 1 210 0
	lsl	w19, w19, 10
.LVL1223:
	.loc 1 209 0
	mov	w2, 8
	mov	w1, 90
	mov	x0, x20
	bl	ftl_memset
.LVL1224:
	.loc 1 211 0
	mov	w2, 1
	.loc 1 210 0
	str	w19, [x29, 36]
	.loc 1 211 0
	mov	w1, w2
	add	x0, x29, 32
	bl	FlashEraseBlocks
.LVL1225:
	.loc 1 212 0
	mov	w3, 1
	add	x0, x29, 32
	mov	w2, w3
	mov	w1, w3
	bl	FlashProgPages
.LVL1226:
	.loc 1 213 0
	ldr	w0, [x29, 32]
	.loc 1 219 0
	mov	w2, 1
	mov	w1, 0
	.loc 1 213 0
	cmp	w0, 0
	.loc 1 219 0
	add	x0, x29, 32
	.loc 1 213 0
	csetm	w19, ne
.LDL1:
.LVL1227:
	.loc 1 219 0
	bl	FlashEraseBlocks
.LVL1228:
.L899:
.LBE282:
.LBE281:
	.loc 1 221 0
	mov	w0, w19
	ldp	x19, x20, [sp, 16]
	ldp	x29, x30, [sp], 128
	.cfi_remember_state
	.cfi_restore 30
	.cfi_restore 29
	.cfi_restore 19
	.cfi_restore 20
	.cfi_def_cfa 31, 0
	ret
.LVL1229:
.L901:
	.cfi_restore_state
	.loc 1 203 0
	mov	w19, 0
	b	.L899
	.cfi_endproc
.LFE344:
	.size	FlashTestBlk, .-FlashTestBlk
	.section	.text.FlashGetBadBlockList,"ax",@progbits
	.align	2
	.global	FlashGetBadBlockList
	.type	FlashGetBadBlockList, %function
FlashGetBadBlockList:
.LFB345:
	.loc 1 224 0
	.cfi_startproc
.LVL1230:
	stp	x29, x30, [sp, -32]!
	.cfi_def_cfa_offset 32
	.cfi_offset 29, -32
	.cfi_offset 30, -24
	.loc 1 227 0
	mov	w2, 256
	.loc 1 224 0
	add	x29, sp, 0
	.cfi_def_cfa_register 29
	stp	x19, x20, [sp, 16]
	.cfi_offset 19, -16
	.cfi_offset 20, -8
	.loc 1 224 0
	mov	x19, x0
	mov	w20, w1
	.loc 1 227 0
	mov	w1, 255
.LVL1231:
	bl	ftl_memset
.LVL1232:
	.loc 1 228 0
	adrp	x0, .LANCHOR105
	mov	w1, w20
	ldr	x2, [x0, #:lo12:.LANCHOR105]
	mov	x0, x19
	blr	x2
.LVL1233:
	and	w0, w0, 65535
.LVL1234:
	.loc 1 229 0
	cmp	w0, 50
	bls	.L904
	.loc 1 230 0
	mov	w2, 256
	mov	w1, 255
	mov	x0, x19
.LVL1235:
	bl	ftl_memset
.LVL1236:
	.loc 1 231 0
	mov	w0, 0
.LVL1237:
.L904:
	.loc 1 233 0
	adrp	x1, .LANCHOR0+14
	ldrh	w1, [x1, #:lo12:.LANCHOR0+14]
	cmp	w1, 4
	bne	.L908
	mov	x1, 0
.L906:
.LVL1238:
	.loc 1 234 0 discriminator 1
	cmp	w0, w1, uxth
	bhi	.L907
.LVL1239:
.L908:
	.loc 1 239 0
	ldp	x19, x20, [sp, 16]
.LVL1240:
	ldp	x29, x30, [sp], 32
	.cfi_remember_state
	.cfi_restore 30
	.cfi_restore 29
	.cfi_restore 19
	.cfi_restore 20
	.cfi_def_cfa 31, 0
	ret
.LVL1241:
.L907:
	.cfi_restore_state
	.loc 1 235 0 discriminator 3
	ldrh	w2, [x19, x1, lsl 1]
	lsr	w2, w2, 1
	strh	w2, [x19, x1, lsl 1]
.LVL1242:
	add	x1, x1, 1
.LVL1243:
	b	.L906
	.cfi_endproc
.LFE345:
	.size	FlashGetBadBlockList, .-FlashGetBadBlockList
	.section	.text.ftl_memcpy,"ax",@progbits
	.align	2
	.global	ftl_memcpy
	.type	ftl_memcpy, %function
ftl_memcpy:
.LFB347:
	.loc 1 247 0
	.cfi_startproc
.LVL1244:
	.loc 1 248 0
	uxtw	x2, w2
	b	memcpy
.LVL1245:
	.cfi_endproc
.LFE347:
	.size	ftl_memcpy, .-ftl_memcpy
	.section	.text.FtlBbmTblFlush,"ax",@progbits
	.align	2
	.global	FtlBbmTblFlush
	.type	FtlBbmTblFlush, %function
FtlBbmTblFlush:
.LFB226:
	.loc 4 80 0
	.cfi_startproc
.LVL1246:
	stp	x29, x30, [sp, -96]!
	.cfi_def_cfa_offset 96
	.cfi_offset 29, -96
	.cfi_offset 30, -88
	add	x29, sp, 0
	.cfi_def_cfa_register 29
	stp	x23, x24, [sp, 48]
	.cfi_offset 23, -48
	.cfi_offset 24, -40
	.loc 4 88 0
	adrp	x23, .LANCHOR108
	.loc 4 80 0
	stp	x19, x20, [sp, 16]
	.cfi_offset 19, -80
	.cfi_offset 20, -72
	.loc 4 87 0
	adrp	x19, .LANCHOR106
	.loc 4 80 0
	stp	x21, x22, [sp, 32]
	.loc 4 87 0
	add	x20, x19, :lo12:.LANCHOR106
	.cfi_offset 21, -64
	.cfi_offset 22, -56
	adrp	x22, .LANCHOR107
	.loc 4 88 0
	ldr	x1, [x23, #:lo12:.LANCHOR108]
	.loc 4 80 0
	stp	x25, x26, [sp, 64]
	adrp	x21, .LANCHOR37
	str	x27, [sp, 80]
	.cfi_offset 25, -32
	.cfi_offset 26, -24
	.cfi_offset 27, -16
	add	x25, x21, :lo12:.LANCHOR37
	.loc 4 87 0
	ldr	x0, [x22, #:lo12:.LANCHOR107]
	.loc 4 91 0
	adrp	x26, .LANCHOR10
	.loc 4 88 0
	stp	x0, x1, [x20, 8]
	.loc 4 89 0
	adrp	x1, .LANCHOR23
	.loc 4 92 0
	adrp	x27, .LANCHOR137
	add	x25, x25, 32
	.loc 4 89 0
	ldrh	w2, [x1, #:lo12:.LANCHOR23]
	.loc 4 91 0
	mov	w24, 0
	add	x26, x26, :lo12:.LANCHOR10
	.loc 4 92 0
	add	x27, x27, :lo12:.LANCHOR137
	.loc 4 89 0
	mov	w1, 0
	bl	ftl_memset
.LVL1247:
.L912:
	.loc 4 91 0 discriminator 1
	ldrh	w0, [x26]
	cmp	w24, w0
	blt	.L913
	.loc 4 94 0
	add	x19, x19, :lo12:.LANCHOR106
	.loc 4 98 0
	add	x20, x21, :lo12:.LANCHOR37
	.loc 4 95 0
	mov	w2, 16
	mov	w1, 255
	.loc 4 108 0
	adrp	x24, .LC97
.LVL1248:
	.loc 4 110 0
	adrp	x26, .LANCHOR20
	.loc 4 94 0
	ldr	x27, [x19, 16]
.LVL1249:
	.loc 4 108 0
	add	x24, x24, :lo12:.LC97
	.loc 4 110 0
	add	x26, x26, :lo12:.LANCHOR20
	.loc 4 82 0
	mov	w25, 0
	.loc 4 95 0
	mov	x0, x27
	bl	ftl_memset
.LVL1250:
	.loc 4 97 0
	mov	w0, -3887
	strh	w0, [x27]
	.loc 4 98 0
	ldr	w0, [x20, 8]
	str	w0, [x27, 4]
	.loc 4 99 0
	ldrh	w0, [x21, #:lo12:.LANCHOR37]
	.loc 4 84 0
	mov	w21, 0
	.loc 4 99 0
	strh	w0, [x27, 2]
	.loc 4 100 0
	ldrh	w0, [x20, 4]
	strh	w0, [x27, 8]
	.loc 4 101 0
	ldrh	w0, [x20, 6]
	strh	w0, [x27, 10]
	.loc 4 102 0
	adrp	x0, .LANCHOR2
	ldr	w0, [x0, #:lo12:.LANCHOR2]
	strh	w0, [x27, 12]
.LVL1251:
.L914:
	.loc 4 108 0
	ldrh	w4, [x27, 10]
	.loc 4 107 0
	ldrh	w1, [x20]
	ldrh	w2, [x20, 2]
	.loc 4 108 0
	ldrh	w3, [x20, 4]
	.loc 4 104 0
	ldr	x0, [x22, #:lo12:.LANCHOR107]
	str	x0, [x19, 8]
	.loc 4 105 0
	ldr	x0, [x23, #:lo12:.LANCHOR108]
	str	x0, [x19, 16]
	.loc 4 107 0
	orr	w0, w2, w1, lsl 10
	.loc 4 106 0
	str	wzr, [x19]
	.loc 4 107 0
	str	w0, [x19, 4]
	.loc 4 108 0
	mov	x0, x24
	bl	printf
.LVL1252:
	.loc 4 109 0
	mov	w3, 1
	mov	x0, x19
	mov	w1, w3
	mov	w2, w3
	bl	FlashProgPages
.LVL1253:
	.loc 4 110 0
	ldrh	w0, [x26]
	ldrh	w1, [x20, 2]
	sub	w0, w0, #1
	cmp	w1, w0
	blt	.L915
	.loc 4 113 0
	ldr	w0, [x20, 8]
	.loc 4 122 0
	mov	w2, 1
	.loc 4 116 0
	ldrh	w1, [x20, 4]
	.loc 4 113 0
	add	w0, w0, 1
	str	w0, [x20, 8]
	.loc 4 114 0
	str	w0, [x27, 4]
	.loc 4 115 0
	ldrh	w0, [x20]
	strh	w0, [x27, 8]
	.loc 4 118 0
	strh	w0, [x20, 4]
	.loc 4 121 0
	adrp	x0, .LANCHOR111
	.loc 4 116 0
	strh	w1, [x20]
	.loc 4 119 0
	lsl	w1, w1, 10
	.loc 4 121 0
	ldr	x0, [x0, #:lo12:.LANCHOR111]
	.loc 4 119 0
	str	w1, [x19, 4]
	.loc 4 117 0
	strh	wzr, [x20, 2]
	.loc 4 121 0
	str	w1, [x0, 4]
	.loc 4 122 0
	mov	w1, w2
	bl	FlashEraseBlocks
.LVL1254:
	.loc 4 123 0
	mov	w3, 1
	mov	x0, x19
	mov	w2, w3
	mov	w1, w3
	bl	FlashProgPages
.LVL1255:
.L915:
	.loc 4 126 0
	ldrh	w0, [x20, 2]
	add	w0, w0, 1
	strh	w0, [x20, 2]
	.loc 4 127 0
	ldr	w0, [x19]
	cmn	w0, #1
	bne	.L916
	.loc 4 129 0
	ldr	w1, [x19, 4]
	.loc 4 130 0
	add	w21, w21, 1
.LVL1256:
	.loc 4 129 0
	adrp	x0, .LC98
	.loc 4 130 0
	and	w21, w21, 65535
	.loc 4 129 0
	add	x0, x0, :lo12:.LC98
	bl	printf
.LVL1257:
	.loc 4 131 0
	cmp	w21, 3
	bls	.L914
	.loc 4 132 0
	ldr	w1, [x19, 4]
	adrp	x0, .LC99
	mov	w2, w21
	add	x0, x0, :lo12:.LC99
	bl	printf
.LVL1258:
.L918:
	b	.L918
.LVL1259:
.L913:
	.loc 4 92 0 discriminator 3
	ldrh	w2, [x27]
	ldr	x1, [x25], 8
	ldr	x0, [x20, 8]
	mul	w3, w24, w2
	lsl	w2, w2, 2
	.loc 4 91 0 discriminator 3
	add	w24, w24, 1
.LVL1260:
	.loc 4 92 0 discriminator 3
	add	x0, x0, x3, sxtw 2
	bl	ftl_memcpy
.LVL1261:
	b	.L912
.LVL1262:
.L919:
	mov	w25, 1
.LVL1263:
	b	.L914
.LVL1264:
.L916:
	.loc 4 139 0
	cbz	w25, .L919
	.loc 4 146 0
	mov	w0, 0
	ldr	x27, [sp, 80]
.LVL1265:
	ldp	x19, x20, [sp, 16]
	ldp	x21, x22, [sp, 32]
.LVL1266:
	ldp	x23, x24, [sp, 48]
	ldp	x25, x26, [sp, 64]
.LVL1267:
	ldp	x29, x30, [sp], 96
	.cfi_restore 30
	.cfi_restore 29
	.cfi_restore 27
	.cfi_restore 25
	.cfi_restore 26
	.cfi_restore 23
	.cfi_restore 24
	.cfi_restore 21
	.cfi_restore 22
	.cfi_restore 19
	.cfi_restore 20
	.cfi_def_cfa 31, 0
	ret
	.cfi_endproc
.LFE226:
	.size	FtlBbmTblFlush, .-FtlBbmTblFlush
	.section	.text.allocate_data_superblock,"ax",@progbits
	.align	2
	.global	allocate_data_superblock
	.type	allocate_data_superblock, %function
allocate_data_superblock:
.LFB298:
	.loc 2 2582 0
	.cfi_startproc
.LVL1268:
	stp	x29, x30, [sp, -112]!
	.cfi_def_cfa_offset 112
	.cfi_offset 29, -112
	.cfi_offset 30, -104
	add	x29, sp, 0
	.cfi_def_cfa_register 29
	stp	x27, x28, [sp, 80]
	.cfi_offset 27, -32
	.cfi_offset 28, -24
	.loc 2 2588 0
	adrp	x28, .LANCHOR48
	.loc 2 2582 0
	stp	x23, x24, [sp, 48]
	.cfi_offset 23, -64
	.cfi_offset 24, -56
	.loc 2 2591 0
	add	x23, x28, :lo12:.LANCHOR48
	.loc 2 2582 0
	stp	x19, x20, [sp, 16]
	.loc 2 2588 0
	adrp	x27, .LANCHOR45
	.cfi_offset 19, -96
	.cfi_offset 20, -88
	.loc 2 2582 0
	mov	x19, x0
	stp	x21, x22, [sp, 32]
	.loc 2 2588 0
	add	x0, x27, :lo12:.LANCHOR45
.LVL1269:
	.loc 2 2582 0
	stp	x25, x26, [sp, 64]
	.cfi_offset 21, -80
	.cfi_offset 22, -72
	.cfi_offset 25, -48
	.cfi_offset 26, -40
	.loc 2 2588 0
	str	x0, [x29, 104]
.LVL1270:
.L922:
	ldr	x1, [x29, 104]
	adrp	x24, .LANCHOR5
	ldrh	w0, [x28, #:lo12:.LANCHOR48]
	ldrh	w1, [x1]
	add	w0, w0, w1
	ldrh	w1, [x24, #:lo12:.LANCHOR5]
	cmp	w0, w1
	ble	.L923
	.loc 2 2588 0 is_stmt 0 discriminator 1
	adrp	x1, .LANCHOR157
	adrp	x0, .LC1
	mov	w2, 2588
	add	x1, x1, :lo12:.LANCHOR157
	add	x0, x0, :lo12:.LC1
	bl	printf
.LVL1271:
.L923:
	.loc 2 2590 0 is_stmt 1
	adrp	x0, .LANCHOR53
	add	x0, x0, :lo12:.LANCHOR53
	cmp	x19, x0
	bne	.L948
	.loc 2 2591 0
	adrp	x1, .LANCHOR87
	ldrh	w0, [x23]
	ldr	w1, [x1, #:lo12:.LANCHOR87]
	mul	w1, w0, w1
	lsr	w0, w0, 1
	add	w0, w0, 1
	add	w1, w0, w1, lsr 2
.LVL1272:
	.loc 2 2595 0
	ands	w1, w1, 65535
	beq	.L924
	.loc 2 2596 0
	sub	w1, w1, #1
.LVL1273:
	and	w1, w1, 65535
.LVL1274:
.L924:
	.loc 2 2597 0
	adrp	x0, .LANCHOR47
	add	x0, x0, :lo12:.LANCHOR47
	bl	List_pop_index_node
.LVL1275:
	and	w20, w0, 65535
.LVL1276:
	ldrh	w0, [x23]
	cbnz	w0, .L925
	.loc 2 2597 0 is_stmt 0 discriminator 1
	adrp	x1, .LANCHOR157
	adrp	x0, .LC1
	mov	w2, 2597
	add	x1, x1, :lo12:.LANCHOR157
	add	x0, x0, :lo12:.LC1
	bl	printf
.LVL1277:
.L925:
	.loc 2 2597 0 discriminator 3
	ldrh	w0, [x23]
	sub	w0, w0, #1
	strh	w0, [x23]
	.loc 2 2600 0 is_stmt 1 discriminator 3
	strh	w20, [x19]
	.loc 2 2601 0 discriminator 3
	mov	x0, x19
	bl	make_superblock
.LVL1278:
	.loc 2 2602 0 discriminator 3
	ldrb	w0, [x19, 7]
	cbnz	w0, .L926
	.loc 2 2606 0
	adrp	x1, .LANCHOR42
	ubfiz	x0, x20, 1, 16
	mov	w2, -1
	ldr	x1, [x1, #:lo12:.LANCHOR42]
	strh	w2, [x1, x0]
	.loc 2 2607 0
	mov	w0, w20
	bl	INSERT_DATA_LIST
.LVL1279:
	.loc 2 2608 0
	ldrh	w1, [x27, #:lo12:.LANCHOR45]
	ldrh	w0, [x23]
	add	w0, w0, w1
	ldrh	w1, [x24, #:lo12:.LANCHOR5]
	cmp	w0, w1
	ble	.L922
	.loc 2 2608 0 is_stmt 0 discriminator 1
	mov	w2, 2608
	adrp	x1, .LANCHOR157
	adrp	x0, .LC1
	add	x1, x1, :lo12:.LANCHOR157
	add	x0, x0, :lo12:.LC1
	bl	printf
.LVL1280:
	b	.L922
.LVL1281:
.L948:
	mov	w1, 0
	b	.L924
.LVL1282:
.L926:
	.loc 2 2611 0 is_stmt 1
	ldrh	w1, [x27, #:lo12:.LANCHOR45]
	ldrh	w0, [x23]
	add	w0, w0, w1
	ldrh	w1, [x24, #:lo12:.LANCHOR5]
	cmp	w0, w1
	ble	.L928
	.loc 2 2611 0 is_stmt 0 discriminator 1
	adrp	x1, .LANCHOR157
	adrp	x0, .LC1
	mov	w2, 2611
	add	x1, x1, :lo12:.LANCHOR157
	add	x0, x0, :lo12:.LC1
	bl	printf
.LVL1283:
.L928:
	.loc 2 2614 0 is_stmt 1 discriminator 1
	adrp	x0, .LANCHOR3
	.loc 2 2615 0 discriminator 1
	adrp	x25, .LANCHOR111
	add	x26, x19, 16
	mov	w21, 0
	ldrh	w0, [x0, #:lo12:.LANCHOR3]
	mov	x4, x26
	ldr	x3, [x25, #:lo12:.LANCHOR111]
	.loc 2 2617 0 discriminator 1
	mov	w6, 65535
	ubfiz	x0, x0, 5, 16
	add	x1, x3, 8
	add	x0, x0, 8
	add	x0, x3, x0
.L929:
.LVL1284:
	.loc 2 2614 0 discriminator 1
	cmp	x0, x1
	bne	.L931
	.loc 2 2622 0
	cbnz	w21, .L932
	.loc 2 2622 0 is_stmt 0 discriminator 1
	adrp	x1, .LANCHOR157
	adrp	x0, .LC1
	mov	w2, 2622
	add	x1, x1, :lo12:.LANCHOR157
	add	x0, x0, :lo12:.LC1
	bl	printf
.LVL1285:
.L932:
	.loc 2 2624 0 is_stmt 1
	adrp	x0, .LANCHOR80
	ldrh	w0, [x0, #:lo12:.LANCHOR80]
	cmp	w0, w20
	bne	.L933
	.loc 2 2624 0 is_stmt 0 discriminator 1
	adrp	x1, .LANCHOR157
	adrp	x0, .LC1
	mov	w2, 2624
	add	x1, x1, :lo12:.LANCHOR157
	add	x0, x0, :lo12:.LC1
	bl	printf
.LVL1286:
.L933:
	.loc 2 2625 0 is_stmt 1
	ldrb	w0, [x19, 8]
	uxtw	x22, w20
	adrp	x6, .LANCHOR43
	adrp	x7, .LANCHOR14
	adrp	x5, .LANCHOR72
	adrp	x4, .LANCHOR73
	cbnz	w0, .L934
	.loc 2 2626 0
	ldr	x2, [x6, #:lo12:.LANCHOR43]
	lsl	x1, x22, 1
	ldrh	w0, [x2, x1]
	cbz	w0, .L935
	.loc 2 2627 0
	ldrh	w3, [x7, #:lo12:.LANCHOR14]
	add	w0, w0, w3
.L959:
	.loc 2 2629 0
	strh	w0, [x2, x1]
	.loc 2 2631 0
	mov	w1, 0
	.loc 2 2630 0
	ldr	w0, [x5, #:lo12:.LANCHOR72]
	add	w0, w0, 1
	str	w0, [x5, #:lo12:.LANCHOR72]
	.loc 2 2631 0
	mov	w0, w20
	bl	ftl_set_blk_mode
.LVL1287:
.L937:
	.loc 2 2638 0
	ldr	x0, [x6, #:lo12:.LANCHOR43]
	lsl	x22, x22, 1
	ldrh	w1, [x0, x22]
	adrp	x0, .LANCHOR76
	ldr	w2, [x0, #:lo12:.LANCHOR76]
	cmp	w1, w2
	bls	.L938
	.loc 2 2639 0
	str	w1, [x0, #:lo12:.LANCHOR76]
.L938:
	.loc 2 2641 0
	ldr	w2, [x5, #:lo12:.LANCHOR72]
	ldr	w1, [x4, #:lo12:.LANCHOR73]
	ldrh	w0, [x7, #:lo12:.LANCHOR14]
	madd	w0, w0, w2, w1
	ldrh	w1, [x24, #:lo12:.LANCHOR5]
	udiv	w0, w0, w1
	adrp	x1, .LANCHOR74
	str	w0, [x1, #:lo12:.LANCHOR74]
	.loc 2 2642 0
	adrp	x0, .LANCHOR127
	ldr	x1, [x0, #:lo12:.LANCHOR127]
	ldr	w0, [x1, 16]
	add	w0, w0, 1
	str	w0, [x1, 16]
.LVL1288:
	.loc 2 2645 0
	ldr	x0, [x25, #:lo12:.LANCHOR111]
	ubfiz	x1, x21, 5, 16
	add	x1, x1, 4
	add	x2, x0, 4
	add	x1, x0, x1
.LVL1289:
.L939:
	.loc 2 2644 0 discriminator 1
	cmp	x1, x2
	bne	.L940
	.loc 2 2646 0
	ldrb	w1, [x19, 8]
	mov	w2, w21
	.loc 2 2648 0
	mov	x24, 0
	.loc 2 2646 0
	bl	FlashEraseBlocks
.LVL1290:
	.loc 2 2647 0
	mov	w1, 0
.LVL1291:
.L941:
	.loc 2 2648 0 discriminator 1
	cmp	w21, w24, uxth
	bhi	.L943
	.loc 2 2659 0
	cbz	w1, .L944
	.loc 2 2660 0
	mov	w0, w20
	bl	update_multiplier_value
.LVL1292:
	.loc 2 2661 0
	bl	FtlBbmTblFlush
.LVL1293:
.L944:
	.loc 2 2664 0
	ldrb	w0, [x19, 7]
	adrp	x2, .LANCHOR42
	cbnz	w0, .L945
	.loc 2 2666 0
	ldr	x0, [x2, #:lo12:.LANCHOR42]
	mov	w1, -1
	strh	w1, [x0, x22]
	.loc 2 2667 0
	mov	w0, w20
	bl	INSERT_DATA_LIST
.LVL1294:
	.loc 2 2668 0
	b	.L922
.LVL1295:
.L931:
	.loc 2 2617 0
	ldrh	w2, [x4]
	.loc 2 2616 0
	stp	xzr, xzr, [x1]
	.loc 2 2617 0
	cmp	w2, w6
	beq	.L930
	.loc 2 2618 0
	ubfiz	x5, x21, 5, 16
	.loc 2 2619 0
	add	w21, w21, 1
.LVL1296:
	.loc 2 2618 0
	add	x5, x3, x5
	.loc 2 2619 0
	and	w21, w21, 65535
.LVL1297:
	.loc 2 2618 0
	lsl	w2, w2, 10
	str	w2, [x5, 4]
.L930:
	add	x1, x1, 32
	add	x4, x4, 2
	b	.L929
.L935:
	.loc 2 2629 0
	mov	w0, 2
	b	.L959
.L934:
	.loc 2 2633 0
	ldr	x2, [x6, #:lo12:.LANCHOR43]
	lsl	x0, x22, 1
	ldrh	w1, [x2, x0]
	add	w1, w1, 1
	strh	w1, [x2, x0]
	.loc 2 2634 0
	ldr	w0, [x4, #:lo12:.LANCHOR73]
	add	w0, w0, 1
	str	w0, [x4, #:lo12:.LANCHOR73]
.LVL1298:
.LBB283:
.LBB284:
	mov	w0, w20
	bl	ftl_set_blk_mode.part.6
.LVL1299:
	b	.L937
.LVL1300:
.L940:
.LBE284:
.LBE283:
	.loc 2 2645 0 discriminator 3
	ldr	w3, [x2]
	and	w3, w3, -1024
	str	w3, [x2], 32
	b	.L939
.LVL1301:
.L943:
	.loc 2 2649 0
	ldr	x2, [x25, #:lo12:.LANCHOR111]
	lsl	x0, x24, 5
	add	x3, x2, x0
	ldr	w2, [x2, x0]
	cmn	w2, #1
	bne	.L942
	.loc 2 2650 0
	add	w1, w1, 1
.LVL1302:
	.loc 2 2651 0
	ldr	w0, [x3, 4]
	.loc 2 2650 0
	stp	w2, w1, [x29, 96]
.LVL1303:
	.loc 2 2652 0
	lsr	w0, w0, 10
	bl	FtlBbmMapBadBlock
.LVL1304:
	.loc 2 2654 0
	ldp	w2, w1, [x29, 96]
	.loc 2 2653 0
	strh	w2, [x26]
	.loc 2 2654 0
	ldrb	w0, [x19, 7]
	sub	w0, w0, #1
	strb	w0, [x19, 7]
.LVL1305:
.L942:
	add	x24, x24, 1
.LVL1306:
	add	x26, x26, 2
	b	.L941
.LVL1307:
.L945:
	.loc 2 2671 0
	adrp	x1, .LANCHOR19
	.loc 2 2675 0
	adrp	x3, .LANCHOR70
	.loc 2 2674 0
	strb	wzr, [x19, 6]
	.loc 2 2671 0
	ldrh	w1, [x1, #:lo12:.LANCHOR19]
	.loc 2 2673 0
	strh	wzr, [x19, 2]
	.loc 2 2672 0
	strh	w20, [x19]
	.loc 2 2671 0
	mul	w0, w0, w1
	.loc 2 2675 0
	ldr	w1, [x3, #:lo12:.LANCHOR70]
	str	w1, [x19, 12]
	add	w1, w1, 1
	str	w1, [x3, #:lo12:.LANCHOR70]
	.loc 2 2676 0
	ldr	x1, [x2, #:lo12:.LANCHOR42]
	.loc 2 2671 0
	and	w0, w0, 65535
	strh	w0, [x19, 4]
	.loc 2 2676 0
	strh	w0, [x1, x22]
	.loc 2 2677 0
	ldrh	w0, [x19, 4]
	cbz	w0, .L946
	.loc 2 2677 0 is_stmt 0 discriminator 2
	ldrb	w0, [x19, 7]
	cbnz	w0, .L947
.L946:
	.loc 2 2677 0 discriminator 3
	adrp	x1, .LANCHOR157
	adrp	x0, .LC1
	mov	w2, 2677
	add	x1, x1, :lo12:.LANCHOR157
	add	x0, x0, :lo12:.LC1
	bl	printf
.LVL1308:
.L947:
	.loc 2 2679 0 is_stmt 1
	ldp	x19, x20, [sp, 16]
.LVL1309:
	mov	w0, 0
	ldp	x21, x22, [sp, 32]
.LVL1310:
	ldp	x23, x24, [sp, 48]
.LVL1311:
	ldp	x25, x26, [sp, 64]
	ldp	x27, x28, [sp, 80]
	ldp	x29, x30, [sp], 112
	.cfi_restore 30
	.cfi_restore 29
	.cfi_restore 27
	.cfi_restore 28
	.cfi_restore 25
	.cfi_restore 26
	.cfi_restore 23
	.cfi_restore 24
	.cfi_restore 21
	.cfi_restore 22
	.cfi_restore 19
	.cfi_restore 20
	.cfi_def_cfa 31, 0
	ret
	.cfi_endproc
.LFE298:
	.size	allocate_data_superblock, .-allocate_data_superblock
	.section	.text.FtlGcFreeBadSuperBlk,"ax",@progbits
	.align	2
	.global	FtlGcFreeBadSuperBlk
	.type	FtlGcFreeBadSuperBlk, %function
FtlGcFreeBadSuperBlk:
.LFB317:
	.loc 5 390 0
	.cfi_startproc
.LVL1312:
	stp	x29, x30, [sp, -96]!
	.cfi_def_cfa_offset 96
	.cfi_offset 29, -96
	.cfi_offset 30, -88
	add	x29, sp, 0
	.cfi_def_cfa_register 29
	stp	x21, x22, [sp, 32]
	.cfi_offset 21, -64
	.cfi_offset 22, -56
	.loc 5 395 0
	adrp	x21, .LANCHOR101
	.loc 5 390 0
	stp	x25, x26, [sp, 64]
	.cfi_offset 25, -32
	.cfi_offset 26, -24
	and	w25, w0, 65535
	.loc 5 395 0
	ldrh	w0, [x21, #:lo12:.LANCHOR101]
.LVL1313:
	.loc 5 390 0
	stp	x19, x20, [sp, 16]
	stp	x23, x24, [sp, 48]
	str	x27, [sp, 80]
	.cfi_offset 19, -80
	.cfi_offset 20, -72
	.cfi_offset 23, -48
	.cfi_offset 24, -40
	.cfi_offset 27, -16
	.loc 5 395 0
	cbz	w0, .L961
.LBB287:
.LBB288:
	.loc 5 399 0
	adrp	x23, .LANCHOR102
	.loc 5 406 0
	add	x24, x23, :lo12:.LANCHOR102
.LBE288:
.LBE287:
	mov	w19, 0
.L962:
.LVL1314:
.LBB291:
.LBB289:
	.loc 5 396 0
	adrp	x0, .LANCHOR3
	ldrh	w0, [x0, #:lo12:.LANCHOR3]
	cmp	w0, w19
	bhi	.L968
	.loc 5 412 0
	bl	FtlGcReFreshBadBlk
.LVL1315:
.L961:
.LBE289:
.LBE291:
	.loc 5 415 0
	mov	w0, 0
	ldr	x27, [sp, 80]
	ldp	x19, x20, [sp, 16]
	ldp	x21, x22, [sp, 32]
	ldp	x23, x24, [sp, 48]
	ldp	x25, x26, [sp, 64]
.LVL1316:
	ldp	x29, x30, [sp], 96
	.cfi_remember_state
	.cfi_restore 30
	.cfi_restore 29
	.cfi_restore 27
	.cfi_restore 25
	.cfi_restore 26
	.cfi_restore 23
	.cfi_restore 24
	.cfi_restore 21
	.cfi_restore 22
	.cfi_restore 19
	.cfi_restore 20
	.cfi_def_cfa 31, 0
	ret
.LVL1317:
.L968:
	.cfi_restore_state
.LBB292:
.LBB290:
	.loc 5 397 0
	adrp	x0, .LANCHOR13
	add	x0, x0, :lo12:.LANCHOR13
	mov	w1, w25
	.loc 5 398 0
	add	x22, x21, :lo12:.LANCHOR101
	mov	w20, 0
	.loc 5 397 0
	ldrb	w0, [x0, w19, sxtw]
	bl	V2P_block
.LVL1318:
	and	w26, w0, 65535
.LVL1319:
.L963:
	.loc 5 398 0
	ldrh	w0, [x22]
	cmp	w0, w20
	bhi	.L967
	.loc 5 396 0
	add	w19, w19, 1
.LVL1320:
	and	w19, w19, 65535
.LVL1321:
	b	.L962
.L967:
	.loc 5 399 0
	add	x0, x23, :lo12:.LANCHOR102
	add	w27, w20, 1
	ldrh	w0, [x0, w20, sxtw 1]
	cmp	w0, w26
	bne	.L964
	.loc 5 401 0
	mov	w1, w26
	adrp	x0, .LC100
	add	x0, x0, :lo12:.LC100
	bl	printf
.LVL1322:
	.loc 5 403 0
	mov	w0, w26
	bl	FtlBbmMapBadBlock
.LVL1323:
	.loc 5 404 0
	bl	FtlBbmTblFlush
.LVL1324:
	.loc 5 405 0
	ldrh	w1, [x22]
	.loc 5 406 0
	sxtw	x3, w27
	and	x4, x20, 65535
	.loc 5 405 0
	mov	x0, 0
.LVL1325:
.L965:
	add	w2, w20, w0
	cmp	w1, w2, uxth
	bhi	.L966
	.loc 5 407 0
	sub	w1, w1, #1
	strh	w1, [x22]
.LVL1326:
.L964:
	.loc 5 398 0
	and	w20, w27, 65535
.LVL1327:
	b	.L963
.LVL1328:
.L966:
	.loc 5 406 0
	add	x2, x3, x0
	ldrh	w5, [x24, x2, lsl 1]
	add	x2, x4, x0
	add	x0, x0, 1
.LVL1329:
	strh	w5, [x24, x2, lsl 1]
	b	.L965
.LBE290:
.LBE292:
	.cfi_endproc
.LFE317:
	.size	FtlGcFreeBadSuperBlk, .-FtlGcFreeBadSuperBlk
	.section	.text.update_vpc_list,"ax",@progbits
	.align	2
	.global	update_vpc_list
	.type	update_vpc_list, %function
update_vpc_list:
.LFB301:
	.loc 2 2738 0
	.cfi_startproc
.LVL1330:
	stp	x29, x30, [sp, -32]!
	.cfi_def_cfa_offset 32
	.cfi_offset 29, -32
	.cfi_offset 30, -24
	.loc 2 2739 0
	adrp	x1, .LANCHOR42
	.loc 2 2738 0
	add	x29, sp, 0
	.cfi_def_cfa_register 29
	stp	x19, x20, [sp, 16]
	.cfi_offset 19, -16
	.cfi_offset 20, -8
	.loc 2 2738 0
	and	w19, w0, 65535
	.loc 2 2739 0
	ldr	x1, [x1, #:lo12:.LANCHOR42]
	ubfiz	x0, x19, 1, 16
.LVL1331:
	ldrh	w0, [x1, x0]
	cbnz	w0, .L974
	.loc 2 2740 0
	adrp	x0, .LANCHOR80
	ldrh	w1, [x0, #:lo12:.LANCHOR80]
	cmp	w1, w19
	bne	.L975
	.loc 2 2742 0
	mov	w1, -1
	strh	w1, [x0, #:lo12:.LANCHOR80]
.L976:
.LVL1332:
.LBB295:
.LBB296:
	.loc 2 2747 0
	adrp	x20, .LANCHOR45
	mov	w1, w19
	adrp	x0, .LANCHOR41
	add	x0, x0, :lo12:.LANCHOR41
	bl	List_remove_node
.LVL1333:
	ldrh	w0, [x20, #:lo12:.LANCHOR45]
	cbnz	w0, .L978
	adrp	x1, .LANCHOR158
	adrp	x0, .LC1
	mov	w2, 2747
	add	x1, x1, :lo12:.LANCHOR158
	add	x0, x0, :lo12:.LC1
	bl	printf
.LVL1334:
.L978:
	ldrh	w0, [x20, #:lo12:.LANCHOR45]
	sub	w0, w0, #1
	strh	w0, [x20, #:lo12:.LANCHOR45]
	.loc 2 2748 0
	mov	w0, w19
	bl	free_data_superblock
.LVL1335:
	.loc 2 2749 0
	mov	w0, w19
	bl	FtlGcFreeBadSuperBlk
.LVL1336:
	.loc 2 2750 0
	adrp	x0, .LANCHOR48
	ldrh	w1, [x20, #:lo12:.LANCHOR45]
	ldrh	w0, [x0, #:lo12:.LANCHOR48]
	add	w0, w0, w1
	adrp	x1, .LANCHOR5
	ldrh	w1, [x1, #:lo12:.LANCHOR5]
	cmp	w0, w1
	ble	.L982
	adrp	x1, .LANCHOR158
	adrp	x0, .LC1
	mov	w2, 2750
	add	x1, x1, :lo12:.LANCHOR158
	add	x0, x0, :lo12:.LC1
	bl	printf
.LVL1337:
.L982:
	mov	w0, 1
	b	.L973
.LVL1338:
.L975:
.LBE296:
.LBE295:
	.loc 2 2743 0
	adrp	x0, .LANCHOR51
	ldrh	w0, [x0, #:lo12:.LANCHOR51]
	cmp	w0, w19
	beq	.L981
	.loc 2 2743 0 is_stmt 0 discriminator 1
	adrp	x0, .LANCHOR52
	ldrh	w0, [x0, #:lo12:.LANCHOR52]
	cmp	w0, w19
	beq	.L981
	.loc 2 2743 0 discriminator 2
	adrp	x0, .LANCHOR53
	ldrh	w0, [x0, #:lo12:.LANCHOR53]
	cmp	w0, w19
	bne	.L976
.L981:
	.loc 2 2745 0 is_stmt 1
	mov	w0, 0
.L973:
	.loc 2 2756 0
	ldp	x19, x20, [sp, 16]
.LVL1339:
	ldp	x29, x30, [sp], 32
	.cfi_remember_state
	.cfi_restore 30
	.cfi_restore 29
	.cfi_restore 19
	.cfi_restore 20
	.cfi_def_cfa 31, 0
	ret
.L974:
	.cfi_restore_state
	.loc 2 2753 0
	mov	w0, w19
	bl	List_update_data_list
.LVL1340:
	b	.L981
	.cfi_endproc
.LFE301:
	.size	update_vpc_list, .-update_vpc_list
	.section	.text.decrement_vpc_count,"ax",@progbits
	.align	2
	.global	decrement_vpc_count
	.type	decrement_vpc_count, %function
decrement_vpc_count:
.LFB302:
	.loc 2 2759 0
	.cfi_startproc
.LVL1341:
	stp	x29, x30, [sp, -48]!
	.cfi_def_cfa_offset 48
	.cfi_offset 29, -48
	.cfi_offset 30, -40
	add	x29, sp, 0
	.cfi_def_cfa_register 29
	stp	x19, x20, [sp, 16]
	.cfi_offset 19, -32
	.cfi_offset 20, -24
	and	w19, w0, 65535
	str	x21, [sp, 32]
	.cfi_offset 21, -16
	.loc 2 2762 0
	mov	w0, 65535
.LVL1342:
	cmp	w19, w0
	beq	.L985
	.loc 2 2763 0
	adrp	x21, .LANCHOR42
	ubfiz	x20, x19, 1, 16
	ldr	x1, [x21, #:lo12:.LANCHOR42]
	ldrh	w0, [x1, x20]
	cbnz	w0, .L986
	.loc 2 2764 0
	mov	w2, 0
	mov	w1, w19
	adrp	x0, .LC101
	add	x0, x0, :lo12:.LC101
	bl	printf
.LVL1343:
	.loc 2 2765 0
	ldr	x0, [x21, #:lo12:.LANCHOR42]
	ldrh	w0, [x0, x20]
	cbz	w0, .L987
.L992:
.LVL1344:
	.loc 2 2766 0 discriminator 1
	mov	w20, 0
.LVL1345:
.L984:
	.loc 2 2784 0
	mov	w0, w20
	ldr	x21, [sp, 32]
	ldp	x19, x20, [sp, 16]
.LVL1346:
	ldp	x29, x30, [sp], 48
	.cfi_remember_state
	.cfi_restore 30
	.cfi_restore 29
	.cfi_restore 21
	.cfi_restore 19
	.cfi_restore 20
	.cfi_def_cfa 31, 0
	ret
.LVL1347:
.L987:
	.cfi_restore_state
	.loc 2 2765 0 discriminator 1
	mov	w2, 2765
	adrp	x1, .LANCHOR159
	adrp	x0, .LC1
	add	x1, x1, :lo12:.LANCHOR159
	add	x0, x0, :lo12:.LC1
	bl	printf
.LVL1348:
	b	.L992
.L986:
	.loc 2 2768 0
	sub	w0, w0, #1
	strh	w0, [x1, x20]
.L985:
	.loc 2 2772 0
	adrp	x21, .LANCHOR150
	mov	w1, 65535
	ldrh	w0, [x21, #:lo12:.LANCHOR150]
	cmp	w0, w1
	bne	.L989
	.loc 2 2773 0
	strh	w19, [x21, #:lo12:.LANCHOR150]
	b	.L992
.L989:
	.loc 2 2775 0
	cmp	w19, w0
	beq	.L992
	.loc 2 2778 0
	bl	update_vpc_list
.LVL1349:
	cmp	w0, 0
	.loc 2 2781 0
	adrp	x1, .LANCHOR40
	adrp	x0, .LANCHOR41
	.loc 2 2780 0
	strh	w19, [x21, #:lo12:.LANCHOR150]
	.loc 2 2778 0
	cset	w20, ne
.LVL1350:
	.loc 2 2781 0
	ldr	x1, [x1, #:lo12:.LANCHOR40]
	ldr	x0, [x0, #:lo12:.LANCHOR41]
	sub	x0, x0, x1
	mov	x1, -6148914691236517206
	asr	x0, x0, 1
	movk	x1, 0xaaab, lsl 0
	mul	x0, x0, x1
	adrp	x1, .LANCHOR42
	ldr	x1, [x1, #:lo12:.LANCHOR42]
	and	x2, x0, 65535
	ldrh	w1, [x1, x2, lsl 1]
	cbnz	w1, .L984
	.loc 2 2781 0 is_stmt 0 discriminator 1
	cmp	w19, w0, uxth
	beq	.L984
	.loc 2 2781 0 discriminator 2
	mov	w2, 2781
	adrp	x1, .LANCHOR159
	adrp	x0, .LC1
	add	x1, x1, :lo12:.LANCHOR159
	add	x0, x0, :lo12:.LC1
	bl	printf
.LVL1351:
	b	.L984
	.cfi_endproc
.LFE302:
	.size	decrement_vpc_count, .-decrement_vpc_count
	.section	.text.FtlWriteDump_data,"ax",@progbits
	.align	2
	.global	FtlWriteDump_data
	.type	FtlWriteDump_data, %function
FtlWriteDump_data:
.LFB268:
	.loc 2 996 0 is_stmt 1
	.cfi_startproc
	stp	x29, x30, [sp, -128]!
	.cfi_def_cfa_offset 128
	.cfi_offset 29, -128
	.cfi_offset 30, -120
	add	x29, sp, 0
	.cfi_def_cfa_register 29
	stp	x19, x20, [sp, 16]
	.cfi_offset 19, -112
	.cfi_offset 20, -104
	.loc 2 997 0
	adrp	x19, .LANCHOR51
	add	x0, x19, :lo12:.LANCHOR51
	.loc 2 996 0
	stp	x21, x22, [sp, 32]
	stp	x23, x24, [sp, 48]
	.loc 2 997 0
	ldrh	w2, [x0, 4]
	.loc 2 996 0
	str	x25, [sp, 64]
	.cfi_offset 21, -96
	.cfi_offset 22, -88
	.cfi_offset 23, -80
	.cfi_offset 24, -72
	.cfi_offset 25, -64
	.loc 2 997 0
	cbz	w2, .L994
	.loc 2 997 0 is_stmt 0 discriminator 1
	ldrb	w1, [x0, 8]
	cbnz	w1, .L994
	.loc 2 998 0 is_stmt 1
	adrp	x3, .LANCHOR19
	ldrb	w1, [x0, 7]
	ldrh	w3, [x3, #:lo12:.LANCHOR19]
	mul	w1, w1, w3
	cmp	w2, w1
	beq	.L994
.LVL1352:
.LBB300:
.LBB301:
	.loc 2 1005 0
	ldrb	w0, [x0, 10]
	cbnz	w0, .L993
	.loc 2 1000 0
	adrp	x0, .LANCHOR61
	.loc 2 1007 0
	mov	w2, 0
	add	x1, x29, 92
	.loc 2 1000 0
	ldr	w21, [x0, #:lo12:.LANCHOR61]
	.loc 2 1002 0
	adrp	x0, .LANCHOR3
	.loc 2 1000 0
	sub	w21, w21, #1
	.loc 2 1002 0
	ldrh	w25, [x0, #:lo12:.LANCHOR3]
	.loc 2 1007 0
	mov	w0, w21
	bl	log2phys
.LVL1353:
	.loc 2 1013 0
	adrp	x2, .LANCHOR108
	.loc 2 1012 0
	adrp	x0, .LANCHOR107
	.loc 2 1010 0
	ldr	w1, [x29, 92]
	.loc 2 1013 0
	ldr	x20, [x2, #:lo12:.LANCHOR108]
	.loc 2 1012 0
	ldr	x0, [x0, #:lo12:.LANCHOR107]
	.loc 2 1016 0
	cmn	w1, #1
	.loc 2 1010 0
	str	w1, [x29, 100]
	.loc 2 1013 0
	stp	x0, x20, [x29, 104]
.LVL1354:
	.loc 2 1011 0
	str	w21, [x29, 120]
	.loc 2 1015 0
	str	wzr, [x20, 4]
	.loc 2 1016 0
	beq	.L996
	.loc 2 1018 0
	mov	w2, 0
	mov	w1, 1
	add	x0, x29, 96
	bl	FlashReadPages
.LVL1355:
.L997:
	.loc 2 1036 0
	adrp	x23, .LANCHOR71
	.loc 2 1002 0
	lsl	w25, w25, 2
.LVL1356:
	.loc 2 1027 0
	add	x22, x19, :lo12:.LANCHOR51
	.loc 2 1036 0
	add	x23, x23, :lo12:.LANCHOR71
	.loc 2 1024 0
	mov	w0, -3947
	mov	w24, 0
	strh	w0, [x20]
.L998:
	.loc 2 1025 0
	cmp	w25, w24
	bne	.L1002
.L999:
	.loc 2 1041 0
	add	x19, x19, :lo12:.LANCHOR51
	mov	w0, 1
	strb	w0, [x19, 10]
.LVL1357:
.L993:
.LBE301:
.LBE300:
	.loc 2 1049 0
	ldp	x19, x20, [sp, 16]
	ldp	x21, x22, [sp, 32]
	ldp	x23, x24, [sp, 48]
	ldr	x25, [sp, 64]
	ldp	x29, x30, [sp], 128
	.cfi_remember_state
	.cfi_restore 30
	.cfi_restore 29
	.cfi_restore 25
	.cfi_restore 23
	.cfi_restore 24
	.cfi_restore 21
	.cfi_restore 22
	.cfi_restore 19
	.cfi_restore 20
	.cfi_def_cfa 31, 0
	ret
.LVL1358:
.L996:
	.cfi_restore_state
.LBB303:
.LBB302:
	.loc 2 1022 0
	adrp	x1, .LANCHOR23
	ldrh	w2, [x1, #:lo12:.LANCHOR23]
	mov	w1, 255
	bl	ftl_memset
.LVL1359:
	b	.L997
.LVL1360:
.L1002:
	.loc 2 1027 0
	ldrh	w0, [x22, 4]
	cbz	w0, .L999
	.loc 2 1032 0
	ldr	w0, [x29, 100]
	add	w24, w24, 1
	stp	w21, w0, [x20, 8]
	.loc 2 1033 0
	ldrh	w0, [x22]
	strh	w0, [x20, 2]
	.loc 2 1035 0
	mov	x0, x22
	bl	get_new_active_ppa
.LVL1361:
	str	w0, [x29, 100]
	.loc 2 1036 0
	ldr	w0, [x23]
	.loc 2 1037 0
	mov	w3, 0
	.loc 2 1036 0
	str	w0, [x20, 4]
	.loc 2 1037 0
	mov	w2, 0
	.loc 2 1036 0
	add	w0, w0, 1
	.loc 2 1037 0
	mov	w1, 1
	.loc 2 1036 0
	cmn	w0, #1
	csel	w0, w0, wzr, ne
	str	w0, [x23]
	.loc 2 1037 0
	add	x0, x29, 96
	bl	FlashProgPages
.LVL1362:
	.loc 2 1039 0
	ldrh	w0, [x22]
	bl	decrement_vpc_count
.LVL1363:
	b	.L998
.LVL1364:
.L994:
.LBE302:
.LBE303:
	.loc 2 1047 0
	add	x19, x19, :lo12:.LANCHOR51
	strb	wzr, [x19, 10]
	.loc 2 1049 0
	b	.L993
	.cfi_endproc
.LFE268:
	.size	FtlWriteDump_data, .-FtlWriteDump_data
	.section	.text.l2p_flush,"ax",@progbits
	.align	2
	.global	l2p_flush
	.type	l2p_flush, %function
l2p_flush:
.LFB261:
	.loc 2 789 0
	.cfi_startproc
	stp	x29, x30, [sp, -48]!
	.cfi_def_cfa_offset 48
	.cfi_offset 29, -48
	.cfi_offset 30, -40
	add	x29, sp, 0
	.cfi_def_cfa_register 29
	stp	x19, x20, [sp, 16]
	.cfi_offset 19, -32
	.cfi_offset 20, -24
	.loc 2 795 0
	adrp	x20, .LANCHOR33
	add	x20, x20, :lo12:.LANCHOR33
	.loc 2 789 0
	str	x21, [sp, 32]
	.cfi_offset 21, -16
	.loc 2 795 0
	mov	w19, 0
	.loc 2 796 0
	adrp	x21, .LANCHOR55
	.loc 2 793 0
	bl	FtlWriteDump_data
.LVL1365:
.L1012:
	.loc 2 795 0 discriminator 1
	ldrh	w0, [x20]
	cmp	w0, w19
	bhi	.L1014
	.loc 2 799 0
	mov	w0, 0
	ldr	x21, [sp, 32]
	ldp	x19, x20, [sp, 16]
.LVL1366:
	ldp	x29, x30, [sp], 48
	.cfi_remember_state
	.cfi_restore 30
	.cfi_restore 29
	.cfi_restore 21
	.cfi_restore 19
	.cfi_restore 20
	.cfi_def_cfa 31, 0
	ret
.LVL1367:
.L1014:
	.cfi_restore_state
	.loc 2 796 0
	ldr	x1, [x21, #:lo12:.LANCHOR55]
	ubfiz	x0, x19, 4, 16
	add	x0, x1, x0
	ldr	w0, [x0, 4]
	tbz	w0, #31, .L1013
	.loc 2 797 0
	mov	w0, w19
	bl	flush_l2p_region
.LVL1368:
.L1013:
	.loc 2 795 0 discriminator 2
	add	w19, w19, 1
.LVL1369:
	and	w19, w19, 65535
.LVL1370:
	b	.L1012
	.cfi_endproc
.LFE261:
	.size	l2p_flush, .-l2p_flush
	.section	.text.FtlRecoverySuperblock,"ax",@progbits
	.align	2
	.global	FtlRecoverySuperblock
	.type	FtlRecoverySuperblock, %function
FtlRecoverySuperblock:
.LFB281:
	.loc 2 1705 0
	.cfi_startproc
.LVL1371:
	stp	x29, x30, [sp, -192]!
	.cfi_def_cfa_offset 192
	.cfi_offset 29, -192
	.cfi_offset 30, -184
	.loc 2 1719 0
	mov	w1, 65535
	.loc 2 1705 0
	add	x29, sp, 0
	.cfi_def_cfa_register 29
	stp	x19, x20, [sp, 16]
	.cfi_offset 19, -176
	.cfi_offset 20, -168
	mov	x19, x0
	stp	x21, x22, [sp, 32]
	.loc 2 1719 0
	ldrh	w0, [x0]
.LVL1372:
	.loc 2 1705 0
	stp	x23, x24, [sp, 48]
	stp	x25, x26, [sp, 64]
	.loc 2 1719 0
	cmp	w0, w1
	.loc 2 1705 0
	stp	x27, x28, [sp, 80]
	.cfi_offset 21, -160
	.cfi_offset 22, -152
	.cfi_offset 23, -144
	.cfi_offset 24, -136
	.cfi_offset 25, -128
	.cfi_offset 26, -120
	.cfi_offset 27, -112
	.cfi_offset 28, -104
	.loc 2 1719 0
	beq	.L1140
	.loc 2 1725 0
	ldrb	w0, [x19, 6]
	str	w0, [x29, 164]
	.loc 2 1730 0
	adrp	x0, .LANCHOR19
	.loc 2 1724 0
	ldrh	w26, [x19, 2]
.LVL1373:
	str	x0, [x29, 128]
	.loc 2 1730 0
	ldrh	w2, [x0, #:lo12:.LANCHOR19]
	cmp	w2, w26
	bne	.L1019
	.loc 2 1731 0
	strh	wzr, [x19, 4]
.LVL1374:
.L1146:
	.loc 2 1758 0
	strb	wzr, [x19, 6]
.LVL1375:
.L1140:
	.loc 2 2059 0
	ldp	x19, x20, [sp, 16]
.LVL1376:
	mov	w0, 0
	ldp	x21, x22, [sp, 32]
	ldp	x23, x24, [sp, 48]
	ldp	x25, x26, [sp, 64]
	ldp	x27, x28, [sp, 80]
	ldp	x29, x30, [sp], 192
	.cfi_remember_state
	.cfi_restore 30
	.cfi_restore 29
	.cfi_restore 27
	.cfi_restore 28
	.cfi_restore 25
	.cfi_restore 26
	.cfi_restore 23
	.cfi_restore 24
	.cfi_restore 21
	.cfi_restore 22
	.cfi_restore 19
	.cfi_restore 20
	.cfi_def_cfa 31, 0
	ret
.LVL1377:
.L1019:
	.cfi_restore_state
	.loc 2 1738 0
	ldrh	w0, [x19, 16]
.LVL1378:
	.loc 2 1737 0
	mov	w20, 0
.LVL1379:
.L1020:
	.loc 2 1739 0
	cmp	w0, w1
	beq	.L1021
	.loc 2 1746 0
	mov	w1, 1
	bl	FtlGetLastWrittenPage
.LVL1380:
	mov	w23, w0
.LVL1381:
	.loc 2 1754 0
	cmn	w0, #1
	beq	.L1022
	.loc 2 1770 0
	adrp	x1, .LANCHOR91
	.loc 2 1766 0
	adrp	x2, .LANCHOR3
	.loc 2 1769 0
	adrp	x20, .LANCHOR120
.LVL1382:
	.loc 2 1771 0
	add	x4, x19, 16
	.loc 2 1770 0
	ldr	x5, [x1, #:lo12:.LANCHOR91]
	adrp	x1, .LANCHOR23
	.loc 2 1769 0
	ldr	x0, [x20, #:lo12:.LANCHOR120]
.LVL1383:
	.loc 2 1771 0
	mov	w22, 0
	.loc 2 1770 0
	ldrh	w6, [x1, #:lo12:.LANCHOR23]
	.loc 2 1771 0
	adrp	x1, .LANCHOR92
	.loc 2 1768 0
	mov	w10, 65535
	str	x2, [x29, 152]
	.loc 2 1771 0
	ldr	x7, [x1, #:lo12:.LANCHOR92]
	adrp	x1, .LANCHOR24
	ldrh	w8, [x1, #:lo12:.LANCHOR24]
	add	x1, x19, 16
	str	x1, [x29, 168]
	ldrh	w1, [x2, #:lo12:.LANCHOR3]
	add	x1, x1, 8
	add	x1, x19, x1, lsl 1
.L1023:
.LVL1384:
	.loc 2 1766 0 discriminator 1
	cmp	x4, x1
	bne	.L1027
	.loc 2 1776 0
	mov	w2, 0
	mov	w1, w22
	bl	FlashReadPages
.LVL1385:
	.loc 2 1777 0
	adrp	x0, .LANCHOR71
	.loc 2 1779 0
	ldr	x4, [x20, #:lo12:.LANCHOR120]
	.loc 2 1791 0
	and	w10, w23, 65535
	.loc 2 1782 0
	add	x7, x0, :lo12:.LANCHOR71
	.loc 2 1777 0
	ldr	w21, [x0, #:lo12:.LANCHOR71]
	mov	x11, x4
	.loc 2 1715 0
	mov	w6, 65535
	.loc 2 1778 0
	mov	w3, 0
	.loc 2 1777 0
	sub	w21, w21, #1
.LVL1386:
	str	x0, [x29, 144]
.LVL1387:
.L1028:
	.loc 2 1778 0 discriminator 1
	cmp	w22, w3
	bne	.L1033
	.loc 2 1796 0
	add	w22, w23, 1
.LVL1388:
	.loc 2 1798 0
	ldr	w0, [x4, 4]
	.loc 2 1796 0
	and	w22, w22, 65535
.LVL1389:
.L1142:
	.loc 2 1802 0
	lsr	w0, w0, 10
	bl	P2V_plane
.LVL1390:
	and	w27, w0, 65535
.LVL1391:
	.loc 2 1807 0
	ldr	x0, [x29, 128]
	ldrh	w0, [x0, #:lo12:.LANCHOR19]
	cmp	w0, w22
	bne	.L1035
	.loc 2 1808 0
	strh	w22, [x19, 2]
	.loc 2 1809 0
	strb	wzr, [x19, 6]
	.loc 2 1810 0
	strh	wzr, [x19, 4]
.L1035:
	.loc 2 1813 0
	ldr	w0, [x29, 164]
	cmp	w22, w26
	cset	w1, eq
	cmp	w27, w0
	cset	w0, eq
	tst	w1, w0
	beq	.L1036
.LVL1392:
.L1147:
	.loc 2 2053 0
	mov	w2, w27
	mov	w1, w22
	mov	x0, x19
	bl	ftl_sb_update_avl_pages
.LVL1393:
	b	.L1140
.LVL1394:
.L1021:
	.loc 2 1740 0
	add	w20, w20, 1
.LVL1395:
	and	w20, w20, 65535
.LVL1396:
	.loc 2 1741 0
	add	x0, x19, x20, sxtw 1
.LVL1397:
	ldrh	w0, [x0, 16]
.LVL1398:
	b	.L1020
.LVL1399:
.L1022:
	.loc 2 1755 0
	cbz	w26, .L1024
	.loc 2 1755 0 is_stmt 0 discriminator 1
	adrp	x1, .LANCHOR160
	adrp	x0, .LC1
.LVL1400:
	mov	w2, 1755
	add	x1, x1, :lo12:.LANCHOR160
	add	x0, x0, :lo12:.LC1
	bl	printf
.LVL1401:
.L1024:
	.loc 2 1756 0 is_stmt 1
	ldr	w0, [x29, 164]
	cmp	w0, 0
	ccmp	w20, w0, 4, ne
	beq	.L1025
	.loc 2 1756 0 is_stmt 0 discriminator 1
	adrp	x1, .LANCHOR160
	adrp	x0, .LC1
	mov	w2, 1756
	add	x1, x1, :lo12:.LANCHOR160
	add	x0, x0, :lo12:.LC1
	bl	printf
.LVL1402:
.L1025:
	.loc 2 1757 0 is_stmt 1
	strh	wzr, [x19, 2]
	b	.L1146
.LVL1403:
.L1027:
	.loc 2 1767 0
	ldrh	w3, [x4]
.LVL1404:
	.loc 2 1768 0
	cmp	w3, w10
	beq	.L1026
	.loc 2 1769 0
	ubfiz	x2, x22, 5, 16
	orr	w3, w23, w3, lsl 10
.LVL1405:
	add	x2, x0, x2
	str	w3, [x2, 4]
	.loc 2 1770 0
	mul	w3, w22, w6
	asr	w3, w3, 2
	add	x3, x5, x3, sxtw 2
	str	x3, [x2, 8]
	.loc 2 1771 0
	mul	w3, w22, w8
	.loc 2 1772 0
	add	w22, w22, 1
.LVL1406:
	and	w22, w22, 65535
.LVL1407:
	.loc 2 1771 0
	asr	w3, w3, 2
	add	x3, x7, x3, sxtw 2
	str	x3, [x2, 16]
.L1026:
	add	x4, x4, 2
.LVL1408:
	b	.L1023
.LVL1409:
.L1033:
	.loc 2 1779 0
	ldr	w0, [x11]
	cbnz	w0, .L1029
	.loc 2 1780 0
	ldr	x8, [x11, 16]
.LVL1410:
	.loc 2 1781 0
	ldr	w5, [x8, 4]
	cmn	w5, #1
	beq	.L1030
	.loc 2 1782 0
	ldr	w1, [x7]
	mov	w0, w5
	bl	ftl_cmp_data_ver
.LVL1411:
	cbz	w0, .L1030
	.loc 2 1784 0
	add	w5, w5, 1
	str	w5, [x7]
.L1030:
	.loc 2 1787 0
	ldr	w0, [x8]
	cmn	w0, #1
	bne	.L1032
	.loc 2 1802 0
	ubfiz	x3, x3, 5, 16
.LVL1412:
	.loc 2 1801 0
	and	w22, w23, 65535
.LVL1413:
	.loc 2 1802 0
	add	x3, x4, x3
	ldr	w0, [x3, 4]
	b	.L1142
.LVL1414:
.L1029:
	.loc 2 1791 0
	mov	w6, w10
.LVL1415:
.L1032:
	.loc 2 1778 0 discriminator 2
	add	w3, w3, 1
.LVL1416:
	add	x11, x11, 32
	and	w3, w3, 65535
.LVL1417:
	b	.L1028
.LVL1418:
.L1036:
	.loc 2 1819 0
	mov	w0, 65535
	cmp	w6, w0
	bne	.L1037
	.loc 2 1819 0 is_stmt 0 discriminator 1
	ldrb	w0, [x19, 8]
	cbnz	w0, .L1038
.L1037:
.LVL1419:
.LBB304:
	.loc 2 1824 0 is_stmt 1
	adrp	x25, .LANCHOR153
	.loc 2 1823 0
	and	w28, w23, 65535
.LVL1420:
	.loc 2 1824 0
	ldr	w0, [x25, #:lo12:.LANCHOR153]
	cmn	w0, #1
	bne	.L1039
	.loc 2 1825 0
	str	w21, [x25, #:lo12:.LANCHOR153]
.L1039:
.LVL1421:
	.loc 2 1827 0
	add	w0, w26, 7
	cmp	w0, w23, uxth
	bge	.L1089
	.loc 2 1828 0
	sub	w24, w28, #7
	and	w24, w24, 65535
.LVL1422:
.L1040:
	.loc 2 1831 0 discriminator 1
	ldr	x0, [x29, 152]
	.loc 2 1833 0 discriminator 1
	mov	w3, 65535
	mov	w5, 1
	.loc 2 1831 0 discriminator 1
	add	x4, x0, :lo12:.LANCHOR3
.LVL1423:
.L1041:
	.loc 2 1829 0 discriminator 1
	cmp	w24, w28
	bhi	.L1051
	ldrh	w1, [x4]
	.loc 2 1834 0
	mov	w23, 0
	ldr	x0, [x20, #:lo12:.LANCHOR120]
	add	x1, x1, 8
	ldr	x2, [x29, 168]
	add	x1, x19, x1, lsl 1
	b	.L1052
.LVL1424:
.L1089:
	mov	w24, w26
	b	.L1040
.LVL1425:
.L1043:
	.loc 2 1832 0
	ldrh	w6, [x2]
.LVL1426:
	.loc 2 1833 0
	cmp	w6, w3
	beq	.L1042
	.loc 2 1834 0
	ubfiz	x7, x23, 5, 16
	.loc 2 1835 0
	add	w23, w23, 1
.LVL1427:
	.loc 2 1834 0
	add	x7, x0, x7
	.loc 2 1835 0
	and	w23, w23, 65535
.LVL1428:
	.loc 2 1834 0
	orr	w6, w24, w6, lsl 10
.LVL1429:
	str	w6, [x7, 4]
.L1042:
	add	x2, x2, 2
.LVL1430:
.L1052:
	.loc 2 1831 0 discriminator 1
	cmp	x2, x1
	bne	.L1043
	.loc 2 1838 0
	mov	w1, w23
	mov	w2, 0
	str	w5, [x29, 112]
	ubfiz	x23, x23, 5, 16
.LVL1431:
	str	w3, [x29, 120]
	add	x23, x23, 16
	str	x4, [x29, 136]
	bl	FlashReadPages
.LVL1432:
	.loc 2 1840 0
	ldr	x2, [x20, #:lo12:.LANCHOR120]
	ldr	w1, [x25, #:lo12:.LANCHOR153]
	.loc 2 1839 0
	ldr	w5, [x29, 112]
	add	x0, x2, 16
	ldr	w3, [x29, 120]
	add	x23, x2, x23
	ldr	x4, [x29, 136]
	mov	w2, 0
.LVL1433:
.L1044:
	.loc 2 1839 0 is_stmt 0 discriminator 1
	cmp	x23, x0
	bne	.L1049
	cbz	w2, .L1050
	str	w1, [x25, #:lo12:.LANCHOR153]
.L1050:
	.loc 2 1829 0 is_stmt 1
	add	w24, w24, 1
.LVL1434:
	and	w24, w24, 65535
.LVL1435:
	b	.L1041
.L1049:
	.loc 2 1840 0
	ldr	w6, [x0, -16]
	cbz	w6, .L1045
	cbz	w2, .L1038
	str	w1, [x25, #:lo12:.LANCHOR153]
.LVL1436:
.L1038:
.LBE304:
	.loc 2 1863 0
	mov	w1, 1
	adrp	x0, .LANCHOR161
	.loc 2 1864 0
	mov	w23, w26
	.loc 2 2024 0
	adrp	x28, .LANCHOR153
	.loc 2 1863 0
	strh	w1, [x0, #:lo12:.LANCHOR161]
	.loc 2 1864 0
	adrp	x0, .LANCHOR144
	add	x0, x0, :lo12:.LANCHOR144
	bl	FtlMapBlkWriteDump_data
.LVL1437:
.LBB305:
	.loc 2 1946 0
	add	x0, x28, :lo12:.LANCHOR153
	str	x0, [x29, 104]
.LVL1438:
.L1053:
	ldr	x1, [x29, 152]
.LBE305:
	.loc 2 1869 0
	mov	w24, 0
	.loc 2 1873 0
	ldr	x0, [x20, #:lo12:.LANCHOR120]
	.loc 2 1872 0
	mov	w5, 65535
	.loc 2 1870 0
	ldr	x2, [x29, 168]
	ldrh	w1, [x1, #:lo12:.LANCHOR3]
	add	x1, x1, 8
	add	x1, x19, x1, lsl 1
.LVL1439:
.L1054:
	.loc 2 1870 0 is_stmt 0 discriminator 1
	cmp	x1, x2
	bne	.L1056
	.loc 2 1877 0 is_stmt 1
	mov	w2, 0
	mov	w1, w24
	bl	FlashReadPages
.LVL1440:
	.loc 2 1878 0
	mov	x25, 0
	ubfiz	x0, x24, 5, 16
	str	x0, [x29, 112]
	.loc 2 2018 0
	adrp	x0, .LANCHOR162
	add	x0, x0, :lo12:.LANCHOR162
	str	x0, [x29, 120]
.LVL1441:
.L1057:
	.loc 2 1878 0 discriminator 1
	ldr	x0, [x29, 112]
	cmp	x25, x0
	bne	.L1083
	.loc 2 2032 0
	ldr	x0, [x29, 128]
	.loc 2 2031 0
	add	w23, w23, 1
.LVL1442:
	and	w23, w23, 65535
.LVL1443:
	.loc 2 2032 0
	ldrh	w0, [x0, #:lo12:.LANCHOR19]
	cmp	w0, w23
	bne	.L1053
	.loc 2 2035 0
	ldr	x0, [x29, 152]
	.loc 2 2037 0
	mov	w2, 65535
	.loc 2 2033 0
	strh	w23, [x19, 2]
	.loc 2 2034 0
	strh	wzr, [x19, 4]
.LVL1444:
	.loc 2 2035 0
	ldrh	w1, [x0, #:lo12:.LANCHOR3]
	mov	w0, 0
.LVL1445:
.L1084:
	.loc 2 2035 0 is_stmt 0 discriminator 1
	cmp	w0, w1
	beq	.L1140
.LVL1446:
	.loc 2 2037 0 is_stmt 1
	ldr	x4, [x29, 168]
	ldrh	w3, [x4], 2
	str	x4, [x29, 168]
.LVL1447:
	cmp	w3, w2
	beq	.L1085
	.loc 2 2038 0
	strb	w0, [x19, 6]
.LVL1448:
	.loc 2 2039 0
	b	.L1140
.LVL1449:
.L1045:
.LBB306:
	.loc 2 1841 0
	ldr	x6, [x0]
.LVL1450:
	.loc 2 1842 0
	ldrh	w7, [x6]
	cmp	w7, w3
	beq	.L1048
	.loc 2 1844 0
	ldr	w6, [x6, 4]
.LVL1451:
	cmn	w6, #1
	csel	w1, w1, w6, eq
	csel	w2, w2, w5, eq
.L1048:
	add	x0, x0, 32
.LVL1452:
	b	.L1044
.LVL1453:
.L1051:
	.loc 2 1858 0
	mov	w0, -1
	str	w0, [x25, #:lo12:.LANCHOR153]
	b	.L1038
.LVL1454:
.L1056:
.LBE306:
	.loc 2 1871 0
	ldrh	w3, [x2]
.LVL1455:
	.loc 2 1872 0
	cmp	w3, w5
	beq	.L1055
	.loc 2 1873 0
	ubfiz	x4, x24, 5, 16
	.loc 2 1874 0
	add	w24, w24, 1
.LVL1456:
	.loc 2 1873 0
	add	x4, x0, x4
	.loc 2 1874 0
	and	w24, w24, 65535
.LVL1457:
	.loc 2 1873 0
	orr	w3, w23, w3, lsl 10
.LVL1458:
	str	w3, [x4, 4]
.L1055:
	add	x2, x2, 2
.LVL1459:
	b	.L1054
.LVL1460:
.L1083:
	.loc 2 1879 0
	ldr	x4, [x20, #:lo12:.LANCHOR120]
	add	x4, x4, x25
	ldr	w5, [x4, 4]
	str	w5, [x29, 188]
	.loc 2 1880 0
	lsr	w0, w5, 10
	bl	P2V_plane
.LVL1461:
	and	w0, w0, 65535
.LVL1462:
	.loc 2 1882 0
	cmp	w23, w26
	bcc	.L1058
	.loc 2 1882 0 is_stmt 0 discriminator 1
	ldr	w1, [x29, 164]
	ccmp	w1, w0, 0, eq
	bhi	.L1058
	.loc 2 1886 0 is_stmt 1
	cmp	w23, w22
	ccmp	w27, w0, 0, eq
	beq	.L1059
.LVL1463:
	.loc 2 1890 0
	ldr	w0, [x4]
.LVL1464:
	cmn	w0, #1
	beq	.L1060
	.loc 2 1891 0
	ldr	x3, [x4, 16]
.LVL1465:
	.loc 2 1892 0
	mov	w0, 61589
	ldrh	w1, [x3]
	cmp	w1, w0
	beq	.L1061
.LVL1466:
.L1067:
.LBB307:
	.loc 2 1925 0
	ldrh	w0, [x19]
.LVL1467:
.L1145:
.LBE307:
	.loc 2 2009 0
	bl	decrement_vpc_count
.LVL1468:
.L1058:
	add	x25, x25, 32
	b	.L1057
.LVL1469:
.L1061:
	.loc 2 1898 0
	ldr	w21, [x3, 4]
.LVL1470:
	.loc 2 1899 0
	cmn	w21, #1
	beq	.L1062
	.loc 2 1900 0 discriminator 1
	ldr	x0, [x29, 144]
	ldr	w1, [x0, #:lo12:.LANCHOR71]
	mov	w0, w21
	bl	ftl_cmp_data_ver
.LVL1471:
	.loc 2 1899 0 discriminator 1
	cbz	w0, .L1062
	.loc 2 1902 0
	ldr	x1, [x29, 144]
	add	w0, w21, 1
	str	w0, [x1, #:lo12:.LANCHOR71]
.L1062:
	.loc 2 1907 0
	ldp	w24, w0, [x3, 8]
	.loc 2 1908 0
	add	x1, x29, 184
	.loc 2 1907 0
	str	w0, [x29, 180]
	.loc 2 1908 0
	mov	w2, 0
	mov	w0, w24
	bl	log2phys
.LVL1472:
	.loc 2 1909 0
	ldr	w1, [x28, #:lo12:.LANCHOR153]
	cmn	w1, #1
	beq	.L1063
	.loc 2 1910 0 discriminator 1
	mov	w0, w21
	bl	ftl_cmp_data_ver
.LVL1473:
	.loc 2 1909 0 discriminator 1
	cbz	w0, .L1063
.LBB308:
	.loc 2 1914 0
	ldr	w1, [x29, 180]
	cmn	w1, #1
	beq	.L1064
	.loc 2 1915 0
	ldr	x0, [x20, #:lo12:.LANCHOR120]
	.loc 2 1917 0
	mov	w2, 0
	.loc 2 1915 0
	add	x0, x0, x25
	ldr	x3, [x0, 16]
	.loc 2 1916 0
	str	w1, [x0, 4]
	.loc 2 1917 0
	mov	w1, 1
	.loc 2 1915 0
	str	x3, [x29, 136]
.LVL1474:
	.loc 2 1917 0
	bl	FlashReadPages
.LVL1475:
	.loc 2 1930 0
	ldr	x0, [x20, #:lo12:.LANCHOR120]
	ldr	x3, [x29, 136]
	add	x4, x0, x25
	ldr	w0, [x0, x25]
	cmn	w0, #1
	bne	.L1065
.LVL1476:
.L1066:
	.loc 2 1962 0
	mov	w0, -1
	str	w0, [x29, 180]
	.loc 2 1963 0
	ldrh	w0, [x19]
	bl	decrement_vpc_count
.LVL1477:
.L1074:
.LBE308:
	.loc 2 2003 0
	ldr	w3, [x29, 180]
	cmn	w3, #1
	beq	.L1058
.L1088:
	.loc 2 2005 0
	lsr	w0, w3, 10
	bl	P2V_block_in_plane
.LVL1478:
	and	w24, w0, 65535
	.loc 2 2006 0
	adrp	x0, .LANCHOR5
	.loc 2 2005 0
	mov	w3, w24
.LVL1479:
	.loc 2 2006 0
	ldrh	w0, [x0, #:lo12:.LANCHOR5]
	cmp	w0, w24
	bhi	.L1079
	.loc 2 2006 0 is_stmt 0 discriminator 1
	mov	w2, 2006
	adrp	x1, .LANCHOR160
	adrp	x0, .LC1
	add	x1, x1, :lo12:.LANCHOR160
	add	x0, x0, :lo12:.LC1
	str	w24, [x29, 136]
	bl	printf
.LVL1480:
	ldr	w3, [x29, 136]
.LVL1481:
.L1079:
	.loc 2 2007 0 is_stmt 1
	adrp	x1, .LANCHOR42
	ubfiz	x0, x24, 1, 16
	ldr	x1, [x1, #:lo12:.LANCHOR42]
	ldrh	w0, [x1, x0]
	cbz	w0, .L1080
	.loc 2 2009 0
	mov	w0, w3
	b	.L1145
.LVL1482:
.L1064:
.LBB309:
	.loc 2 1921 0
	ldp	w1, w0, [x29, 184]
	cmp	w1, w0
	bne	.L1067
	.loc 2 1922 0
	mov	w2, 1
	add	x1, x29, 180
	mov	w0, w24
	bl	log2phys
.LVL1483:
	b	.L1067
.LVL1484:
.L1065:
	.loc 2 1930 0 discriminator 1
	ldr	w0, [x3, 8]
	cmp	w24, w0
	bne	.L1066
	.loc 2 1918 0 discriminator 2
	ldr	w0, [x3, 4]
	str	w0, [x29, 136]
.LVL1485:
	str	x3, [x29, 96]
	.loc 2 1931 0 discriminator 2
	uxtw	x1, w0
	ldr	w0, [x28, #:lo12:.LANCHOR153]
	bl	ftl_cmp_data_ver
.LVL1486:
	.loc 2 1930 0 discriminator 2
	cbz	w0, .L1066
	.loc 2 1932 0
	ldp	w0, w1, [x29, 184]
	ldr	x3, [x29, 96]
	cmp	w0, w1
	.loc 2 1934 0
	ldr	w1, [x29, 180]
	.loc 2 1932 0
	bne	.L1069
.L1143:
	.loc 2 1958 0
	mov	w0, w24
	bl	FtlReUsePrevPpa
.LVL1487:
	b	.L1066
.L1069:
	.loc 2 1935 0
	cmp	w0, w1
	beq	.L1066
	.loc 2 1936 0
	cmn	w0, #1
	beq	.L1070
.LVL1488:
	.loc 2 1937 0
	ldr	x3, [x4, 16]
	.loc 2 1939 0
	mov	w2, 0
	.loc 2 1938 0
	str	w0, [x4, 4]
	.loc 2 1939 0
	mov	w1, 1
	.loc 2 1937 0
	str	x3, [x29, 96]
	.loc 2 1939 0
	mov	x0, x4
	bl	FlashReadPages
.LVL1489:
	ldr	x3, [x29, 96]
.LVL1490:
.L1071:
	.loc 2 1944 0
	ldr	x0, [x20, #:lo12:.LANCHOR120]
	ldr	w0, [x0, x25]
	cmn	w0, #1
	beq	.L1072
	.loc 2 1946 0
	ldr	x0, [x29, 104]
	.loc 2 1945 0
	ldr	w3, [x3, 4]
.LVL1491:
	.loc 2 1946 0
	mov	w1, w3
	ldr	w0, [x0]
	bl	ftl_cmp_data_ver
.LVL1492:
	cbz	w0, .L1072
	.loc 2 1947 0
	ldr	w0, [x29, 136]
	mov	w1, w3
	bl	ftl_cmp_data_ver
.LVL1493:
	cbz	w0, .L1066
.LVL1494:
.L1072:
	.loc 2 1958 0
	ldr	w1, [x29, 180]
	b	.L1143
.L1070:
	.loc 2 1941 0
	str	w0, [x4]
	b	.L1071
.L1063:
.LBE309:
	.loc 2 1964 0
	ldp	w1, w0, [x29, 184]
	cmp	w1, w0
	beq	.L1074
	.loc 2 1966 0
	mov	w2, 1
	add	x1, x29, 188
	mov	w0, w24
	bl	log2phys
.LVL1495:
	.loc 2 1967 0
	ldr	w3, [x29, 184]
	cmn	w3, #1
	beq	.L1074
	.loc 2 1967 0 is_stmt 0 discriminator 1
	ldr	w0, [x29, 180]
	cmp	w3, w0
	beq	.L1088
	.loc 2 1968 0 is_stmt 1
	lsr	w0, w3, 10
	bl	P2V_block_in_plane
.LVL1496:
	.loc 2 1970 0
	adrp	x1, .LANCHOR51
	.loc 2 1968 0
	and	w0, w0, 65535
.LVL1497:
	.loc 2 1970 0
	ldrh	w1, [x1, #:lo12:.LANCHOR51]
	cmp	w1, w0
	beq	.L1078
	.loc 2 1971 0 discriminator 1
	adrp	x1, .LANCHOR52
	.loc 2 1970 0 discriminator 1
	ldrh	w1, [x1, #:lo12:.LANCHOR52]
	cmp	w1, w0
	beq	.L1078
	.loc 2 1972 0
	adrp	x1, .LANCHOR53
	.loc 2 1971 0
	ldrh	w1, [x1, #:lo12:.LANCHOR53]
	cmp	w1, w0
	bne	.L1074
.L1078:
.LVL1498:
.LBB310:
	.loc 2 1976 0
	ldr	x0, [x20, #:lo12:.LANCHOR120]
.LVL1499:
	.loc 2 1979 0
	mov	w2, 0
	mov	w1, 1
	.loc 2 1976 0
	ldr	x4, [x0, 16]
	.loc 2 1978 0
	str	w3, [x0, 4]
	.loc 2 1976 0
	str	x4, [x29, 136]
.LVL1500:
	.loc 2 1979 0
	bl	FlashReadPages
.LVL1501:
	.loc 2 1982 0
	ldr	x0, [x20, #:lo12:.LANCHOR120]
	ldr	w0, [x0]
	cmn	w0, #1
	beq	.L1074
	.loc 2 1983 0
	ldr	x4, [x29, 136]
	mov	w0, w21
	ldr	w1, [x4, 4]
	bl	ftl_cmp_data_ver
.LVL1502:
	cbnz	w0, .L1074
	.loc 2 1990 0
	mov	w2, 1
	add	x1, x29, 184
	mov	w0, w24
	bl	log2phys
.LVL1503:
	b	.L1074
.LVL1504:
.L1080:
.LBE310:
	.loc 2 2011 0
	mov	w1, w24
	adrp	x0, .LC102
	add	x0, x0, :lo12:.LC102
	bl	printf
.LVL1505:
	b	.L1058
.LVL1506:
.L1060:
	.loc 2 2018 0
	ldr	x0, [x29, 120]
	ldr	w0, [x0]
	cmp	w0, 31
	bhi	.L1081
	.loc 2 2019 0
	adrp	x1, .LANCHOR163
	add	x1, x1, :lo12:.LANCHOR163
	str	w5, [x1, w0, uxtw 2]
	.loc 2 2020 0
	add	w0, w0, 1
	ldr	x1, [x29, 120]
	str	w0, [x1]
.L1081:
	.loc 2 2022 0
	ldrh	w0, [x19]
	bl	decrement_vpc_count
.LVL1507:
	.loc 2 2024 0
	ldr	w0, [x28, #:lo12:.LANCHOR153]
	cmn	w0, #1
	bne	.L1082
.L1144:
	.loc 2 2027 0
	str	w21, [x28, #:lo12:.LANCHOR153]
	b	.L1058
.L1082:
	.loc 2 2026 0
	cmp	w21, w0
	bcs	.L1058
	b	.L1144
.LVL1508:
.L1085:
	.loc 2 2035 0 discriminator 2
	add	w0, w0, 1
.LVL1509:
	and	w0, w0, 65535
.LVL1510:
	b	.L1084
.LVL1511:
.L1059:
	.loc 2 2051 0
	strb	w27, [x19, 6]
	.loc 2 2052 0
	strh	w22, [x19, 2]
	b	.L1147
	.cfi_endproc
.LFE281:
	.size	FtlRecoverySuperblock, .-FtlRecoverySuperblock
	.section	.text.FtlSuperblockPowerLostFix,"ax",@progbits
	.align	2
	.global	FtlSuperblockPowerLostFix
	.type	FtlSuperblockPowerLostFix, %function
FtlSuperblockPowerLostFix:
.LFB288:
	.loc 2 2205 0
	.cfi_startproc
.LVL1512:
	stp	x29, x30, [sp, -80]!
	.cfi_def_cfa_offset 80
	.cfi_offset 29, -80
	.cfi_offset 30, -72
	.loc 2 2213 0
	adrp	x1, .LANCHOR108
	.loc 2 2205 0
	add	x29, sp, 0
	.cfi_def_cfa_register 29
	stp	x19, x20, [sp, 16]
	.cfi_offset 19, -64
	.cfi_offset 20, -56
	mov	x19, x0
	.loc 2 2211 0
	mov	w0, -1
.LVL1513:
	.loc 2 2213 0
