/*
 * Copyright (c) 2016-2017, Fuzhou Rockchip Electronics Co., Ltd
 *
 * This program is free software; you can redistribute it and/or modify
 * it under the terms of the GNU General Public License as published by
 * the Free Software Foundation; either version 2 of the License, or
 * (at your option) any later version.
 * date: 2018-02-11
 */
	.arch armv7-a
	.eabi_attribute 20, 1
	.eabi_attribute 21, 1
	.eabi_attribute 23, 3
	.eabi_attribute 24, 1
	.eabi_attribute 25, 1
	.eabi_attribute 26, 2
	.eabi_attribute 30, 4
	.eabi_attribute 34, 0
	.eabi_attribute 18, 2
	.file	"rk_zftl_arm_v7.S"
	.section	.text.flash_mem_cmp8,"ax",%progbits
	.align	1
	.syntax unified
	.thumb
	.thumb_func
	.fpu softvfp
	.type	flash_mem_cmp8, %function
flash_mem_cmp8:
	@ args = 0, pretend = 0, frame = 0
	@ frame_needed = 0, uses_anonymous_args = 0
	movs	r3, #0
	push	{r4, r5, lr}
.L2:
	cmp	r3, r2
	bne	.L5
	movs	r0, #0
	pop	{r4, r5, pc}
.L5:
	ldrb	r5, [r0, r3]	@ zero_extendqisi2
	ldrb	r4, [r1, r3]	@ zero_extendqisi2
	adds	r3, r3, #1
	cmp	r5, r4
	beq	.L2
	mov	r0, r3
	pop	{r4, r5, pc}
	.size	flash_mem_cmp8, .-flash_mem_cmp8
	.section	.text.nand_flash_print_info,"ax",%progbits
	.align	1
	.global	nand_flash_print_info
	.syntax unified
	.thumb
	.thumb_func
	.fpu softvfp
	.type	nand_flash_print_info, %function
nand_flash_print_info:
	@ args = 0, pretend = 0, frame = 0
	@ frame_needed = 0, uses_anonymous_args = 0
	@ link register save eliminated.
	bx	lr
	.size	nand_flash_print_info, .-nand_flash_print_info
	.section	.text.FlashTimingCfg,"ax",%progbits
	.align	1
	.global	FlashTimingCfg
	.syntax unified
	.thumb
	.thumb_func
	.fpu softvfp
	.type	FlashTimingCfg, %function
FlashTimingCfg:
	@ args = 0, pretend = 0, frame = 0
	@ frame_needed = 0, uses_anonymous_args = 0
	@ link register save eliminated.
	bx	lr
	.size	FlashTimingCfg, .-FlashTimingCfg
	.section	.text.timer_delay_ns,"ax",%progbits
	.align	1
	.global	timer_delay_ns
	.syntax unified
	.thumb
	.thumb_func
	.fpu softvfp
	.type	timer_delay_ns, %function
timer_delay_ns:
	@ args = 0, pretend = 0, frame = 8
	@ frame_needed = 0, uses_anonymous_args = 0
	@ link register save eliminated.
	lsrs	r0, r0, #4
	sub	sp, sp, #8
	str	r0, [sp, #4]
.L9:
	ldr	r3, [sp, #4]
	subs	r2, r3, #1
	str	r2, [sp, #4]
	cmp	r3, #0
	bne	.L9
	add	sp, sp, #8
	@ sp needed
	bx	lr
	.size	timer_delay_ns, .-timer_delay_ns
	.section	.text.flash_read_status,"ax",%progbits
	.align	1
	.global	flash_read_status
	.syntax unified
	.thumb
	.thumb_func
	.fpu softvfp
	.type	flash_read_status, %function
flash_read_status:
	@ args = 0, pretend = 0, frame = 0
	@ frame_needed = 0, uses_anonymous_args = 0
	push	{r3, lr}
	movs	r3, #112
	mov	r1, r0
	str	r3, [r0, #8]
	movs	r0, #120
	bl	timer_delay_ns
	ldr	r0, [r1]
	uxtb	r0, r0
	pop	{r3, pc}
	.size	flash_read_status, .-flash_read_status
	.section	.text.toshiba_set_rr_para,"ax",%progbits
	.align	1
	.global	toshiba_set_rr_para
	.syntax unified
	.thumb
	.thumb_func
	.fpu softvfp
	.type	toshiba_set_rr_para, %function
toshiba_set_rr_para:
	@ args = 0, pretend = 0, frame = 0
	@ frame_needed = 0, uses_anonymous_args = 0
	push	{r4, r5, r6, r7, r8, lr}
	add	r6, r1, r1, lsl #2
	ldr	r8, .L20+16
	mov	r5, r0
	movs	r4, #0
	ldr	r7, .L20
.L13:
	ldrb	r3, [r8]	@ zero_extendqisi2
	cmp	r4, r3
	bcc	.L17
	pop	{r4, r5, r6, r7, r8, pc}
.L17:
	movs	r3, #85
	movs	r0, #200
	str	r3, [r5, #8]
	ldrsb	r3, [r4, r7]
	str	r3, [r5, #4]
	bl	timer_delay_ns
	ldr	r3, .L20+4
	ldrb	r3, [r3]	@ zero_extendqisi2
	cmp	r3, #34
	bne	.L14
	adds	r3, r4, r6
	add	r3, r3, r7
.L19:
	ldrsb	r3, [r3, #5]
.L18:
	str	r3, [r5]
	adds	r4, r4, #1
	b	.L13
.L14:
	cmp	r3, #35
	bne	.L16
	ldr	r3, .L20+8
	adds	r2, r4, r6
	add	r3, r3, r2
	b	.L19
.L16:
	ldr	r3, .L20+12
	ldrsb	r3, [r3, r1]
	b	.L18
.L21:
	.align	2
.L20:
	.word	.LANCHOR0
	.word	.LANCHOR1
	.word	.LANCHOR2
	.word	.LANCHOR3
	.word	.LANCHOR4
	.size	toshiba_set_rr_para, .-toshiba_set_rr_para
	.section	.text.hynix_set_rr_para,"ax",%progbits
	.align	1
	.syntax unified
	.thumb
	.thumb_func
	.fpu softvfp
	.type	hynix_set_rr_para, %function
hynix_set_rr_para:
	@ args = 0, pretend = 0, frame = 0
	@ frame_needed = 0, uses_anonymous_args = 0
	ldr	r3, .L25
	push	{r4, r5, r6, r7, r8, lr}
	lsls	r7, r0, #8
	ldr	r2, .L25+4
	ldr	r3, [r3]
	ldr	r5, [r2]
	movs	r2, #54
	ldrb	r4, [r3, #113]	@ zero_extendqisi2
	add	r6, r3, #127
	add	r8, r5, r7
	str	r2, [r8, #2056]
	movs	r2, #160
	muls	r1, r4, r1
	mla	r1, r2, r0, r1
	add	r1, r1, r3
	add	r3, r3, r4
	adds	r1, r1, #143
	add	r4, r3, #127
.L23:
	cmp	r6, r4
	bne	.L24
	add	r5, r5, r7
	movs	r3, #22
	str	r3, [r5, #2056]
	pop	{r4, r5, r6, r7, r8, pc}
.L24:
	ldrb	r3, [r6, #1]!	@ zero_extendqisi2
	movs	r0, #120
	str	r3, [r8, #2052]
	bl	timer_delay_ns
	ldrsb	r3, [r1, #1]!
	str	r3, [r8, #2048]
	b	.L23
.L26:
	.align	2
.L25:
	.word	.LANCHOR5
	.word	.LANCHOR6
	.size	hynix_set_rr_para, .-hynix_set_rr_para
	.section	.text.hynix_reconfig_rr_para,"ax",%progbits
	.align	1
	.global	hynix_reconfig_rr_para
	.syntax unified
	.thumb
	.thumb_func
	.fpu softvfp
	.type	hynix_reconfig_rr_para, %function
hynix_reconfig_rr_para:
	@ args = 0, pretend = 0, frame = 0
	@ frame_needed = 0, uses_anonymous_args = 0
	push	{r3, r4, r5, lr}
	mov	r4, r0
	ldr	r3, .L32
	ldrb	r3, [r3]	@ zero_extendqisi2
	subs	r3, r3, #1
	cmp	r3, #6
	bhi	.L27
	ldr	r5, .L32+4
	ldr	r3, [r5]
	add	r3, r3, r0
	ldrb	r3, [r3, #120]	@ zero_extendqisi2
	cbz	r3, .L27
	movs	r1, #0
	bl	hynix_set_rr_para
	ldr	r0, [r5]
	movs	r3, #0
	add	r0, r0, r4
	strb	r3, [r0, #120]
.L27:
	pop	{r3, r4, r5, pc}
.L33:
	.align	2
.L32:
	.word	.LANCHOR1
	.word	.LANCHOR5
	.size	hynix_reconfig_rr_para, .-hynix_reconfig_rr_para
	.section	.text.nandc_set_ddr_para,"ax",%progbits
	.align	1
	.global	nandc_set_ddr_para
	.syntax unified
	.thumb
	.thumb_func
	.fpu softvfp
	.type	nandc_set_ddr_para, %function
nandc_set_ddr_para:
	@ args = 0, pretend = 0, frame = 0
	@ frame_needed = 0, uses_anonymous_args = 0
	@ link register save eliminated.
	ldr	r3, .L37
	ldr	r2, .L37+4
	ldrb	r3, [r3]	@ zero_extendqisi2
	ldr	r2, [r2]
	cmp	r3, #9
	lsl	r3, r0, #16
	lsl	r0, r0, #8
	orr	r3, r3, r0
	orr	r3, r3, #3
	ite	eq
	streq	r3, [r2, #80]
	strne	r3, [r2, #304]
	bx	lr
.L38:
	.align	2
.L37:
	.word	.LANCHOR7
	.word	.LANCHOR6
	.size	nandc_set_ddr_para, .-nandc_set_ddr_para
	.section	.text.nandc_get_ddr_para,"ax",%progbits
	.align	1
	.global	nandc_get_ddr_para
	.syntax unified
	.thumb
	.thumb_func
	.fpu softvfp
	.type	nandc_get_ddr_para, %function
nandc_get_ddr_para:
	@ args = 0, pretend = 0, frame = 0
	@ frame_needed = 0, uses_anonymous_args = 0
	@ link register save eliminated.
	ldr	r3, .L43
	ldrb	r3, [r3]	@ zero_extendqisi2
	cmp	r3, #9
	ldr	r3, .L43+4
	ldr	r3, [r3]
	ite	eq
	ldreq	r0, [r3, #80]
	ldrne	r0, [r3, #304]
	ubfx	r0, r0, #8, #8
	bx	lr
.L44:
	.align	2
.L43:
	.word	.LANCHOR7
	.word	.LANCHOR6
	.size	nandc_get_ddr_para, .-nandc_get_ddr_para
	.section	.text.nandc_set_if_mode,"ax",%progbits
	.align	1
	.global	nandc_set_if_mode
	.syntax unified
	.thumb
	.thumb_func
	.fpu softvfp
	.type	nandc_set_if_mode, %function
nandc_set_if_mode:
	@ args = 0, pretend = 0, frame = 0
	@ frame_needed = 0, uses_anonymous_args = 0
	@ link register save eliminated.
	ldr	r3, .L53
	ands	r1, r0, #6
	ldr	r3, [r3]
	ldr	r2, [r3]
	beq	.L46
	lsls	r1, r0, #29
	ldr	r1, .L53+4
	orr	r2, r2, #24576
	bfc	r2, #15, #1
	ldrb	r1, [r1]	@ zero_extendqisi2
	orr	r2, r2, #196608
	it	mi
	orrmi	r2, r2, #32768
	cmp	r1, #9
	ldr	r1, .L53+8
	bne	.L48
	movw	r0, #8321
	str	r0, [r3, #8]
	str	r1, [r3, #80]
	movs	r1, #38
	str	r1, [r3, #84]
	movs	r1, #39
	str	r1, [r3, #84]
.L49:
	str	r2, [r3]
	bx	lr
.L48:
	movw	r0, #8322
	str	r0, [r3, #344]
	str	r1, [r3, #304]
	movs	r1, #38
	str	r1, [r3, #308]
	movs	r1, #39
	str	r1, [r3, #308]
	b	.L49
.L46:
	bfi	r2, r1, #13, #1
	b	.L49
.L54:
	.align	2
.L53:
	.word	.LANCHOR6
	.word	.LANCHOR7
	.word	1052675
	.size	nandc_set_if_mode, .-nandc_set_if_mode
	.section	.text.nandc_cs,"ax",%progbits
	.align	1
	.global	nandc_cs
	.syntax unified
	.thumb
	.thumb_func
	.fpu softvfp
	.type	nandc_cs, %function
nandc_cs:
	@ args = 0, pretend = 0, frame = 0
	@ frame_needed = 0, uses_anonymous_args = 0
	@ link register save eliminated.
	ldr	r3, .L56
	movs	r2, #1
	lsl	r0, r2, r0
	ldr	r1, [r3]
	ldr	r3, [r1]
	bfi	r3, r0, #0, #8
	str	r3, [r1]
	bx	lr
.L57:
	.align	2
.L56:
	.word	.LANCHOR6
	.size	nandc_cs, .-nandc_cs
	.section	.text.nandc_de_cs,"ax",%progbits
	.align	1
	.global	nandc_de_cs
	.syntax unified
	.thumb
	.thumb_func
	.fpu softvfp
	.type	nandc_de_cs, %function
nandc_de_cs:
	@ args = 0, pretend = 0, frame = 0
	@ frame_needed = 0, uses_anonymous_args = 0
	@ link register save eliminated.
	ldr	r3, .L59
	ldr	r2, [r3]
	ldr	r3, [r2]
	bfc	r3, #0, #8
	bfc	r3, #17, #1
	str	r3, [r2]
	bx	lr
.L60:
	.align	2
.L59:
	.word	.LANCHOR6
	.size	nandc_de_cs, .-nandc_de_cs
	.section	.text.flash_wait_device_ready_raw,"ax",%progbits
	.align	1
	.global	flash_wait_device_ready_raw
	.syntax unified
	.thumb
	.thumb_func
	.fpu softvfp
	.type	flash_wait_device_ready_raw, %function
flash_wait_device_ready_raw:
	@ args = 0, pretend = 0, frame = 0
	@ frame_needed = 0, uses_anonymous_args = 0
	push	{r3, r4, r5, r6, r7, lr}
	mov	r5, r1
	ldr	r3, .L70
	mov	r7, r2
	ldrb	r3, [r3]	@ zero_extendqisi2
	cmp	r3, r0
	bhi	.L62
	mov	r2, #604
	ldr	r1, .L70+4
	ldr	r0, .L70+8
	bl	printf
.L63:
	b	.L63
.L62:
	ldr	r3, .L70+12
	ldrb	r6, [r3, r0]	@ zero_extendqisi2
	ldr	r3, .L70+16
	mov	r0, r6
	ldr	r4, [r3]
	bl	nandc_cs
	uxtb	r3, r5
	movs	r0, #120
	add	r4, r4, r6, lsl #8
	str	r0, [r4, #2056]
	str	r3, [r4, #2052]
	lsrs	r3, r5, #8
	lsrs	r5, r5, #16
	str	r3, [r4, #2052]
	str	r5, [r4, #2052]
.L69:
	bl	timer_delay_ns
	ldr	r1, [r4, #2048]
	uxtb	r1, r1
	bics	r3, r7, r1
	bne	.L65
	cmp	r1, #255
	beq	.L65
	mov	r0, r6
	bl	nandc_de_cs
	mov	r0, r1
	pop	{r3, r4, r5, r6, r7, pc}
.L65:
	movs	r0, #20
	b	.L69
.L71:
	.align	2
.L70:
	.word	.LANCHOR8
	.word	.LANCHOR9
	.word	.LC0
	.word	.LANCHOR10
	.word	.LANCHOR6
	.size	flash_wait_device_ready_raw, .-flash_wait_device_ready_raw
	.global	__aeabi_uidiv
	.global	__aeabi_uidivmod
	.section	.text.flash_wait_device_ready,"ax",%progbits
	.align	1
	.global	flash_wait_device_ready
	.syntax unified
	.thumb
	.thumb_func
	.fpu softvfp
	.type	flash_wait_device_ready, %function
flash_wait_device_ready:
	@ args = 0, pretend = 0, frame = 0
	@ frame_needed = 0, uses_anonymous_args = 0
	tst	r0, #50331648
	push	{r3, r4, r5, r6, r7, r8, r10, lr}
	mov	r10, r1
	ubfx	r4, r0, #0, #21
	ubfx	r8, r0, #21, #3
	bne	.L73
	ldr	r3, .L82
	ldr	r6, .L82+4
	ldrb	r3, [r3]	@ zero_extendqisi2
	cbz	r3, .L74
	ldrb	r3, [r6]	@ zero_extendqisi2
	cbz	r3, .L73
.L74:
	ldr	r3, .L82+8
	mov	r0, r4
	ldrh	r5, [r3]
	mov	r1, r5
	bl	__aeabi_uidiv
	mov	r1, r5
	mul	r7, r5, r0
	mov	r0, r4
	bl	__aeabi_uidivmod
	ldrb	r3, [r6]	@ zero_extendqisi2
	cbz	r3, .L75
	add	r4, r7, r1, lsl #1
.L73:
	mov	r2, r10
	mov	r1, r4
	mov	r0, r8
	pop	{r3, r4, r5, r6, r7, r8, r10, lr}
	b	flash_wait_device_ready_raw
.L75:
	ldr	r3, .L82+12
	ldrh	r4, [r3, r1, lsl #1]
	add	r4, r4, r7
	b	.L73
.L83:
	.align	2
.L82:
	.word	.LANCHOR11
	.word	.LANCHOR12
	.word	.LANCHOR13
	.word	.LANCHOR14
	.size	flash_wait_device_ready, .-flash_wait_device_ready
	.section	.text.nandc_wait_flash_ready,"ax",%progbits
	.align	1
	.global	nandc_wait_flash_ready
	.syntax unified
	.thumb
	.thumb_func
	.fpu softvfp
	.type	nandc_wait_flash_ready, %function
nandc_wait_flash_ready:
	@ args = 0, pretend = 0, frame = 8
	@ frame_needed = 0, uses_anonymous_args = 0
	push	{r0, r1, r4, lr}
	ldr	r1, .L89
	ldr	r4, .L89+4
.L86:
	movs	r0, #100
	bl	timer_delay_ns
	ldr	r3, [r4]
	ldr	r3, [r3]
	str	r3, [sp, #4]
	ldr	r3, [sp, #4]
	lsls	r3, r3, #22
	bmi	.L87
	subs	r1, r1, #1
	bne	.L86
	mov	r0, #-1
.L84:
	add	sp, sp, #8
	@ sp needed
	pop	{r4, pc}
.L87:
	movs	r0, #0
	b	.L84
.L90:
	.align	2
.L89:
	.word	100000
	.word	.LANCHOR6
	.size	nandc_wait_flash_ready, .-nandc_wait_flash_ready
	.section	.text.sandisk_set_rr_para,"ax",%progbits
	.align	1
	.global	sandisk_set_rr_para
	.syntax unified
	.thumb
	.thumb_func
	.fpu softvfp
	.type	sandisk_set_rr_para, %function
sandisk_set_rr_para:
	@ args = 0, pretend = 0, frame = 0
	@ frame_needed = 0, uses_anonymous_args = 0
	push	{r3, r4, r5, r6, r7, lr}
	movs	r3, #239
	str	r3, [r0, #8]
	movs	r3, #17
	mov	r4, r0
	str	r3, [r0, #4]
	movs	r0, #200
	bl	timer_delay_ns
	ldr	r3, .L97
	add	r1, r1, r1, lsl #2
	ldr	r6, .L97+4
	movs	r2, #0
	ldr	r7, .L97+8
	ldrb	r0, [r3]	@ zero_extendqisi2
	ldr	r3, .L97+12
	ldrb	r5, [r3]	@ zero_extendqisi2
.L92:
	cmp	r2, r0
	bcc	.L95
	pop	{r3, r4, r5, r6, r7, lr}
	b	nandc_wait_flash_ready
.L95:
	adds	r3, r2, r1
	cmp	r5, #67
	ite	eq
	addeq	r3, r3, r7
	addne	r3, r3, r6
	ldrsb	r3, [r3, #5]
	adds	r2, r2, #1
	str	r3, [r4]
	b	.L92
.L98:
	.align	2
.L97:
	.word	.LANCHOR4
	.word	.LANCHOR2
	.word	.LANCHOR0
	.word	.LANCHOR1
	.size	sandisk_set_rr_para, .-sandisk_set_rr_para
	.section	.text.toshiba_3d_set_tlc_rr_para,"ax",%progbits
	.align	1
	.global	toshiba_3d_set_tlc_rr_para
	.syntax unified
	.thumb
	.thumb_func
	.fpu softvfp
	.type	toshiba_3d_set_tlc_rr_para, %function
toshiba_3d_set_tlc_rr_para:
	@ args = 0, pretend = 0, frame = 0
	@ frame_needed = 0, uses_anonymous_args = 0
	push	{r3, r4, r5, r6, r7, lr}
	movs	r6, #0
	movs	r7, #213
	mvn	r3, #118
	adds	r1, r1, #1
	mov	r4, r0
	str	r7, [r0, #8]
	rsb	r1, r1, r1, lsl #3
	str	r6, [r0, #4]
	str	r3, [r0, #4]
	ldr	r3, .L100
	adds	r5, r3, r1
	ldrsb	r3, [r3, r1]
	str	r3, [r0]
	ldrsb	r3, [r5, #1]
	str	r3, [r0]
	ldrsb	r3, [r5, #2]
	str	r3, [r0]
	ldrsb	r3, [r5, #3]
	str	r3, [r0]
	bl	nandc_wait_flash_ready
	mvn	r3, #117
	str	r7, [r4, #8]
	str	r6, [r4, #4]
	str	r3, [r4, #4]
	ldrsb	r3, [r5, #4]
	str	r3, [r4]
	ldrsb	r3, [r5, #5]
	str	r3, [r4]
	ldrsb	r3, [r5, #6]
	str	r3, [r4]
	str	r6, [r4]
	pop	{r3, r4, r5, r6, r7, lr}
	b	nandc_wait_flash_ready
.L101:
	.align	2
.L100:
	.word	.LANCHOR15
	.size	toshiba_3d_set_tlc_rr_para, .-toshiba_3d_set_tlc_rr_para
	.section	.text.toshiba_3d_set_slc_rr_para,"ax",%progbits
	.align	1
	.global	toshiba_3d_set_slc_rr_para
	.syntax unified
	.thumb
	.thumb_func
	.fpu softvfp
	.type	toshiba_3d_set_slc_rr_para, %function
toshiba_3d_set_slc_rr_para:
	@ args = 0, pretend = 0, frame = 0
	@ frame_needed = 0, uses_anonymous_args = 0
	@ link register save eliminated.
	movs	r3, #213
	mvn	r2, #116
	str	r3, [r0, #8]
	movs	r3, #0
	str	r3, [r0, #4]
	str	r2, [r0, #4]
	ldr	r2, .L103
	add	r1, r1, r2
	ldrsb	r2, [r1, #1]
	str	r2, [r0]
	str	r3, [r0]
	str	r3, [r0]
	str	r3, [r0]
	b	nandc_wait_flash_ready
.L104:
	.align	2
.L103:
	.word	.LANCHOR16
	.size	toshiba_3d_set_slc_rr_para, .-toshiba_3d_set_slc_rr_para
	.section	.text.toshiba_tlc_set_rr_para,"ax",%progbits
	.align	1
	.global	toshiba_tlc_set_rr_para
	.syntax unified
	.thumb
	.thumb_func
	.fpu softvfp
	.type	toshiba_tlc_set_rr_para, %function
toshiba_tlc_set_rr_para:
	@ args = 0, pretend = 0, frame = 0
	@ frame_needed = 0, uses_anonymous_args = 0
	push	{r4, r5, r6, lr}
	movs	r6, #239
	mov	r4, r0
	str	r6, [r0, #8]
	cbz	r2, .L106
	movs	r3, #18
	rsb	r1, r1, r1, lsl #3
	str	r3, [r0, #4]
	ldr	r3, .L108
	adds	r5, r3, r1
	ldrb	r3, [r3, r1]	@ zero_extendqisi2
	str	r3, [r0]
	ldrb	r3, [r5, #1]	@ zero_extendqisi2
	str	r3, [r0]
	ldrb	r3, [r5, #2]	@ zero_extendqisi2
	str	r3, [r0]
	ldrb	r3, [r5, #3]	@ zero_extendqisi2
	str	r3, [r0]
	bl	nandc_wait_flash_ready
	movs	r3, #19
	str	r6, [r4, #8]
	str	r3, [r4, #4]
	ldrb	r3, [r5, #4]	@ zero_extendqisi2
	str	r3, [r4]
	ldrb	r3, [r5, #5]	@ zero_extendqisi2
	str	r3, [r4]
	ldrb	r3, [r5, #6]	@ zero_extendqisi2
	str	r3, [r4]
	movs	r3, #0
	str	r3, [r4]
.L107:
	pop	{r4, r5, r6, lr}
	b	nandc_wait_flash_ready
.L106:
	movs	r3, #20
	str	r3, [r0, #4]
	ldr	r3, .L108+4
	ldrb	r3, [r3, r1]	@ zero_extendqisi2
	str	r3, [r0]
	str	r2, [r0]
	str	r2, [r0]
	str	r2, [r0]
	b	.L107
.L109:
	.align	2
.L108:
	.word	.LANCHOR17
	.word	.LANCHOR18
	.size	toshiba_tlc_set_rr_para, .-toshiba_tlc_set_rr_para
	.section	.text.flash_enter_slc_mode,"ax",%progbits
	.align	1
	.global	flash_enter_slc_mode
	.syntax unified
	.thumb
	.thumb_func
	.fpu softvfp
	.type	flash_enter_slc_mode, %function
flash_enter_slc_mode:
	@ args = 0, pretend = 0, frame = 0
	@ frame_needed = 0, uses_anonymous_args = 0
	@ link register save eliminated.
	ldr	r3, .L122
	ldrb	r2, [r3]	@ zero_extendqisi2
	cbz	r2, .L110
	ldr	r3, .L122+4
	cmp	r2, #1
	ldr	r3, [r3]
	bne	.L112
	ldr	r2, .L122+8
	ldrb	r2, [r2, #29]	@ zero_extendqisi2
	cbz	r2, .L110
	add	r0, r3, r0, lsl #8
	str	r2, [r0, #2056]
	bx	lr
.L112:
	cmp	r2, #2
	bne	.L110
	ldr	r1, .L122+12
	ldrb	r2, [r1]	@ zero_extendqisi2
	cbz	r2, .L110
	add	r0, r3, r0, lsl #8
	movs	r3, #239
	movs	r2, #0
	str	r3, [r0, #2056]
	movs	r3, #145
	str	r3, [r0, #2052]
	movs	r3, #1
	str	r2, [r0, #2048]
	str	r3, [r0, #2048]
	str	r2, [r0, #2048]
	str	r2, [r0, #2048]
	strb	r2, [r1]
	b	nandc_wait_flash_ready
.L110:
	bx	lr
.L123:
	.align	2
.L122:
	.word	.LANCHOR11
	.word	.LANCHOR6
	.word	.LANCHOR19
	.word	.LANCHOR20
	.size	flash_enter_slc_mode, .-flash_enter_slc_mode
	.section	.text.flash_exit_slc_mode,"ax",%progbits
	.align	1
	.global	flash_exit_slc_mode
	.syntax unified
	.thumb
	.thumb_func
	.fpu softvfp
	.type	flash_exit_slc_mode, %function
flash_exit_slc_mode:
	@ args = 0, pretend = 0, frame = 0
	@ frame_needed = 0, uses_anonymous_args = 0
	@ link register save eliminated.
	ldr	r3, .L136
	push	{r4}
	ldrb	r2, [r3]	@ zero_extendqisi2
	cbz	r2, .L124
	ldr	r3, .L136+4
	cmp	r2, #1
	ldr	r3, [r3]
	bne	.L126
	ldr	r2, .L136+8
	ldrb	r2, [r2, #30]	@ zero_extendqisi2
	cbz	r2, .L124
	add	r0, r3, r0, lsl #8
	str	r2, [r0, #2056]
.L124:
	pop	{r4}
	bx	lr
.L126:
	cmp	r2, #2
	bne	.L124
	ldr	r4, .L136+12
	ldrb	r1, [r4]	@ zero_extendqisi2
	cmp	r1, #0
	bne	.L124
	ldr	r2, .L136+8
	add	r0, r3, r0, lsl #8
	movs	r3, #239
	str	r3, [r0, #2056]
	movs	r3, #145
	ldrb	r2, [r2, #12]	@ zero_extendqisi2
	str	r3, [r0, #2052]
	movs	r3, #1
	cmp	r2, #2
	it	ne
	movne	r2, #4
	str	r2, [r0, #2048]
	strb	r2, [r4]
	str	r3, [r0, #2048]
	pop	{r4}
	str	r1, [r0, #2048]
	str	r1, [r0, #2048]
	b	nandc_wait_flash_ready
.L137:
	.align	2
.L136:
	.word	.LANCHOR11
	.word	.LANCHOR6
	.word	.LANCHOR19
	.word	.LANCHOR20
	.size	flash_exit_slc_mode, .-flash_exit_slc_mode
	.section	.text.flash_erase_duplane_block,"ax",%progbits
	.align	1
	.global	flash_erase_duplane_block
	.syntax unified
	.thumb
	.thumb_func
	.fpu softvfp
	.type	flash_erase_duplane_block, %function
flash_erase_duplane_block:
	@ args = 0, pretend = 0, frame = 8
	@ frame_needed = 0, uses_anonymous_args = 0
	push	{r0, r1, r4, r5, r6, r7, r8, r10, fp, lr}
	mov	fp, r1
	ldr	r1, .L154
	mov	r7, r2
	mov	r6, r3
	ldrb	r1, [r1]	@ zero_extendqisi2
	cmp	r1, r0
	bhi	.L139
	movw	r2, #517
	ldr	r1, .L154+4
	ldr	r0, .L154+8
	bl	printf
.L140:
	b	.L140
.L139:
	ldr	r1, .L154+12
	ldrb	r4, [r1, r0]	@ zero_extendqisi2
	ldr	r1, .L154+16
	add	r8, r4, #8
	ldr	r5, [r1]
	ldr	r1, .L154+20
	ldr	r1, [r1]
	add	r8, r5, r8, lsl #8
	lsls	r1, r1, #27
	bpl	.L141
	mov	r1, r4
	ldr	r0, .L154+24
	bl	printf
.L141:
	bl	nandc_wait_flash_ready
	mov	r0, r4
	bl	nandc_cs
	mov	r0, r4
	cmp	fp, #0
	bne	.L142
	bl	flash_enter_slc_mode
.L143:
	lsls	r2, r4, #8
	movs	r1, #96
	adds	r3, r5, r2
	str	r1, [r3, #2056]
	uxtb	r1, r7
	str	r1, [r3, #2052]
	lsrs	r1, r7, #8
	str	r1, [r3, #2052]
	lsrs	r1, r7, #16
	str	r1, [r3, #2052]
	ldr	r1, .L154+28
	ldrb	r1, [r1]	@ zero_extendqisi2
	cmp	r1, #0
	bne	.L147
	movs	r1, #208
	str	r2, [sp, #4]
	str	r1, [r3, #2056]
	str	r3, [sp]
	bl	nandc_wait_flash_ready
	mov	r0, r8
	bl	flash_read_status
	ldr	r3, [sp]
	and	r10, r0, #5
	ldr	r2, [sp, #4]
.L144:
	add	r5, r5, r2
	movs	r2, #96
	str	r2, [r5, #2056]
	uxtb	r2, r6
	str	r2, [r3, #2052]
	lsrs	r2, r6, #8
	lsrs	r6, r6, #16
	str	r2, [r3, #2052]
	str	r6, [r3, #2052]
	movs	r3, #208
	str	r3, [r5, #2056]
	bl	nandc_wait_flash_ready
	mov	r0, r8
	bl	flash_read_status
	mov	r5, r0
	cmp	fp, #0
	bne	.L145
	mov	r0, r4
	bl	flash_exit_slc_mode
.L145:
	mov	r0, r4
	bl	nandc_de_cs
	and	r0, r5, #5
	orrs	r10, r0, r10
	beq	.L146
	mov	r2, r5
	mov	r1, r7
	ldr	r0, .L154+32
	bl	printf
.L146:
	mov	r0, r10
	add	sp, sp, #8
	@ sp needed
	pop	{r4, r5, r6, r7, r8, r10, fp, pc}
.L142:
	bl	flash_exit_slc_mode
	b	.L143
.L147:
	mov	r10, #0
	b	.L144
.L155:
	.align	2
.L154:
	.word	.LANCHOR8
	.word	.LANCHOR21
	.word	.LC0
	.word	.LANCHOR10
	.word	.LANCHOR6
	.word	.LANCHOR22
	.word	.LC1
	.word	.LANCHOR23
	.word	.LC2
	.size	flash_erase_duplane_block, .-flash_erase_duplane_block
	.section	.text.flash_erase_block_en,"ax",%progbits
	.align	1
	.global	flash_erase_block_en
	.syntax unified
	.thumb
	.thumb_func
	.fpu softvfp
	.type	flash_erase_block_en, %function
flash_erase_block_en:
	@ args = 0, pretend = 0, frame = 0
	@ frame_needed = 0, uses_anonymous_args = 0
	ldr	r3, .L170
	push	{r4, r5, r6, r7, r8, lr}
	mov	r8, r1
	mov	r6, r2
	ldrb	r3, [r3]	@ zero_extendqisi2
	cmp	r3, r0
	bhi	.L157
	movw	r2, #561
	ldr	r1, .L170+4
	ldr	r0, .L170+8
	bl	printf
.L158:
	b	.L158
.L157:
	ldr	r3, .L170+12
	ldrb	r4, [r3, r0]	@ zero_extendqisi2
	ldr	r3, .L170+16
	add	r7, r4, #8
	ldr	r5, [r3]
	ldr	r3, .L170+20
	ldr	r3, [r3]
	add	r7, r5, r7, lsl #8
	lsls	r3, r3, #27
	bpl	.L159
	mov	r1, r4
	ldr	r0, .L170+24
	bl	printf
.L159:
	bl	nandc_wait_flash_ready
	mov	r0, r4
	bl	nandc_cs
	mov	r0, r4
	cmp	r8, #0
	bne	.L160
	bl	flash_enter_slc_mode
.L161:
	add	r3, r5, r4, lsl #8
	movs	r1, #96
	ubfx	r2, r6, #0, #21
	str	r1, [r3, #2056]
	uxtb	r1, r6
	str	r1, [r3, #2052]
	lsrs	r1, r2, #8
	lsrs	r2, r2, #16
	str	r1, [r3, #2052]
	str	r2, [r3, #2052]
	movs	r2, #208
	str	r2, [r3, #2056]
	bl	nandc_wait_flash_ready
	mov	r0, r7
	bl	flash_read_status
	mov	r5, r0
	cmp	r8, #0
	bne	.L162
	mov	r0, r4
	bl	flash_exit_slc_mode
.L162:
	mov	r0, r4
	bl	nandc_de_cs
	ands	r5, r5, #5
	beq	.L163
	ldr	r3, .L170+28
	mov	r0, r6
	ldrh	r1, [r3]
	bl	__aeabi_uidiv
	mov	r2, r5
	mov	r1, r0
	ldr	r0, .L170+32
	bl	printf
.L163:
	mov	r0, r5
	pop	{r4, r5, r6, r7, r8, pc}
.L160:
	bl	flash_exit_slc_mode
	b	.L161
.L171:
	.align	2
.L170:
	.word	.LANCHOR8
	.word	.LANCHOR24
	.word	.LC0
	.word	.LANCHOR10
	.word	.LANCHOR6
	.word	.LANCHOR22
	.word	.LC3
	.word	.LANCHOR13
	.word	.LC4
	.size	flash_erase_block_en, .-flash_erase_block_en
	.section	.text.flash_erase_block,"ax",%progbits
	.align	1
	.global	flash_erase_block
	.syntax unified
	.thumb
	.thumb_func
	.fpu softvfp
	.type	flash_erase_block, %function
flash_erase_block:
	@ args = 0, pretend = 0, frame = 0
	@ frame_needed = 0, uses_anonymous_args = 0
	@ link register save eliminated.
	mov	r2, r1
	movs	r1, #0
	b	flash_erase_block_en
	.size	flash_erase_block, .-flash_erase_block
	.section	.text.flash_erase_all,"ax",%progbits
	.align	1
	.global	flash_erase_all
	.syntax unified
	.thumb
	.thumb_func
	.fpu softvfp
	.type	flash_erase_all, %function
flash_erase_all:
	@ args = 0, pretend = 0, frame = 0
	@ frame_needed = 0, uses_anonymous_args = 0
	ldr	r3, .L178
	push	{r4, r5, r6, r7, r8, lr}
	movs	r5, #0
	ldr	r7, .L178+4
	ldrb	r4, [r3, #13]	@ zero_extendqisi2
	ldrh	r3, [r3, #14]
	smulbb	r4, r4, r3
	uxth	r4, r4
.L174:
	ldr	r3, .L178+8
	ldrb	r2, [r3]	@ zero_extendqisi2
	uxth	r3, r5
	cmp	r2, r3
	bhi	.L177
	movs	r1, #0
	ldr	r0, .L178+12
	pop	{r4, r5, r6, r7, r8, lr}
	b	printf
.L177:
	ldr	r2, .L178+16
	uxth	r3, r5
	movs	r6, #0
	ldrb	r8, [r2, r3]	@ zero_extendqisi2
.L175:
	uxth	r3, r6
	cmp	r4, r3
	bhi	.L176
	adds	r5, r5, #1
	b	.L174
.L176:
	ldrh	r1, [r7]
	mov	r0, r8
	muls	r1, r6, r1
	adds	r6, r6, #1
	bl	flash_erase_block
	b	.L175
.L179:
	.align	2
.L178:
	.word	.LANCHOR19
	.word	.LANCHOR13
	.word	.LANCHOR8
	.word	.LC5
	.word	.LANCHOR10
	.size	flash_erase_all, .-flash_erase_all
	.section	.text.flash_set_interface_mode,"ax",%progbits
	.align	1
	.global	flash_set_interface_mode
	.syntax unified
	.thumb
	.thumb_func
	.fpu softvfp
	.type	flash_set_interface_mode, %function
flash_set_interface_mode:
	@ args = 0, pretend = 0, frame = 8
	@ frame_needed = 0, uses_anonymous_args = 0
	ldr	r3, .L202
	push	{r0, r1, r4, r5, r6, r7, r8, r10, fp, lr}
	movs	r6, #239
	ldr	ip, .L202+8
	movs	r7, #128
	mov	lr, #1
	mov	r8, #35
	ldr	r5, [r3]
	mov	r10, #5
	ldr	r3, .L202+4
	ldrb	r3, [r3]	@ zero_extendqisi2
	and	r2, r3, #4
	and	r3, r3, #1
	str	r3, [sp]
	movs	r3, #0
	str	r2, [sp, #4]
	mov	r2, r3
.L188:
	ldrb	r4, [ip, r3, lsl #3]	@ zero_extendqisi2
	cmp	r4, #152
	beq	.L181
	cmp	r4, #69
	beq	.L181
	cmp	r4, #44
	bne	.L182
.L181:
	cmp	r0, #1
	bne	.L183
	ldr	r1, [sp]
	cbz	r1, .L182
	lsls	r1, r3, #8
	cmp	r4, #44
	add	fp, r5, r1
	str	r6, [fp, #2056]
	itete	eq
	streq	r0, [fp, #2052]
	strne	r7, [fp, #2052]
	streq	r10, [fp, #2048]
	strne	r0, [fp, #2048]
.L187:
	add	r1, r1, r5
	str	r2, [r1, #2048]
	str	r2, [r1, #2048]
	str	r2, [r1, #2048]
.L182:
	adds	r3, r3, #1
	cmp	r3, #4
	bne	.L188
	bl	nandc_wait_flash_ready
	movs	r0, #0
	add	sp, sp, #8
	@ sp needed
	pop	{r4, r5, r6, r7, r8, r10, fp, pc}
.L183:
	ldr	r1, [sp, #4]
	cmp	r1, #0
	beq	.L182
	lsls	r1, r3, #8
	cmp	r4, #44
	add	fp, r5, r1
	str	r6, [fp, #2056]
	itete	eq
	streq	lr, [fp, #2052]
	strne	r7, [fp, #2052]
	streq	r8, [fp, #2048]
	strne	r2, [fp, #2048]
	b	.L187
.L203:
	.align	2
.L202:
	.word	.LANCHOR6
	.word	.LANCHOR25
	.word	.LANCHOR26
	.size	flash_set_interface_mode, .-flash_set_interface_mode
	.section	.text.flash_reset,"ax",%progbits
	.align	1
	.global	flash_reset
	.syntax unified
	.thumb
	.thumb_func
	.fpu softvfp
	.type	flash_reset, %function
flash_reset:
	@ args = 0, pretend = 0, frame = 0
	@ frame_needed = 0, uses_anonymous_args = 0
	@ link register save eliminated.
	ldr	r3, .L205
	ldr	r3, [r3]
	add	r0, r3, r0, lsl #8
	movs	r3, #255
	str	r3, [r0, #2056]
	b	nandc_wait_flash_ready
.L206:
	.align	2
.L205:
	.word	.LANCHOR6
	.size	flash_reset, .-flash_reset
	.section	.text.flash_read_id,"ax",%progbits
	.align	1
	.global	flash_read_id
	.syntax unified
	.thumb
	.thumb_func
	.fpu softvfp
	.type	flash_read_id, %function
flash_read_id:
	@ args = 0, pretend = 0, frame = 0
	@ frame_needed = 0, uses_anonymous_args = 0
	ldr	r3, .L208
	push	{r4, r5, r6, lr}
	mov	r6, r0
	mov	r5, r1
	ldr	r4, [r3]
	bl	flash_reset
	mov	r0, r6
	bl	nandc_cs
	add	r4, r4, r6, lsl #8
	movs	r3, #144
	movs	r0, #200
	str	r3, [r4, #2056]
	movs	r3, #0
	str	r3, [r4, #2052]
	bl	timer_delay_ns
	ldr	r3, [r4, #2048]
	mov	r0, r6
	strb	r3, [r5]
	ldr	r3, [r4, #2048]
	strb	r3, [r5, #1]
	ldr	r3, [r4, #2048]
	strb	r3, [r5, #2]
	ldr	r3, [r4, #2048]
	strb	r3, [r5, #3]
	ldr	r3, [r4, #2048]
	strb	r3, [r5, #4]
	ldr	r3, [r4, #2048]
	strb	r3, [r5, #5]
	ldr	r3, [r4, #2048]
	strb	r3, [r5, #6]
	ldr	r3, [r4, #2048]
	strb	r3, [r5, #7]
	pop	{r4, r5, r6, lr}
	b	nandc_de_cs
.L209:
	.align	2
.L208:
	.word	.LANCHOR6
	.size	flash_read_id, .-flash_read_id
	.section	.text.flash_read_spare,"ax",%progbits
	.align	1
	.global	flash_read_spare
	.syntax unified
	.thumb
	.thumb_func
	.fpu softvfp
	.type	flash_read_spare, %function
flash_read_spare:
	@ args = 0, pretend = 0, frame = 0
	@ frame_needed = 0, uses_anonymous_args = 0
	push	{r3, r4, r5, lr}
	mov	r5, r2
	ldr	r3, .L211
	ldr	r2, .L211+4
	ldrb	r3, [r3, #9]	@ zero_extendqisi2
	ldr	r4, [r2]
	movs	r2, #0
	lsls	r3, r3, #9
	add	r4, r4, r0, lsl #8
	str	r2, [r4, #2056]
	str	r3, [r4, #2052]
	lsrs	r3, r3, #8
	str	r3, [r4, #2052]
	uxtb	r3, r1
	str	r3, [r4, #2052]
	lsrs	r3, r1, #8
	lsrs	r1, r1, #16
	str	r3, [r4, #2052]
	movs	r3, #48
	str	r1, [r4, #2052]
	str	r3, [r4, #2056]
	bl	nandc_wait_flash_ready
	ldr	r3, [r4, #2048]
	strb	r3, [r5]
	pop	{r3, r4, r5, pc}
.L212:
	.align	2
.L211:
	.word	.LANCHOR19
	.word	.LANCHOR6
	.size	flash_read_spare, .-flash_read_spare
	.section	.text.sandisk_prog_test_bad_block,"ax",%progbits
	.align	1
	.global	sandisk_prog_test_bad_block
	.syntax unified
	.thumb
	.thumb_func
	.fpu softvfp
	.type	sandisk_prog_test_bad_block, %function
sandisk_prog_test_bad_block:
	@ args = 0, pretend = 0, frame = 0
	@ frame_needed = 0, uses_anonymous_args = 0
	push	{r3, r4, r5, lr}
	lsls	r0, r0, #8
	ldr	r3, .L220
	ldr	r5, .L220+4
	ldr	r4, [r3]
	ldrb	r3, [r5, #29]	@ zero_extendqisi2
	cbz	r3, .L214
	adds	r2, r4, r0
	str	r3, [r2, #2056]
.L215:
	add	r4, r4, r0
	movs	r3, #128
	str	r3, [r4, #2056]
	movs	r3, #0
	str	r3, [r4, #2052]
	str	r3, [r4, #2052]
	uxtb	r3, r1
	str	r3, [r4, #2052]
	lsrs	r3, r1, #8
	lsrs	r1, r1, #16
	str	r3, [r4, #2052]
	movs	r3, #16
	str	r1, [r4, #2052]
	str	r3, [r4, #2056]
	bl	nandc_wait_flash_ready
	movs	r3, #112
	movs	r0, #80
	str	r3, [r4, #2056]
	bl	timer_delay_ns
	ldrb	r3, [r5, #30]	@ zero_extendqisi2
	ldr	r0, [r4, #2048]
	and	r0, r0, #5
	cbz	r3, .L213
	str	r3, [r4, #2056]
.L213:
	pop	{r3, r4, r5, pc}
.L214:
	adds	r3, r4, r0
	movs	r2, #162
	str	r2, [r3, #2056]
	b	.L215
.L221:
	.align	2
.L220:
	.word	.LANCHOR6
	.word	.LANCHOR19
	.size	sandisk_prog_test_bad_block, .-sandisk_prog_test_bad_block
	.section	.text.nandc_bch_sel,"ax",%progbits
	.align	1
	.global	nandc_bch_sel
	.syntax unified
	.thumb
	.thumb_func
	.fpu softvfp
	.type	nandc_bch_sel, %function
nandc_bch_sel:
	@ args = 0, pretend = 0, frame = 0
	@ frame_needed = 0, uses_anonymous_args = 0
	ldr	r1, .L236
	movs	r2, #0
	push	{r4, lr}
	movs	r3, #1
	strb	r0, [r1]
	ldr	r1, .L236+4
	ldrb	r1, [r1]	@ zero_extendqisi2
	cmp	r1, #9
	ldr	r1, .L236+8
	ldr	r1, [r1]
	bne	.L223
	cmp	r0, #70
	str	r3, [r1, #16]
	beq	.L224
	cmp	r0, #60
	beq	.L231
	cmp	r0, #40
	ite	eq
	moveq	r2, #2
	movne	r2, r3
.L224:
	lsls	r3, r2, #25
	orr	r3, r3, #1
	str	r3, [r1, #32]
	pop	{r4, pc}
.L231:
	movs	r2, #3
	b	.L224
.L223:
	movs	r4, #16
	str	r3, [r1, #8]
	cmp	r0, r4
	mov	r3, r2
	bfi	r3, r4, #8, #8
	bfi	r3, r2, #18, #1
	bne	.L226
.L229:
	bfc	r3, #4, #1
.L227:
	orr	r3, r3, #1
	str	r3, [r1, #12]
	pop	{r4, pc}
.L226:
	cmp	r0, #24
	bne	.L228
	orr	r3, r3, #16
	b	.L227
.L228:
	cmp	r0, #40
	orr	r3, r3, #262144
	orr	r3, r3, #16
	bne	.L227
	b	.L229
.L237:
	.align	2
.L236:
	.word	.LANCHOR27
	.word	.LANCHOR7
	.word	.LANCHOR6
	.size	nandc_bch_sel, .-nandc_bch_sel
	.section	.text.NandCIrqEnable,"ax",%progbits
	.align	1
	.global	NandCIrqEnable
	.syntax unified
	.thumb
	.thumb_func
	.fpu softvfp
	.type	NandCIrqEnable, %function
NandCIrqEnable:
	@ args = 0, pretend = 0, frame = 0
	@ frame_needed = 0, uses_anonymous_args = 0
	@ link register save eliminated.
	bx	lr
	.size	NandCIrqEnable, .-NandCIrqEnable
	.section	.text.NandCIrqDisable,"ax",%progbits
	.align	1
	.global	NandCIrqDisable
	.syntax unified
	.thumb
	.thumb_func
	.fpu softvfp
	.type	NandCIrqDisable, %function
NandCIrqDisable:
	@ args = 0, pretend = 0, frame = 0
	@ frame_needed = 0, uses_anonymous_args = 0
	@ link register save eliminated.
	bx	lr
	.size	NandCIrqDisable, .-NandCIrqDisable
	.section	.text.rk_nandc_get_irq_status,"ax",%progbits
	.align	1
	.global	rk_nandc_get_irq_status
	.syntax unified
	.thumb
	.thumb_func
	.fpu softvfp
	.type	rk_nandc_get_irq_status, %function
rk_nandc_get_irq_status:
	@ args = 0, pretend = 0, frame = 0
	@ frame_needed = 0, uses_anonymous_args = 0
	@ link register save eliminated.
	ldr	r3, .L243
	ldrb	r3, [r3]	@ zero_extendqisi2
	cmp	r3, #9
	ite	eq
	ldreq	r0, [r0, #296]
	ldrne	r0, [r0, #372]
	bx	lr
.L244:
	.align	2
.L243:
	.word	.LANCHOR7
	.size	rk_nandc_get_irq_status, .-rk_nandc_get_irq_status
	.section	.text.rk_nandc_flash_ready,"ax",%progbits
	.align	1
	.global	rk_nandc_flash_ready
	.syntax unified
	.thumb
	.thumb_func
	.fpu softvfp
	.type	rk_nandc_flash_ready, %function
rk_nandc_flash_ready:
	@ args = 0, pretend = 0, frame = 0
	@ frame_needed = 0, uses_anonymous_args = 0
	@ link register save eliminated.
	bx	lr
	.size	rk_nandc_flash_ready, .-rk_nandc_flash_ready
	.section	.text.NandcIqrWaitFlashReady,"ax",%progbits
	.align	1
	.global	NandcIqrWaitFlashReady
	.syntax unified
	.thumb
	.thumb_func
	.fpu softvfp
	.type	NandcIqrWaitFlashReady, %function
NandcIqrWaitFlashReady:
	@ args = 0, pretend = 0, frame = 0
	@ frame_needed = 0, uses_anonymous_args = 0
	@ link register save eliminated.
	bx	lr
	.size	NandcIqrWaitFlashReady, .-NandcIqrWaitFlashReady
	.section	.text.rk_nandc_flash_xfer_completed,"ax",%progbits
	.align	1
	.global	rk_nandc_flash_xfer_completed
	.syntax unified
	.thumb
	.thumb_func
	.fpu softvfp
	.type	rk_nandc_flash_xfer_completed, %function
rk_nandc_flash_xfer_completed:
	@ args = 0, pretend = 0, frame = 0
	@ frame_needed = 0, uses_anonymous_args = 0
	@ link register save eliminated.
	bx	lr
	.size	rk_nandc_flash_xfer_completed, .-rk_nandc_flash_xfer_completed
	.section	.text.nandc_xfer_start,"ax",%progbits
	.align	1
	.global	nandc_xfer_start
	.syntax unified
	.thumb
	.thumb_func
	.fpu softvfp
	.type	nandc_xfer_start, %function
nandc_xfer_start:
	@ args = 0, pretend = 0, frame = 16
	@ frame_needed = 0, uses_anonymous_args = 0
	push	{r0, r1, r2, r3, r4, r5, r6, r7, r8, r10, fp, lr}
	mov	r7, r0
	ldr	r0, .L264
	adds	r6, r1, #1
	ldr	r5, .L264+4
	ldrb	r0, [r0]	@ zero_extendqisi2
	ldr	r10, .L264+24
	cmp	r0, #9
	bne	.L249
	movs	r4, #0
	movs	r1, #1
	bfi	r4, r7, #1, #1
	asrs	r6, r6, r1
	orr	r4, r4, #8
	bfi	r4, r1, #5, #2
	ldr	r1, .L264+8
	orr	r4, r4, #536870912
	orr	r4, r4, #1024
	ldrb	r1, [r1]	@ zero_extendqisi2
	bfc	r4, #4, #1
	bfi	r4, r6, #22, #6
	cbz	r1, .L250
	ldr	r1, .L264+12
	ldrb	r1, [r1]	@ zero_extendqisi2
	cbz	r1, .L250
	orr	r4, r4, #512
.L250:
	add	r1, r2, #63
	and	r6, r6, #63
	bic	r1, r1, #63
	bic	r0, r2, #63
	add	r1, r1, r6, lsl #10
	str	r2, [r5, #4]
	str	r3, [r5, #8]
	clz	r7, r7
	str	r2, [r5, #12]
	lsrs	r7, r7, #5
	str	r3, [r5, #16]
	bl	flush_dcache_range
	ldr	r0, [r5, #8]
	add	r1, r0, #63
	bic	r0, r0, #63
	bic	r1, r1, #63
	add	r1, r1, r6, lsl #2
	bl	flush_dcache_range
	movs	r3, #1
	ldr	r2, [r10]
	str	r3, [r5, #20]
	movs	r1, #16
	ldr	r3, [r5, #12]
	str	r3, [r2, #52]
	ldr	r3, [r5, #16]
	str	r3, [r2, #56]
	ldr	r3, [r2, #48]
	bfi	r3, r1, #9, #5
	movs	r1, #2
	orr	r3, r3, #448
	bfi	r3, r1, #3, #3
	ldr	r1, .L264+16
	orr	r3, r3, #4
	bfi	r3, r7, #1, #1
	ldrh	r1, [r1]
	orr	r3, r3, #1
	bfi	r3, r1, #16, #11
	str	r3, [r2, #48]
	str	r4, [r2, #16]
	orr	r4, r4, #4
	str	r4, [r2, #16]
.L248:
	add	sp, sp, #16
	@ sp needed
	pop	{r4, r5, r6, r7, r8, r10, fp, pc}
.L249:
	ldr	r0, [r10]
	movs	r4, #0
	bfi	r4, r7, #1, #1
	orr	r4, r4, #8
	ldr	r8, [r0, #12]
	movs	r0, #16
	bfi	r8, r0, #8, #8
	movs	r0, #1
	bfi	r4, r0, #5, #2
	asrs	r6, r6, r0
	orr	r4, r4, #536870912
	orr	r4, r4, #1024
	bfc	r8, #3, #1
	bfc	r4, #4, #1
	bfc	r8, #5, #3
	str	r6, [sp]
	bfi	r4, r6, #22, #6
	cmp	r7, #0
	beq	.L252
	ldr	r0, .L264+20
	lsrs	r1, r1, #1
	str	r1, [sp, #8]
	ldrb	r0, [r0]	@ zero_extendqisi2
	ldr	r1, [r5]
	cmp	r0, #24
	ite	hi
	movhi	r0, #128
	movls	r0, #64
	str	r1, [sp, #12]
	movs	r1, #0
	str	r0, [sp, #4]
	mov	r0, r1
.L254:
	ldr	r6, [sp, #4]
	add	fp, r3, r0, lsl #2
	add	lr, r6, r1
	ldr	r6, [sp, #8]
	cmp	r0, r6
	blt	.L255
.L256:
	ldr	r3, [r5]
	add	r1, r2, #63
	bic	r1, r1, #63
	bic	r0, r2, #63
	str	r2, [r5, #4]
	clz	r7, r7
	str	r3, [r5, #8]
	lsrs	r7, r7, #5
	str	r3, [r5, #16]
	ldr	r3, [sp]
	str	r2, [r5, #12]
	and	r6, r3, #63
	add	r1, r1, r6, lsl #10
	bl	flush_dcache_range
	ldr	r0, [r5, #8]
	add	r1, r0, #63
	bic	r0, r0, #63
	bic	r1, r1, #63
	add	r1, r1, r6, lsl #7
	bl	flush_dcache_range
	movs	r3, #1
	ldr	r2, [r10]
	str	r3, [r5, #20]
	movs	r1, #16
	ldr	r3, [r5, #12]
	str	r3, [r2, #20]
	ldr	r3, [r5, #16]
	str	r3, [r2, #24]
	movs	r3, #0
	bfi	r3, r1, #9, #5
	movs	r1, #2
	orr	r3, r3, #448
	bfi	r3, r1, #3, #3
	orr	r3, r3, #4
	bfi	r3, r7, #1, #1
	orr	r3, r3, #1
	str	r3, [r2, #16]
	str	r8, [r2, #12]
	str	r4, [r2, #8]
	orr	r4, r4, #4
	str	r4, [r2, #8]
	b	.L248
.L255:
	ldrh	ip, [r3, r0, lsl #2]
	bic	r1, r1, #3
	ldrh	fp, [fp, #2]
	adds	r0, r0, #1
	ldr	r6, [sp, #12]
	orr	ip, ip, fp, lsl #16
	str	ip, [r6, r1]
	mov	r1, lr
	b	.L254
.L252:
	ldr	r3, [r5]
	str	r0, [r3]
	b	.L256
.L265:
	.align	2
.L264:
	.word	.LANCHOR7
	.word	.LANCHOR30
	.word	.LANCHOR28
	.word	.LANCHOR29
	.word	.LANCHOR31
	.word	.LANCHOR27
	.word	.LANCHOR6
	.size	nandc_xfer_start, .-nandc_xfer_start
	.section	.text.nandc_set_seed,"ax",%progbits
	.align	1
	.global	nandc_set_seed
	.syntax unified
	.thumb
	.thumb_func
	.fpu softvfp
	.type	nandc_set_seed, %function
nandc_set_seed:
	@ args = 0, pretend = 0, frame = 0
	@ frame_needed = 0, uses_anonymous_args = 0
	@ link register save eliminated.
	ldr	r2, .L273
	and	r0, r0, #127
	ldr	r3, .L273+4
	ldrb	r2, [r2]	@ zero_extendqisi2
	ldrh	r3, [r3, r0, lsl #1]
	cbz	r2, .L267
	orr	r3, r3, #-1073741824
.L267:
	ldr	r2, .L273+8
	ldrb	r2, [r2]	@ zero_extendqisi2
	cmp	r2, #9
	ldr	r2, .L273+12
	ldr	r2, [r2]
	ite	eq
	streq	r3, [r2, #520]
	strne	r3, [r2, #336]
	bx	lr
.L274:
	.align	2
.L273:
	.word	.LANCHOR29
	.word	.LANCHOR32
	.word	.LANCHOR7
	.word	.LANCHOR6
	.size	nandc_set_seed, .-nandc_set_seed
	.section	.text.flash_start_page_read,"ax",%progbits
	.align	1
	.global	flash_start_page_read
	.syntax unified
	.thumb
	.thumb_func
	.fpu softvfp
	.type	flash_start_page_read, %function
flash_start_page_read:
	@ args = 0, pretend = 0, frame = 16
	@ frame_needed = 0, uses_anonymous_args = 0
	push	{r0, r1, r2, r3, r4, r5, r6, r7, r8, r10, fp, lr}
	ubfx	r3, r1, #21, #3
	ldr	r2, .L293
	str	r0, [sp, #4]
	ldrb	r2, [r2]	@ zero_extendqisi2
	cmp	r2, r3
	bhi	.L276
	movw	r2, #738
	ldr	r1, .L293+4
	ldr	r0, .L293+8
	bl	printf
.L277:
	b	.L277
.L276:
	ldr	r2, .L293+12
	ubfx	r5, r1, #24, #2
	ubfx	r4, r1, #0, #21
	ldr	r10, .L293+36
	ldrb	r7, [r2, r3]	@ zero_extendqisi2
	ldr	r3, .L293+16
	mov	r0, r7
	ldr	r6, [r3]
	lsl	fp, r7, #8
	bl	nandc_cs
	cmp	r5, #0
	bne	.L278
	ldr	r3, .L293+20
	ldr	r2, .L293+24
	ldrb	r3, [r3]	@ zero_extendqisi2
	cbz	r3, .L279
	ldrb	r3, [r2]	@ zero_extendqisi2
	cbz	r3, .L280
.L279:
	ldr	r3, .L293+28
	mov	r0, r4
	str	r2, [sp, #12]
	ldrh	r8, [r3]
	mov	r1, r8
	bl	__aeabi_uidiv
	mul	r3, r8, r0
	mov	r1, r8
	mov	r0, r4
	str	r3, [sp, #8]
	bl	__aeabi_uidivmod
	ldr	r2, [sp, #12]
	ldr	r3, [sp, #8]
	ldrb	r2, [r2]	@ zero_extendqisi2
	cbz	r2, .L281
	add	r4, r3, r1, lsl #1
.L280:
	mov	r0, r7
	bl	flash_enter_slc_mode
	b	.L282
.L281:
	ldr	r2, .L293+32
	ldrh	r4, [r2, r1, lsl #1]
	add	r4, r4, r3
.L282:
	add	r6, r6, fp
	movs	r3, #0
	str	r3, [r6, #2056]
	str	r3, [r6, #2052]
	str	r3, [r6, #2052]
	uxtb	r3, r4
	str	r3, [r6, #2052]
	lsrs	r3, r4, #8
	str	r3, [r6, #2052]
	lsrs	r3, r4, #16
	str	r3, [r6, #2052]
	ldr	r3, [sp, #4]
	str	r3, [r6, #2056]
	ldr	r3, [r10]
	ldrb	r3, [r3, #12]	@ zero_extendqisi2
	cmp	r3, #3
	bne	.L284
	cbz	r5, .L284
	add	r4, r4, r4, lsl #1
	subs	r5, r5, #1
	adds	r0, r4, r5
.L292:
	bl	nandc_set_seed
	movs	r0, #0
	add	sp, sp, #16
	@ sp needed
	pop	{r4, r5, r6, r7, r8, r10, fp, lr}
	b	nandc_de_cs
.L278:
	ldr	r3, [r10]
	ldrb	r3, [r3, #12]	@ zero_extendqisi2
	cmp	r3, #3
	bne	.L283
	add	r3, r6, fp
	str	r5, [r3, #2056]
	b	.L282
.L283:
	mov	r0, r7
	bl	flash_exit_slc_mode
	b	.L282
.L284:
	mov	r0, r4
	b	.L292
.L294:
	.align	2
.L293:
	.word	.LANCHOR8
	.word	.LANCHOR33
	.word	.LC0
	.word	.LANCHOR10
	.word	.LANCHOR6
	.word	.LANCHOR11
	.word	.LANCHOR12
	.word	.LANCHOR13
	.word	.LANCHOR14
	.word	.LANCHOR34
	.size	flash_start_page_read, .-flash_start_page_read
	.section	.text.FlashDeInit,"ax",%progbits
	.align	1
	.global	FlashDeInit
	.syntax unified
	.thumb
	.thumb_func
	.fpu softvfp
	.type	FlashDeInit, %function
FlashDeInit:
	@ args = 0, pretend = 0, frame = 0
	@ frame_needed = 0, uses_anonymous_args = 0
	push	{r4, lr}
	ldr	r4, .L307
	bl	nandc_wait_flash_ready
	movs	r0, #0
	bl	hynix_reconfig_rr_para
	ldrb	r3, [r4]	@ zero_extendqisi2
	cbz	r3, .L296
	ldr	r3, .L307+4
	ldrb	r3, [r3]	@ zero_extendqisi2
	lsls	r3, r3, #31
	bpl	.L296
	movs	r0, #1
	bl	flash_set_interface_mode
	movs	r0, #1
	bl	nandc_set_if_mode
	movs	r3, #0
	strb	r3, [r4]
.L296:
	ldr	r1, .L307+8
	ldrb	r3, [r1]	@ zero_extendqisi2
	cbz	r3, .L297
	movs	r0, #0
	strb	r0, [r1]
	bl	nandc_set_seed
	movs	r3, #1
	strb	r3, [r1]
.L297:
	movs	r0, #0
	pop	{r4, pc}
.L308:
	.align	2
.L307:
	.word	.LANCHOR35
	.word	.LANCHOR25
	.word	.LANCHOR29
	.size	FlashDeInit, .-FlashDeInit
	.section	.text.nandc_randomizer_enable,"ax",%progbits
	.align	1
	.global	nandc_randomizer_enable
	.syntax unified
	.thumb
	.thumb_func
	.fpu softvfp
	.type	nandc_randomizer_enable, %function
nandc_randomizer_enable:
	@ args = 0, pretend = 0, frame = 0
	@ frame_needed = 0, uses_anonymous_args = 0
	@ link register save eliminated.
	ldr	r3, .L310
	strb	r0, [r3]
	bx	lr
.L311:
	.align	2
.L310:
	.word	.LANCHOR29
	.size	nandc_randomizer_enable, .-nandc_randomizer_enable
	.section	.text.nandc_get_chip_if,"ax",%progbits
	.align	1
	.global	nandc_get_chip_if
	.syntax unified
	.thumb
	.thumb_func
	.fpu softvfp
	.type	nandc_get_chip_if, %function
nandc_get_chip_if:
	@ args = 0, pretend = 0, frame = 0
	@ frame_needed = 0, uses_anonymous_args = 0
	@ link register save eliminated.
	ldr	r3, .L313
	adds	r0, r0, #8
	ldr	r3, [r3]
	add	r0, r3, r0, lsl #8
	bx	lr
.L314:
	.align	2
.L313:
	.word	.LANCHOR6
	.size	nandc_get_chip_if, .-nandc_get_chip_if
	.section	.text.buf_reinit,"ax",%progbits
	.align	1
	.global	buf_reinit
	.syntax unified
	.thumb
	.thumb_func
	.fpu softvfp
	.type	buf_reinit, %function
buf_reinit:
	@ args = 0, pretend = 0, frame = 0
	@ frame_needed = 0, uses_anonymous_args = 0
	ldr	r3, .L318
	movs	r2, #0
	push	{r4, r5, lr}
	mov	r1, r2
	mov	r4, r3
.L316:
	uxtb	r0, r2
	adds	r2, r2, #1
	cmp	r2, #32
	strb	r1, [r3, #2]
	add	r5, r0, #1
	strb	r0, [r3, #1]
	strb	r5, [r3]
	add	r3, r3, #48
	str	r1, [r3, #-40]
	bne	.L316
	movs	r3, #255
	strb	r3, [r4, #1488]
	ldr	r3, .L318+4
	strb	r1, [r3]
	ldr	r3, .L318+8
	strb	r2, [r3]
	pop	{r4, r5, pc}
.L319:
	.align	2
.L318:
	.word	.LANCHOR36
	.word	.LANCHOR37
	.word	.LANCHOR38
	.size	buf_reinit, .-buf_reinit
	.section	.text.buf_add_tail,"ax",%progbits
	.align	1
	.global	buf_add_tail
	.syntax unified
	.thumb
	.thumb_func
	.fpu softvfp
	.type	buf_add_tail, %function
buf_add_tail:
	@ args = 0, pretend = 0, frame = 0
	@ frame_needed = 0, uses_anonymous_args = 0
	movs	r3, #255
	push	{r4, lr}
	strb	r3, [r1]
	ldrb	r2, [r0]	@ zero_extendqisi2
	cmp	r2, r3
	bne	.L321
	ldrb	r3, [r1, #1]	@ zero_extendqisi2
	cmp	r3, #255
	bne	.L322
	movs	r2, #74
	ldr	r1, .L329
	ldr	r0, .L329+4
	bl	printf
.L323:
	b	.L323
.L322:
	strb	r3, [r0]
	pop	{r4, pc}
.L325:
	muls	r3, r0, r3
	strb	r2, [r4, r3]
	pop	{r4, pc}
.L321:
	ldr	r4, .L329+8
	movs	r3, #48
.L328:
	mov	r0, r2
	muls	r2, r3, r2
	ldrb	r2, [r4, r2]	@ zero_extendqisi2
	cmp	r2, #255
	bne	.L328
	ldrb	r2, [r1, #1]	@ zero_extendqisi2
	cmp	r2, #255
	bne	.L325
	movs	r2, #81
	ldr	r1, .L329
	ldr	r0, .L329+4
	bl	printf
.L326:
	b	.L326
.L330:
	.align	2
.L329:
	.word	.LANCHOR39
	.word	.LC0
	.word	.LANCHOR36
	.size	buf_add_tail, .-buf_add_tail
	.section	.text.buf_free,"ax",%progbits
	.align	1
	.global	buf_free
	.syntax unified
	.thumb
	.thumb_func
	.fpu softvfp
	.type	buf_free, %function
buf_free:
	@ args = 0, pretend = 0, frame = 0
	@ frame_needed = 0, uses_anonymous_args = 0
	push	{r3, lr}
	mov	r1, r0
	ldrb	r3, [r0, #2]	@ zero_extendqisi2
	and	r3, r3, #8
	strb	r3, [r0, #2]
	cbz	r3, .L332
	ldr	r0, .L334
	bl	buf_add_tail
.L333:
	ldr	r2, .L334+4
	ldrb	r3, [r2]	@ zero_extendqisi2
	adds	r3, r3, #1
	strb	r3, [r2]
	pop	{r3, pc}
.L332:
	ldr	r3, .L334
	ldrb	r2, [r3]	@ zero_extendqisi2
	strb	r2, [r0]
	ldrb	r2, [r0, #1]	@ zero_extendqisi2
	strb	r2, [r3]
	b	.L333
.L335:
	.align	2
.L334:
	.word	.LANCHOR37
	.word	.LANCHOR38
	.size	buf_free, .-buf_free
	.section	.text.buf_alloc,"ax",%progbits
	.align	1
	.global	buf_alloc
	.syntax unified
	.thumb
	.thumb_func
	.fpu softvfp
	.type	buf_alloc, %function
buf_alloc:
	@ args = 0, pretend = 0, frame = 0
	@ frame_needed = 0, uses_anonymous_args = 0
	push	{r3, r4, r5, r6, r7, lr}
	mov	r2, r0
	ldr	r7, .L342
	ldrb	r1, [r7]	@ zero_extendqisi2
	cbnz	r1, .L337
	movs	r2, #121
	ldr	r1, .L342+4
	ldr	r0, .L342+8
	bl	printf
.L338:
	b	.L338
.L337:
	ldr	r5, .L342+12
	ldr	r3, .L342+16
	ldrb	r6, [r5]	@ zero_extendqisi2
	add	r0, r6, r6, lsl #1
	add	r0, r3, r0, lsl #4
	cbnz	r2, .L339
	cmp	r1, #1
	beq	.L341
.L339:
	movs	r2, #48
	subs	r1, r1, #1
	muls	r2, r6, r2
	strb	r1, [r7]
	movs	r1, #1
	adds	r4, r3, r2
	ldrb	r6, [r3, r2]	@ zero_extendqisi2
	strb	r1, [r4, #2]
	movs	r1, #255
	strb	r1, [r3, r2]
	mov	r3, #-1
	str	r3, [r4, #20]
	movs	r3, #0
	strb	r6, [r5]
	strh	r3, [r4, #34]	@ movhi
	str	r3, [r4, #8]
	pop	{r3, r4, r5, r6, r7, pc}
.L341:
	mov	r0, r2
	pop	{r3, r4, r5, r6, r7, pc}
.L343:
	.align	2
.L342:
	.word	.LANCHOR38
	.word	.LANCHOR40
	.word	.LC0
	.word	.LANCHOR37
	.word	.LANCHOR36
	.size	buf_alloc, .-buf_alloc
	.section	.text.buf_remove_buf,"ax",%progbits
	.align	1
	.global	buf_remove_buf
	.syntax unified
	.thumb
	.thumb_func
	.fpu softvfp
	.type	buf_remove_buf, %function
buf_remove_buf:
	@ args = 0, pretend = 0, frame = 0
	@ frame_needed = 0, uses_anonymous_args = 0
	push	{r4, r5, lr}
	ldrb	r4, [r1, #1]	@ zero_extendqisi2
	ldrb	r3, [r0]	@ zero_extendqisi2
	cmp	r4, r3
	bne	.L345
	ldrb	r3, [r1]	@ zero_extendqisi2
	strb	r3, [r0]
.L350:
	movs	r0, #1
	pop	{r4, r5, pc}
.L348:
	mov	r5, r3
	muls	r3, r2, r3
	ldrb	r3, [r0, r3]	@ zero_extendqisi2
	cmp	r4, r3
	bne	.L347
	muls	r2, r5, r2
	ldrb	r3, [r1]	@ zero_extendqisi2
	strb	r3, [r0, r2]
	movs	r3, #255
	strb	r3, [r1]
	b	.L350
.L345:
	ldr	r0, .L351
	movs	r2, #48
.L347:
	cmp	r3, #255
	bne	.L348
	movs	r0, #0
	pop	{r4, r5, pc}
.L352:
	.align	2
.L351:
	.word	.LANCHOR36
	.size	buf_remove_buf, .-buf_remove_buf
	.section	.text.buf_remove_free,"ax",%progbits
	.align	1
	.global	buf_remove_free
	.syntax unified
	.thumb
	.thumb_func
	.fpu softvfp
	.type	buf_remove_free, %function
buf_remove_free:
	@ args = 0, pretend = 0, frame = 0
	@ frame_needed = 0, uses_anonymous_args = 0
	push	{r3, r4, r5, lr}
	mov	r4, r0
	ldr	r5, .L357
	ldrb	r3, [r5]	@ zero_extendqisi2
	cbnz	r3, .L354
	movs	r2, #170
	ldr	r1, .L357+4
	ldr	r0, .L357+8
	bl	printf
.L355:
	b	.L355
.L354:
	mov	r1, r0
	ldr	r0, .L357+12
	bl	buf_remove_buf
	cmp	r0, #1
	bne	.L353
	ldrb	r3, [r5]	@ zero_extendqisi2
	subs	r3, r3, #1
	strb	r3, [r5]
	ldrb	r3, [r4, #2]	@ zero_extendqisi2
	orr	r3, r3, #1
	strb	r3, [r4, #2]
.L353:
	pop	{r3, r4, r5, pc}
.L358:
	.align	2
.L357:
	.word	.LANCHOR38
	.word	.LANCHOR41
	.word	.LC0
	.word	.LANCHOR37
	.size	buf_remove_free, .-buf_remove_free
	.section	.text.flash_check_bad_block,"ax",%progbits
	.align	1
	.global	flash_check_bad_block
	.syntax unified
	.thumb
	.thumb_func
	.fpu softvfp
	.type	flash_check_bad_block, %function
flash_check_bad_block:
	@ args = 0, pretend = 0, frame = 0
	@ frame_needed = 0, uses_anonymous_args = 0
	ldr	r2, .L360
	push	{r4, lr}
	lsrs	r4, r1, #5
	and	r1, r1, #31
	ldrb	r3, [r2, #13]	@ zero_extendqisi2
	ldrh	r2, [r2, #14]
	smulbb	r3, r3, r2
	ldr	r2, .L360+4
	uxth	r3, r3
	ldr	r2, [r2]
	adds	r3, r3, #31
	asrs	r3, r3, #5
	add	r2, r2, r4, lsl #2
	lsls	r3, r3, #2
	uxth	r3, r3
	mla	r0, r0, r3, r2
	ldr	r0, [r0, #912]
	lsrs	r0, r0, r1
	and	r0, r0, #1
	pop	{r4, pc}
.L361:
	.align	2
.L360:
	.word	.LANCHOR19
	.word	.LANCHOR5
	.size	flash_check_bad_block, .-flash_check_bad_block
	.section	.text.flash_mask_bad_block,"ax",%progbits
	.align	1
	.global	flash_mask_bad_block
	.syntax unified
	.thumb
	.thumb_func
	.fpu softvfp
	.type	flash_mask_bad_block, %function
flash_mask_bad_block:
	@ args = 0, pretend = 0, frame = 0
	@ frame_needed = 0, uses_anonymous_args = 0
	ldr	r3, .L363
	mov	r2, r1
	push	{r4, r5, r6, lr}
	mov	r5, r0
	mov	r6, r1
	mov	r1, r0
	ldrb	r4, [r3, #13]	@ zero_extendqisi2
	ldrh	r3, [r3, #14]
	ldr	r0, .L363+4
	smulbb	r4, r4, r3
	bl	printf
	uxth	r4, r4
	ldr	r3, .L363+8
	add	r0, r4, #31
	asrs	r0, r0, #5
	ldr	r2, [r3]
	movs	r3, #1
	lsls	r0, r0, #2
	uxth	r0, r0
	muls	r0, r5, r0
	lsrs	r5, r6, #5
	and	r6, r6, #31
	lsl	r6, r3, r6
	add	r0, r0, #912
	add	r0, r0, r5, lsl #2
	ldr	r3, [r2, r0]
	orrs	r3, r3, r6
	str	r3, [r2, r0]
	pop	{r4, r5, r6, pc}
.L364:
	.align	2
.L363:
	.word	.LANCHOR19
	.word	.LC6
	.word	.LANCHOR5
	.size	flash_mask_bad_block, .-flash_mask_bad_block
	.section	.text.ftl_gc_write_buf,"ax",%progbits
	.align	1
	.global	ftl_gc_write_buf
	.syntax unified
	.thumb
	.thumb_func
	.fpu softvfp
	.type	ftl_gc_write_buf, %function
ftl_gc_write_buf:
	@ args = 0, pretend = 0, frame = 0
	@ frame_needed = 0, uses_anonymous_args = 0
	push	{r3, lr}
	mov	r1, r0
	ldrb	r3, [r0, #2]	@ zero_extendqisi2
	orr	r3, r3, #2
	strb	r3, [r0, #2]
	ldr	r0, .L366
	bl	buf_add_tail
	ldr	r3, .L366+4
	ldrb	r0, [r3]	@ zero_extendqisi2
	adds	r0, r0, #1
	uxtb	r0, r0
	strb	r0, [r3]
	pop	{r3, pc}
.L367:
	.align	2
.L366:
	.word	.LANCHOR42
	.word	.LANCHOR43
	.size	ftl_gc_write_buf, .-ftl_gc_write_buf
	.section	.text.ftl_write_buf,"ax",%progbits
	.align	1
	.global	ftl_write_buf
	.syntax unified
	.thumb
	.thumb_func
	.fpu softvfp
	.type	ftl_write_buf, %function
ftl_write_buf:
	@ args = 0, pretend = 0, frame = 0
	@ frame_needed = 0, uses_anonymous_args = 0
	push	{r3, r4, r5, lr}
	mov	r4, r0
	cbnz	r0, .L369
	movw	r2, #539
	ldr	r1, .L375
	ldr	r0, .L375+4
	bl	printf
.L370:
	b	.L370
.L369:
	ldr	r2, .L375+8
	ldrb	r3, [r0, #40]	@ zero_extendqisi2
	ldrb	r2, [r2]	@ zero_extendqisi2
	cmp	r2, r3
	bcs	.L371
	mov	r2, #544
	ldr	r1, .L375
	ldr	r0, .L375+4
	bl	printf
.L372:
	b	.L372
.L371:
	ldr	r5, .L375+12
	cbnz	r3, .L373
	bl	buf_free
	ldrb	r0, [r5]	@ zero_extendqisi2
	pop	{r3, r4, r5, pc}
.L373:
	mov	r1, r0
	ldr	r0, .L375+16
	bl	buf_add_tail
	ldr	r3, .L375+20
	ldrb	r1, [r4, #40]	@ zero_extendqisi2
	ldrb	r0, [r5]	@ zero_extendqisi2
	ldr	r3, [r3]
	adds	r0, r0, #1
	ldr	r2, [r3, #16]
	uxtb	r0, r0
	strb	r0, [r5]
	add	r2, r2, r1
	str	r2, [r3, #16]
	ldr	r2, [r3, #32]
	adds	r2, r2, #1
	str	r2, [r3, #32]
	pop	{r3, r4, r5, pc}
.L376:
	.align	2
.L375:
	.word	.LANCHOR44
	.word	.LC0
	.word	.LANCHOR45
	.word	.LANCHOR43
	.word	.LANCHOR42
	.word	.LANCHOR46
	.size	ftl_write_buf, .-ftl_write_buf
	.section	.text.ftl_cache_flush,"ax",%progbits
	.align	1
	.global	ftl_cache_flush
	.syntax unified
	.thumb
	.thumb_func
	.fpu softvfp
	.type	ftl_cache_flush, %function
ftl_cache_flush:
	@ args = 0, pretend = 0, frame = 0
	@ frame_needed = 0, uses_anonymous_args = 0
	@ link register save eliminated.
	bx	lr
	.size	ftl_cache_flush, .-ftl_cache_flush
	.section	.text.ftl_read_buf,"ax",%progbits
	.align	1
	.global	ftl_read_buf
	.syntax unified
	.thumb
	.thumb_func
	.fpu softvfp
	.type	ftl_read_buf, %function
ftl_read_buf:
	@ args = 0, pretend = 0, frame = 0
	@ frame_needed = 0, uses_anonymous_args = 0
	push	{r3, r4, r5, lr}
	ldr	r3, .L389
	ldr	r3, [r3]
	cmp	r3, r0
	bhi	.L379
	movw	r2, #771
	ldr	r1, .L389+4
	ldr	r0, .L389+8
	bl	printf
.L380:
	b	.L380
.L379:
	ldr	r3, .L389+12
	movs	r4, #0
	mov	r5, r3
.L383:
	ldr	r2, [r3, #20]
	cmp	r0, r2
	bne	.L381
	ldrb	r2, [r3, #2]	@ zero_extendqisi2
	tst	r2, #8
	beq	.L381
	movs	r3, #48
	mla	r4, r3, r4, r5
	orr	r3, r2, #4
	strb	r3, [r4, #2]
	lsls	r3, r2, #31
	bmi	.L378
	mov	r0, r4
	bl	buf_remove_free
.L378:
	mov	r0, r4
	pop	{r3, r4, r5, pc}
.L381:
	adds	r4, r4, #1
	adds	r3, r3, #48
	cmp	r4, #32
	bne	.L383
	ldr	r3, .L389+16
	movs	r4, #0
	ldr	r2, [r3]
	adds	r2, r2, #1
	ittt	eq
	streq	r0, [r3]
	ldreq	r3, .L389+20
	streq	r1, [r3]
	b	.L378
.L390:
	.align	2
.L389:
	.word	.LANCHOR47
	.word	.LANCHOR48
	.word	.LC0
	.word	.LANCHOR36
	.word	.LANCHOR49
	.word	.LANCHOR50
	.size	ftl_read_buf, .-ftl_read_buf
	.section	.text.ftl_read_buf_free,"ax",%progbits
	.align	1
	.global	ftl_read_buf_free
	.syntax unified
	.thumb
	.thumb_func
	.fpu softvfp
	.type	ftl_read_buf_free, %function
ftl_read_buf_free:
	@ args = 0, pretend = 0, frame = 0
	@ frame_needed = 0, uses_anonymous_args = 0
	push	{r4, lr}
	mov	r1, r0
	mov	r4, r0
	ldr	r0, .L395
	bl	buf_remove_buf
	ldrb	r3, [r4, #2]	@ zero_extendqisi2
	lsls	r2, r3, #30
	bpl	.L392
	bic	r3, r3, #4
	strb	r3, [r4, #2]
	pop	{r4, pc}
.L392:
	mov	r0, r4
	pop	{r4, lr}
	b	buf_free
.L396:
	.align	2
.L395:
	.word	.LANCHOR51
	.size	ftl_read_buf_free, .-ftl_read_buf_free
	.section	.text.ftl_get_density,"ax",%progbits
	.align	1
	.global	ftl_get_density
	.syntax unified
	.thumb
	.thumb_func
	.fpu softvfp
	.type	ftl_get_density, %function
ftl_get_density:
	@ args = 0, pretend = 0, frame = 0
	@ frame_needed = 0, uses_anonymous_args = 0
	@ link register save eliminated.
	cbnz	r0, .L398
	ldr	r3, .L401
	ldr	r0, [r3]
	bx	lr
.L398:
	cmp	r0, #4
	ite	cc
	movcc	r0, #8192
	movcs	r0, #0
	bx	lr
.L402:
	.align	2
.L401:
	.word	.LANCHOR52
	.size	ftl_get_density, .-ftl_get_density
	.section	.text.gc_hook,"ax",%progbits
	.align	1
	.global	gc_hook
	.syntax unified
	.thumb
	.thumb_func
	.fpu softvfp
	.type	gc_hook, %function
gc_hook:
	@ args = 0, pretend = 0, frame = 0
	@ frame_needed = 0, uses_anonymous_args = 0
	@ link register save eliminated.
	bx	lr
	.size	gc_hook, .-gc_hook
	.section	.text.FtlGetCurEraseBlock,"ax",%progbits
	.align	1
	.global	FtlGetCurEraseBlock
	.syntax unified
	.thumb
	.thumb_func
	.fpu softvfp
	.type	FtlGetCurEraseBlock, %function
FtlGetCurEraseBlock:
	@ args = 0, pretend = 0, frame = 0
	@ frame_needed = 0, uses_anonymous_args = 0
	@ link register save eliminated.
	ldr	r3, .L405
	ldrh	r0, [r3]
	bx	lr
.L406:
	.align	2
.L405:
	.word	.LANCHOR53
	.size	FtlGetCurEraseBlock, .-FtlGetCurEraseBlock
	.section	.text.FtlGetAllBlockNum,"ax",%progbits
	.align	1
	.global	FtlGetAllBlockNum
	.syntax unified
	.thumb
	.thumb_func
	.fpu softvfp
	.type	FtlGetAllBlockNum, %function
FtlGetAllBlockNum:
	@ args = 0, pretend = 0, frame = 0
	@ frame_needed = 0, uses_anonymous_args = 0
	@ link register save eliminated.
	ldr	r3, .L408
	ldrh	r0, [r3]
	bx	lr
.L409:
	.align	2
.L408:
	.word	.LANCHOR54
	.size	FtlGetAllBlockNum, .-FtlGetAllBlockNum
	.section	.text.FtlLowFormat,"ax",%progbits
	.align	1
	.global	FtlLowFormat
	.syntax unified
	.thumb
	.thumb_func
	.fpu softvfp
	.type	FtlLowFormat, %function
FtlLowFormat:
	@ args = 0, pretend = 0, frame = 0
	@ frame_needed = 0, uses_anonymous_args = 0
	@ link register save eliminated.
	movs	r0, #0
	bx	lr
	.size	FtlLowFormat, .-FtlLowFormat
	.section	.text.gc_add_sblk,"ax",%progbits
	.align	1
	.global	gc_add_sblk
	.syntax unified
	.thumb
	.thumb_func
	.fpu softvfp
	.type	gc_add_sblk, %function
gc_add_sblk:
	@ args = 0, pretend = 0, frame = 0
	@ frame_needed = 0, uses_anonymous_args = 0
	ldr	r3, .L438
	push	{r4, r5, r6, r7, r8, r10, lr}
	mov	r5, r0
	sub	sp, sp, #20
	mov	r6, r1
	mov	r7, r2
	ldrh	r3, [r3]
	cmp	r3, r0
	bhi	.L412
	movs	r2, #240
	ldr	r1, .L438+4
	ldr	r0, .L438+8
	bl	printf
.L413:
	b	.L413
.L412:
	ldr	r3, .L438+12
	lsl	r8, r0, #2
	ldr	r10, .L438+36
	ldr	r3, [r3]
	ldrh	r4, [r3, r0, lsl #1]
	ldr	r3, .L438+16
	ldr	r3, [r3]
	tst	r3, #256
	beq	.L414
	ldr	r2, .L438+20
	ldr	r3, [r10]
	ldrh	r2, [r2]
	add	r3, r3, r8
	ldrb	r3, [r3, #2]	@ zero_extendqisi2
	str	r2, [sp, #8]
	ldr	r2, .L438+24
	lsrs	r3, r3, #5
	ldrh	r2, [r2, #52]
	str	r4, [sp]
	str	r2, [sp, #4]
	mov	r2, r1
	mov	r1, r0
	ldr	r0, .L438+28
	bl	printf
.L414:
	ldr	r3, [r10]
	add	r3, r3, r8
	ldrb	r3, [r3, #2]	@ zero_extendqisi2
	tst	r3, #224
	bne	.L415
	cmp	r4, #0
	beq	.L429
	movs	r2, #245
	ldr	r1, .L438+4
	ldr	r0, .L438+8
	bl	printf
.L417:
	b	.L417
.L415:
	ldr	r3, .L438+24
	ldrh	r2, [r3]
	cmp	r2, r5
	beq	.L429
	ldr	r2, .L438+32
	ldr	r2, [r2]
	ldrh	r1, [r2, #48]
	cmp	r1, r5
	beq	.L429
	ldrh	r1, [r2, #16]
	cmp	r1, r5
	beq	.L429
	ldrh	r1, [r2, #80]
	cmp	r1, r5
	beq	.L429
	ldrh	r0, [r3, #52]!
	movs	r1, #0
.L418:
	cmp	r1, r0
	bcc	.L419
	add	r3, r2, r7, lsl #7
	adds	r3, r3, #136
	cbz	r6, .L420
	add	r3, r2, #392
.L420:
	add	r0, r3, #128
	movw	r4, #65535
.L423:
	mov	r1, r3
	adds	r3, r3, #2
	ldrh	ip, [r1]
	cmp	ip, r4
	bne	.L421
	strh	r5, [r1]	@ movhi
	cbz	r6, .L422
	ldrh	r3, [r2, #124]
	adds	r3, r3, #1
	strh	r3, [r2, #124]	@ movhi
.L437:
	movs	r0, #1
.L411:
	add	sp, sp, #20
	@ sp needed
	pop	{r4, r5, r6, r7, r8, r10, pc}
.L419:
	ldrh	r4, [r3, #2]!
	cmp	r4, r5
	beq	.L429
	adds	r1, r1, #1
	b	.L418
.L422:
	add	r2, r2, r7, lsl #1
	ldrh	r3, [r2, #120]
	adds	r3, r3, #1
	strh	r3, [r2, #120]	@ movhi
	b	.L437
.L421:
	cmp	r0, r3
	bne	.L423
	b	.L437
.L429:
	movs	r0, #0
	b	.L411
.L439:
	.align	2
.L438:
	.word	.LANCHOR54
	.word	.LANCHOR55
	.word	.LC0
	.word	.LANCHOR56
	.word	.LANCHOR22
	.word	.LANCHOR58
	.word	.LANCHOR59
	.word	.LC7
	.word	.LANCHOR60
	.word	.LANCHOR57
	.size	gc_add_sblk, .-gc_add_sblk
	.section	.text.gc_get_src_ppa_from_index,"ax",%progbits
	.align	1
	.global	gc_get_src_ppa_from_index
	.syntax unified
	.thumb
	.thumb_func
	.fpu softvfp
	.type	gc_get_src_ppa_from_index, %function
gc_get_src_ppa_from_index:
	@ args = 0, pretend = 0, frame = 0
	@ frame_needed = 0, uses_anonymous_args = 0
	@ link register save eliminated.
	ldr	r3, .L441
	ldr	r3, [r3]
	ldr	r0, [r3, r0, lsl #2]
	bx	lr
.L442:
	.align	2
.L441:
	.word	.LANCHOR61
	.size	gc_get_src_ppa_from_index, .-gc_get_src_ppa_from_index
	.section	.text.gc_write_completed,"ax",%progbits
	.align	1
	.global	gc_write_completed
	.syntax unified
	.thumb
	.thumb_func
	.fpu softvfp
	.type	gc_write_completed, %function
gc_write_completed:
	@ args = 0, pretend = 0, frame = 8
	@ frame_needed = 0, uses_anonymous_args = 0
	push	{r0, r1, r2, r3, r4, r5, r6, r7, r8, r10, fp, lr}
	ldr	r6, .L465
.L444:
	ldr	r1, .L465+4
	ldrb	r5, [r1]	@ zero_extendqisi2
	cmp	r5, #255
	bne	.L457
	add	sp, sp, #16
	@ sp needed
	pop	{r4, r5, r6, r7, r8, r10, fp, pc}
.L457:
	movs	r3, #48
	muls	r3, r5, r3
	adds	r2, r6, r3
	ldrb	r3, [r6, r3]	@ zero_extendqisi2
	ldrh	r4, [r2, #32]
	strb	r3, [r1]
	ldr	r1, [r2, #36]
	cbz	r1, .L445
	ldr	r3, .L465+8
	movs	r0, #1
	ldr	r2, [r2, #24]
	strh	r0, [r3, #314]	@ movhi
	ldr	r0, .L465+12
	str	r2, [r3, #316]
	bl	printf
	mov	r2, #502
	ldr	r1, .L465+16
	ldr	r0, .L465+20
	bl	printf
.L446:
	b	.L446
.L445:
	ldr	fp, .L465+40
	ldr	r10, .L465+44
	ldrb	r3, [fp]	@ zero_extendqisi2
	cmp	r3, #3
	itett	eq
	ldreq	r3, .L465+24
	movne	r7, #1
	ldreq	r3, [r3]
	ldrbeq	r7, [r3, #89]	@ zero_extendqisi2
	ldr	r3, .L465+28
	ldr	r3, [r3]
	it	eq
	addeq	r7, r7, r7, lsl #1
	tst	r3, #256
	beq	.L448
	movs	r3, #48
	mov	r1, r4
	mla	r3, r3, r5, r6
	ldr	r0, .L465+32
	ldrb	r2, [r3, #1]	@ zero_extendqisi2
	ldr	r3, [r10]
	ldrb	r3, [r3, r4]	@ zero_extendqisi2
	str	r3, [sp]
	mov	r3, r4
	bl	printf
.L448:
	movs	r2, #48
	ldr	r3, [r10]
	mla	r5, r2, r5, r6
	ldrb	r1, [r3, r4]	@ zero_extendqisi2
	adds	r0, r3, r4
	mov	r8, r4
	ldrb	r3, [r5, #1]	@ zero_extendqisi2
	cmp	r1, r3
	beq	.L449
	movw	r2, #509
	ldr	r1, .L465+16
	ldr	r0, .L465+20
	bl	printf
.L450:
	b	.L450
.L449:
	ldrb	r3, [r5, #45]	@ zero_extendqisi2
	cmp	r3, #3
	beq	.L451
	ldrb	r3, [fp]	@ zero_extendqisi2
	cmp	r3, #3
	bne	.L451
	ldr	r3, .L465+36
	ldrb	r3, [r3]	@ zero_extendqisi2
	cbnz	r3, .L451
	mov	r4, r3
.L452:
	uxth	r1, r3
	cmp	r7, r1
	bls	.L444
	ldrb	r1, [r0, r3]	@ zero_extendqisi2
	adds	r3, r3, #1
	mla	r1, r2, r1, r6
	strb	r4, [r1, #45]
	b	.L452
.L451:
	ldr	r5, .L465+8
	mov	fp, #255
	movs	r3, #48
	strh	r4, [r5, #312]	@ movhi
.L453:
	sub	r2, r8, r4
	uxth	r2, r2
	cmp	r7, r2
	bls	.L444
	ldr	r2, [r10]
	movs	r1, #0
	str	r3, [sp, #12]
	ldrb	r0, [r2, r8]	@ zero_extendqisi2
	strb	fp, [r2, r8]
	add	r8, r8, #1
	mla	r2, r3, r0, r6
	add	r0, r0, r0, lsl #1
	strb	r1, [r2, #45]
	add	r0, r6, r0, lsl #4
	bl	buf_free
	ldrb	r2, [r5, #7]	@ zero_extendqisi2
	ldr	r3, [sp, #12]
	subs	r2, r2, #1
	strb	r2, [r5, #7]
	b	.L453
.L466:
	.align	2
.L465:
	.word	.LANCHOR36
	.word	.LANCHOR62
	.word	.LANCHOR59
	.word	.LC8
	.word	.LANCHOR63
	.word	.LC0
	.word	.LANCHOR60
	.word	.LANCHOR22
	.word	.LC9
	.word	.LANCHOR66
	.word	.LANCHOR64
	.word	.LANCHOR65
	.size	gc_write_completed, .-gc_write_completed
	.section	.text.gc_get_src_blk,"ax",%progbits
	.align	1
	.global	gc_get_src_blk
	.syntax unified
	.thumb
	.thumb_func
	.fpu softvfp
	.type	gc_get_src_blk, %function
gc_get_src_blk:
	@ args = 0, pretend = 0, frame = 0
	@ frame_needed = 0, uses_anonymous_args = 0
	ldr	r3, .L476
	push	{r4, r5, r6, r7, lr}
	ldr	r2, [r3]
	ldr	r3, .L476+4
	ldrh	r4, [r2, #124]
	ldrb	r1, [r3]	@ zero_extendqisi2
	cbz	r4, .L468
	add	r3, r2, #392
	movs	r4, #1
.L469:
	add	r6, r3, #128
	movw	r5, #65535
.L473:
	mov	r7, r3
	ldrh	r0, [r3], #2
	cmp	r0, r5
	beq	.L471
	strh	r5, [r7]	@ movhi
	cbz	r4, .L472
	ldrh	r3, [r2, #124]
	subs	r3, r3, #1
	strh	r3, [r2, #124]	@ movhi
	pop	{r4, r5, r6, r7, pc}
.L468:
	add	r3, r1, #60
	ldrh	r3, [r2, r3, lsl #1]
	cbz	r3, .L474
	add	r3, r2, r1, lsl #7
	adds	r3, r3, #136
	b	.L469
.L472:
	add	r2, r2, r1, lsl #1
	ldrh	r3, [r2, #120]
	subs	r3, r3, #1
	strh	r3, [r2, #120]	@ movhi
	pop	{r4, r5, r6, r7, pc}
.L471:
	cmp	r3, r6
	bne	.L473
	pop	{r4, r5, r6, r7, pc}
.L474:
	movw	r0, #65535
	pop	{r4, r5, r6, r7, pc}
.L477:
	.align	2
.L476:
	.word	.LANCHOR60
	.word	.LANCHOR67
	.size	gc_get_src_blk, .-gc_get_src_blk
	.section	.text.gc_free_temp_buf,"ax",%progbits
	.align	1
	.global	gc_free_temp_buf
	.syntax unified
	.thumb
	.thumb_func
	.fpu softvfp
	.type	gc_free_temp_buf, %function
gc_free_temp_buf:
	@ args = 0, pretend = 0, frame = 0
	@ frame_needed = 0, uses_anonymous_args = 0
	push	{r3, r4, r5, r6, r7, lr}
	ldr	r5, .L492
	ldrb	r0, [r5, #7]	@ zero_extendqisi2
	cbz	r0, .L478
	ldr	r3, .L492+4
	ldrb	r3, [r3]	@ zero_extendqisi2
	cmp	r3, #1
	bhi	.L485
	ldr	r3, .L492+8
	movs	r7, #48
	ldrh	r4, [r5, #312]
	ldr	r6, .L492+12
	ldrh	r2, [r3]
	ldr	r3, .L492+16
	add	r1, r4, #24
	ldr	r0, .L492+20
	ldrb	r3, [r3]	@ zero_extendqisi2
	muls	r2, r3, r2
	cmp	r2, r1
	it	cs
	movcs	r2, r1
	ldr	r1, [r6]
.L480:
	cmp	r4, r2
	bcc	.L483
.L485:
	movs	r0, #0
.L478:
	pop	{r3, r4, r5, r6, r7, pc}
.L483:
	ldrb	r3, [r1, r4]	@ zero_extendqisi2
	cmp	r3, #255
	beq	.L481
	mla	ip, r7, r3, r0
	ldrb	ip, [ip, #45]	@ zero_extendqisi2
	cmp	ip, #0
	bne	.L481
	add	r3, r3, r3, lsl #1
	add	r0, r0, r3, lsl #4
	bl	buf_free
	ldr	r3, .L492+24
	ldr	r3, [r3]
	lsls	r3, r3, #23
	bpl	.L482
	ldr	r3, [r6]
	mov	r1, r4
	ldr	r0, .L492+28
	ldrb	r2, [r3, r4]	@ zero_extendqisi2
	bl	printf
.L482:
	ldr	r3, [r6]
	movs	r2, #255
	movs	r0, #1
	strb	r2, [r3, r4]
	ldrb	r3, [r5, #7]	@ zero_extendqisi2
	subs	r3, r3, #1
	strb	r3, [r5, #7]
	pop	{r3, r4, r5, r6, r7, pc}
.L481:
	adds	r4, r4, #1
	b	.L480
.L493:
	.align	2
.L492:
	.word	.LANCHOR59
	.word	.LANCHOR38
	.word	.LANCHOR68
	.word	.LANCHOR65
	.word	.LANCHOR69
	.word	.LANCHOR36
	.word	.LANCHOR22
	.word	.LC10
	.size	gc_free_temp_buf, .-gc_free_temp_buf
	.section	.text.gc_static_wearleveling,"ax",%progbits
	.align	1
	.global	gc_static_wearleveling
	.syntax unified
	.thumb
	.thumb_func
	.fpu softvfp
	.type	gc_static_wearleveling, %function
gc_static_wearleveling:
	@ args = 0, pretend = 0, frame = 8
	@ frame_needed = 0, uses_anonymous_args = 0
	push	{r0, r1, r2, r3, r4, r5, r6, r7, r8, r10, fp, lr}
	ldr	r3, .L542
	ldr	r4, [r3]
	ldr	r3, [r4, #32]
	cmp	r3, #20480
	bls	.L495
	ldr	r2, [r4, #36]
	add	r2, r2, r3, lsr #10
	ubfx	r3, r3, #0, #10
	str	r3, [r4, #32]
	str	r2, [r4, #36]
.L495:
	ldr	r3, .L542+4
	ldr	r0, [r4, #36]
	ldr	r3, [r3]
	ldr	r2, [r3, #568]
	ldr	r1, [r3, #12]
	add	r2, r2, #12910592
	add	r2, r2, #49408
	cmp	r1, r2
	bhi	.L496
	ldr	r2, [r3, #572]
	adds	r2, r2, #128
	cmp	r0, r2
	bls	.L494
.L496:
	str	r0, [r3, #572]
	movw	r6, #65535
	str	r1, [r3, #568]
	movs	r0, #0
	ldr	r3, .L542+8
	mov	r2, r0
	ldrh	ip, [r4, #134]
	mov	r8, r0
	mov	r10, r0
	mov	fp, r0
	ldrh	r3, [r3]
	mov	r7, r0
	mov	r5, r6
	str	r3, [sp, #8]
	ldr	r3, .L542+12
	ldr	r3, [r3]
	add	r3, r3, ip, lsl #2
.L498:
	ldr	r1, [sp, #8]
	cmp	ip, r1
	bcc	.L502
	ldrh	r3, [r4, #96]
	mov	r1, r10
	str	r2, [sp, #12]
	cmp	r3, fp
	ldrh	r3, [r4, #98]
	it	cc
	strhcc	fp, [r4, #96]	@ movhi
	cmp	r3, r7
	it	cc
	strhcc	r7, [r4, #98]	@ movhi
	bl	__aeabi_uidiv
	ldr	r2, [sp, #12]
	mov	r1, r8
	strh	r0, [r4, #88]	@ movhi
	str	r0, [sp, #8]
	mov	r0, r2
	bl	__aeabi_uidiv
	strh	r0, [r4, #90]	@ movhi
	ldr	r4, .L542+16
	ldr	r3, [sp, #8]
	ldr	r2, [r4]
	tst	r2, #256
	beq	.L505
	uxth	r0, r0
	uxth	r3, r3
	str	r0, [sp]
	mov	r2, r8
	mov	r1, r10
	ldr	r0, .L542+20
	bl	printf
.L505:
	ldr	r3, [r4]
	lsls	r2, r3, #23
	bpl	.L506
	str	r7, [sp]
	mov	r3, fp
	mov	r2, r5
	mov	r1, r6
	ldr	r0, .L542+24
	bl	printf
.L506:
	subs	r7, r7, r5
	cmp	r7, #64
	bgt	.L507
.L513:
	cmp	r5, #0
	bne	.L508
.L514:
	cbz	r6, .L494
	ldr	r3, .L542
	ldr	r2, .L542+8
	ldr	r1, [r3]
	ldrh	r5, [r2]
	ldr	r2, .L542+12
	ldrh	r3, [r1, #134]
	ldr	r2, [r2]
	add	r2, r2, r3, lsl #2
.L519:
	cmp	r3, r5
	bcc	.L521
	ldrh	r3, [r1, #74]
	add	r3, r3, r6
	strh	r3, [r1, #74]	@ movhi
	ldrh	r3, [r1, #96]
	cmp	r6, r3
	bcs	.L494
	subs	r6, r3, r6
	strh	r6, [r1, #96]	@ movhi
.L494:
	add	sp, sp, #16
	@ sp needed
	pop	{r4, r5, r6, r7, r8, r10, fp, pc}
.L502:
	ldrb	r1, [r3, #2]	@ zero_extendqisi2
	tst	r1, #8
	beq	.L499
	ldrh	lr, [r3]
	ldr	r1, [r3]
	ubfx	lr, lr, #0, #11
	ubfx	r1, r1, #11, #8
.L500:
	cmp	r6, lr
	add	r0, r0, lr
	it	cs
	movcs	r6, lr
	cmp	fp, lr
	it	cc
	movcc	fp, lr
	movw	lr, #65535
	cmp	r1, lr
	add	r10, r10, #1
	uxth	r10, r10
	bne	.L522
	b	.L523
.L499:
	tst	r1, #24
	bne	.L501
	ldrh	lr, [r3]
	movw	r1, #65535
	ubfx	lr, lr, #0, #11
	b	.L500
.L501:
	ldr	r1, [r3]
	ubfx	r1, r1, #11, #8
.L522:
	cmp	r5, r1
	add	r8, r8, #1
	it	cs
	movcs	r5, r1
	uxth	r8, r8
	cmp	r7, r1
	add	r2, r2, r1
	it	cc
	movcc	r7, r1
.L523:
	add	ip, ip, #1
	adds	r3, r3, #4
	uxth	ip, ip
	b	.L498
.L507:
	ldr	r3, .L542
	ldr	r7, .L542+8
	ldr	r8, .L542+12
	ldr	r3, [r3]
	ldrh	r4, [r3, #134]
.L510:
	ldrh	r3, [r7]
	cmp	r3, r4
	bls	.L513
	ldr	r1, [r8]
	lsls	r2, r4, #2
	adds	r3, r1, r2
	ldrb	r3, [r3, #2]	@ zero_extendqisi2
	tst	r3, #192
	beq	.L511
	and	r0, r3, #224
	cmp	r0, #224
	beq	.L511
	ubfx	r3, r3, #3, #2
	lsls	r3, r3, #30
	bpl	.L511
	ldr	r3, [r1, r2]
	ubfx	r3, r3, #11, #8
	cmp	r3, r5
	bhi	.L511
	movs	r2, #1
	mov	r0, r4
	mov	r1, r2
	bl	gc_add_sblk
.L511:
	adds	r4, r4, #1
	uxth	r4, r4
	b	.L510
.L508:
	ldr	r3, .L542
	ldr	r2, .L542+8
	ldr	r1, [r3]
	ldrh	r7, [r2]
	ldr	r2, .L542+12
	ldrh	r3, [r1, #134]
	ldr	r2, [r2]
	add	r2, r2, r3, lsl #2
.L515:
	cmp	r3, r7
	bcc	.L517
	ldrh	r3, [r1, #72]
	add	r3, r3, r5
	strh	r3, [r1, #72]	@ movhi
	ldrh	r3, [r1, #98]
	cmp	r5, r3
	itt	cc
	subcc	r5, r3, r5
	strhcc	r5, [r1, #98]	@ movhi
	b	.L514
.L517:
	ldr	r0, [r2]
	adds	r3, r3, #1
	uxth	r3, r3
	adds	r2, r2, #4
	ubfx	r4, r0, #11, #8
	cmp	r5, r4
	ittt	ls
	subls	r4, r4, r5
	bfils	r0, r4, #11, #8
	strls	r0, [r2, #-4]
	b	.L515
.L521:
	ldrh	r0, [r2]
	adds	r3, r3, #1
	uxth	r3, r3
	adds	r2, r2, #4
	ubfx	r4, r0, #0, #11
	cmp	r4, r6
	ittt	ge
	subge	r4, r4, r6
	bfige	r0, r4, #0, #11
	strhge	r0, [r2, #-4]	@ movhi
	b	.L519
.L543:
	.align	2
.L542:
	.word	.LANCHOR46
	.word	.LANCHOR60
	.word	.LANCHOR54
	.word	.LANCHOR57
	.word	.LANCHOR22
	.word	.LC11
	.word	.LC12
	.size	gc_static_wearleveling, .-gc_static_wearleveling
	.section	.text.print_gc_debug_info,"ax",%progbits
	.align	1
	.global	print_gc_debug_info
	.syntax unified
	.thumb
	.thumb_func
	.fpu softvfp
	.type	print_gc_debug_info, %function
print_gc_debug_info:
	@ args = 0, pretend = 0, frame = 0
	@ frame_needed = 0, uses_anonymous_args = 0
	push	{r0, r1, r2, lr}
	ldr	r0, .L545
	ldrh	r3, [r0, #310]
	ldrh	r2, [r0, #2]
	ldrh	r1, [r0]
	ldrb	r0, [r0, #7]	@ zero_extendqisi2
	str	r0, [sp, #4]
	ldr	r0, .L545+4
	ldrb	r0, [r0]	@ zero_extendqisi2
	str	r0, [sp]
	ldr	r0, .L545+8
	bl	printf
	add	sp, sp, #12
	@ sp needed
	ldr	pc, [sp], #4
.L546:
	.align	2
.L545:
	.word	.LANCHOR59
	.word	.LANCHOR38
	.word	.LC13
	.size	print_gc_debug_info, .-print_gc_debug_info
	.global	__aeabi_idiv
	.section	.text.ftl_get_blk_list_in_sblk,"ax",%progbits
	.align	1
	.global	ftl_get_blk_list_in_sblk
	.syntax unified
	.thumb
	.thumb_func
	.fpu softvfp
	.type	ftl_get_blk_list_in_sblk, %function
ftl_get_blk_list_in_sblk:
	@ args = 0, pretend = 0, frame = 8
	@ frame_needed = 0, uses_anonymous_args = 0
	ldr	r3, .L556
	push	{r0, r1, r4, r5, r6, r7, r8, r10, fp, lr}
	movs	r4, #0
	mov	r7, r1
	mov	r5, r4
	ldr	r3, [r3]
	add	r3, r3, r0, lsl #2
	ldrb	fp, [r3, #3]	@ zero_extendqisi2
	ldr	r3, .L556+4
	ldrb	r10, [r3]	@ zero_extendqisi2
	ldr	r3, .L556+8
	ldrb	r8, [r3]	@ zero_extendqisi2
	ldr	r3, .L556+12
	smulbb	r0, r8, r0
	uxth	r6, r0
.L548:
	cmp	r5, r10
	blt	.L552
	mov	r3, r4
	movw	r2, #65535
.L553:
	cmp	r3, r10
	blt	.L554
	mov	r0, r4
	add	sp, sp, #8
	@ sp needed
	pop	{r4, r5, r6, r7, r8, r10, fp, pc}
.L552:
	asr	r2, fp, r5
	lsls	r2, r2, #31
	bmi	.L549
	mov	r1, r8
	mov	r0, r5
	str	r3, [sp, #4]
	bl	__aeabi_idiv
	ldr	r3, [sp, #4]
	cmp	r8, #1
	ldrh	r2, [r3]
	rsb	r2, r2, #21
	lsl	r0, r0, r2
	it	hi
	andhi	r2, r5, #1
	add	r0, r0, r6
	uxth	r0, r0
	it	hi
	addhi	r0, r0, r2
	strh	r0, [r7, r4, lsl #1]	@ movhi
	adds	r4, r4, #1
.L549:
	adds	r5, r5, #1
	b	.L548
.L554:
	strh	r2, [r7, r3, lsl #1]	@ movhi
	adds	r3, r3, #1
	b	.L553
.L557:
	.align	2
.L556:
	.word	.LANCHOR57
	.word	.LANCHOR69
	.word	.LANCHOR70
	.word	.LANCHOR71
	.size	ftl_get_blk_list_in_sblk, .-ftl_get_blk_list_in_sblk
	.section	.text.ftl_alloc_sblk,"ax",%progbits
	.align	1
	.global	ftl_alloc_sblk
	.syntax unified
	.thumb
	.thumb_func
	.fpu softvfp
	.type	ftl_alloc_sblk, %function
ftl_alloc_sblk:
	@ args = 0, pretend = 0, frame = 16
	@ frame_needed = 0, uses_anonymous_args = 0
.L559:
	ldr	r3, .L580
	cmp	r0, #5
	push	{r4, r5, r6, r7, r8, r10, fp, lr}
	sub	sp, sp, #24
	movw	r4, #65535
	mov	r5, r0
	mov	lr, #0
	mov	ip, r4
	ldrh	r3, [r3]
	str	r3, [sp, #8]
	ite	ne
	movne	r3, #0
	moveq	r3, #2
	ldr	r8, [sp, #8]
	str	r3, [sp, #12]
	ite	ne
	movne	r3, #2
	moveq	r3, #0
	str	r3, [sp, #20]
	ldr	r3, .L580+4
	ldr	r2, [r3]
	ldr	r3, .L580+8
	ldr	r3, [r3]
	str	r3, [sp, #16]
.L574:
	ldrh	r7, [r2, #132]
	ldr	r1, [sp, #16]
	mov	r3, r7
	add	r1, r1, r7, lsl #2
.L560:
	cmp	r3, r8
	blt	.L572
	subs	r3, r3, r7
	ldr	r1, [sp, #8]
	add	lr, lr, r3
	ldrh	r3, [r2, #134]
	uxth	lr, lr
	subs	r1, r1, r3
	cmp	lr, r1
	blt	.L573
	movw	r1, #65535
	cmp	r4, r1
	beq	.L573
	ldr	r3, [sp, #16]
	add	r6, r3, r4, lsl #2
	b	.L564
.L572:
	ldrb	r0, [r1, #2]	@ zero_extendqisi2
	mov	r6, r1
	tst	r0, #224
	bne	.L561
	ubfx	r10, r0, #3, #2
	ldr	r0, [sp, #20]
	cmp	r0, r10
	beq	.L561
	ldr	r0, [sp, #12]
	cbz	r0, .L562
	ldr	r0, [r1]
	ldrh	fp, [r2, #72]
	ldrh	r10, [r2, #90]
	ubfx	r0, r0, #11, #8
	add	fp, fp, r0
	add	r10, r10, #1
	cmp	fp, r10
	ble	.L563
	uxth	r0, r0
	cmp	ip, r0
	bls	.L561
	uxth	r4, r3
	mov	ip, r0
.L561:
	adds	r3, r3, #1
	adds	r1, r1, #4
	b	.L560
.L562:
	ldrh	r0, [r1]
	ldrh	fp, [r2, #74]
	ldrh	r10, [r2, #88]
	ubfx	r0, r0, #0, #11
	add	fp, fp, r0
	add	r10, r10, #1
	cmp	fp, r10
	ble	.L563
	cmp	r0, ip
	bge	.L561
	mov	ip, r0
	uxth	r4, r3
	b	.L561
.L563:
	uxth	r4, r3
.L564:
	ldr	r3, .L580+12
	ldr	r3, [r3]
	lsls	r1, r3, #19
	bpl	.L565
	ldrb	r3, [r6, #2]	@ zero_extendqisi2
	mov	r1, r4
	ldrb	r2, [r6, #3]	@ zero_extendqisi2
	ldr	r0, .L580+16
	str	r2, [sp]
	lsrs	r3, r3, #5
	mov	r2, r5
	bl	printf
.L565:
	ldrb	r3, [r6, #2]	@ zero_extendqisi2
	ldr	r1, [sp, #12]
	bfi	r3, r5, #5, #3
	uxtb	r3, r3
	ubfx	r2, r3, #3, #2
	orrs	r2, r2, r1
	bfi	r3, r2, #3, #2
	lsls	r2, r2, #31
	strb	r3, [r6, #2]
	ldr	r3, .L580+4
	ldr	r3, [r3]
	strh	r4, [r3, #132]	@ movhi
	bpl	.L566
	ldrh	r2, [r3, #116]
	subs	r2, r2, #1
	strh	r2, [r3, #116]	@ movhi
.L567:
	cmp	r5, #5
	bne	.L569
	ldrh	r2, [r3, #120]
	adds	r2, r2, #1
	strh	r2, [r3, #120]	@ movhi
.L576:
	mov	r0, r4
	add	sp, sp, #24
	@ sp needed
	pop	{r4, r5, r6, r7, r8, r10, fp, pc}
.L566:
	ldrb	r2, [r6, #2]	@ zero_extendqisi2
	tst	r2, #24
	itete	eq
	ldrheq	r2, [r3, #114]
	ldrhne	r2, [r3, #118]
	addeq	r2, r2, #-1
	addne	r2, r2, #-1
	ite	eq
	strheq	r2, [r3, #114]	@ movhi
	strhne	r2, [r3, #118]	@ movhi
	b	.L567
.L569:
	cmp	r5, #2
	bne	.L571
	ldrh	r2, [r3, #122]
	adds	r2, r2, #1
	strh	r2, [r3, #122]	@ movhi
	b	.L576
.L571:
	cmp	r5, #3
	bne	.L576
	ldrh	r2, [r3, #124]
	adds	r2, r2, #1
	strh	r2, [r3, #124]	@ movhi
	b	.L576
.L573:
	strh	r3, [r2, #132]	@ movhi
	mov	r8, r7
	b	.L574
.L581:
	.align	2
.L580:
	.word	.LANCHOR54
	.word	.LANCHOR46
	.word	.LANCHOR57
	.word	.LANCHOR22
	.word	.LC14
	.size	ftl_alloc_sblk, .-ftl_alloc_sblk
	.section	.text.ftl_free_sblk,"ax",%progbits
	.align	1
	.global	ftl_free_sblk
	.syntax unified
	.thumb
	.thumb_func
	.fpu softvfp
	.type	ftl_free_sblk, %function
ftl_free_sblk:
	@ args = 0, pretend = 0, frame = 0
	@ frame_needed = 0, uses_anonymous_args = 0
	push	{r3, r4, r5, lr}
	movw	r3, #65535
	cmp	r0, r3
	bne	.L583
	movw	r2, #313
	ldr	r1, .L593
	ldr	r0, .L593+4
	bl	printf
.L584:
	b	.L584
.L583:
	ldr	r3, .L593+8
	ldr	r2, [r3]
	add	r2, r2, r0, lsl #2
	ldrb	r3, [r2, #2]	@ zero_extendqisi2
	ands	r1, r3, #224
	bne	.L585
	mov	r2, #316
	ldr	r1, .L593
	ldr	r0, .L593+4
	bl	printf
.L586:
	b	.L586
.L585:
	cmp	r1, #160
	ubfx	r4, r3, #3, #2
	ldr	r3, .L593+12
	bne	.L587
	ldr	r5, [r3]
	ldrh	r1, [r5, #120]
	subs	r1, r1, #1
	strh	r1, [r5, #120]	@ movhi
.L588:
	ldr	r1, [r3]
	lsls	r3, r4, #31
	bpl	.L590
	ldrh	r3, [r1, #116]
	adds	r3, r3, #1
	strh	r3, [r1, #116]	@ movhi
.L591:
	ldrb	r3, [r2, #2]	@ zero_extendqisi2
	bfc	r3, #5, #3
	strb	r3, [r2, #2]
	movs	r2, #0
	ldr	r3, .L593+16
	ldr	r3, [r3]
	strh	r2, [r3, r0, lsl #1]	@ movhi
	pop	{r3, r4, r5, pc}
.L587:
	cmp	r1, #64
	bne	.L589
	ldr	r5, [r3]
	ldrh	r1, [r5, #122]
	subs	r1, r1, #1
	strh	r1, [r5, #122]	@ movhi
	b	.L588
.L589:
	cmp	r1, #96
	itttt	eq
	ldreq	r5, [r3]
	ldrheq	r1, [r5, #124]
	addeq	r1, r1, #-1
	strheq	r1, [r5, #124]	@ movhi
	b	.L588
.L590:
	cbnz	r4, .L592
	ldrh	r3, [r1, #114]
	adds	r3, r3, #1
	strh	r3, [r1, #114]	@ movhi
	b	.L591
.L592:
	ldrh	r3, [r1, #118]
	adds	r3, r3, #1
	strh	r3, [r1, #118]	@ movhi
	b	.L591
.L594:
	.align	2
.L593:
	.word	.LANCHOR72
	.word	.LC0
	.word	.LANCHOR57
	.word	.LANCHOR46
	.word	.LANCHOR56
	.size	ftl_free_sblk, .-ftl_free_sblk
	.section	.text.gc_free_src_blk,"ax",%progbits
	.align	1
	.global	gc_free_src_blk
	.syntax unified
	.thumb
	.thumb_func
	.fpu softvfp
	.type	gc_free_src_blk, %function
gc_free_src_blk:
	@ args = 0, pretend = 0, frame = 0
	@ frame_needed = 0, uses_anonymous_args = 0
	push	{r3, r4, r5, r6, r7, lr}
	movs	r5, #0
	ldr	r6, .L634
.L596:
	uxth	r2, r5
	ldr	r3, .L634+4
	ldrh	r1, [r3, #52]
	cmp	r1, r2
	bhi	.L612
	movs	r2, #0
	strh	r2, [r3, #52]	@ movhi
	pop	{r3, r4, r5, r6, r7, pc}
.L612:
	uxth	r2, r5
	add	r3, r3, r2, lsl #1
	ldrh	r4, [r3, #54]
	ldr	r3, [r6]
	ldrh	r2, [r3, r4, lsl #1]
	cbz	r2, .L597
	mov	r1, r4
	ldr	r0, .L634+8
	bl	printf
.L597:
	ldr	r3, [r6]
	ldrh	r3, [r3, r4, lsl #1]
	cmp	r3, #0
	bne	.L598
	ldr	r3, .L634+12
	ldr	r7, [r3]
	ldr	r3, .L634+16
	ldr	r3, [r3]
	add	r7, r7, r4, lsl #2
	lsls	r3, r3, #23
	bpl	.L599
	ldrb	r2, [r7, #2]	@ zero_extendqisi2
	mov	r1, r4
	ldr	r0, .L634+20
	lsrs	r2, r2, #5
	bl	printf
.L599:
	ldrb	r3, [r7, #2]	@ zero_extendqisi2
	and	r2, r3, #224
	cmp	r2, #224
	beq	.L600
	tst	r3, #192
	bne	.L601
.L600:
	movw	r2, #753
	ldr	r1, .L634+24
	ldr	r0, .L634+28
	bl	printf
.L602:
	b	.L602
.L601:
	mov	r0, r4
	bl	ftl_free_sblk
	ldr	r3, .L634+32
	ldr	r3, [r3]
	ldrh	r1, [r3, #124]
	cbz	r1, .L603
	add	r0, r3, #392
	movs	r2, #0
.L605:
	ldrh	r7, [r0], #2
	cmp	r4, r7
	bne	.L604
	adds	r2, r2, #196
	movw	r0, #65535
	subs	r1, r1, #1
	strh	r0, [r3, r2, lsl #1]	@ movhi
	strh	r1, [r3, #124]	@ movhi
.L603:
	ldrh	r1, [r3, #120]
	cbz	r1, .L606
	add	r0, r3, #136
	movs	r2, #0
.L608:
	ldrh	r7, [r0], #2
	cmp	r4, r7
	bne	.L607
	adds	r2, r2, #68
	movw	r0, #65535
	subs	r1, r1, #1
	strh	r0, [r3, r2, lsl #1]	@ movhi
	strh	r1, [r3, #120]	@ movhi
.L606:
	ldrh	r1, [r3, #122]
	cbz	r1, .L609
	add	r0, r3, #264
	movs	r2, #0
.L611:
	ldrh	r7, [r0], #2
	cmp	r4, r7
	bne	.L610
	adds	r2, r2, #132
	movw	r0, #65535
	subs	r1, r1, #1
	strh	r0, [r3, r2, lsl #1]	@ movhi
	strh	r1, [r3, #122]	@ movhi
.L609:
	adds	r5, r5, #1
	b	.L596
.L604:
	adds	r2, r2, #1
	cmp	r2, #64
	bne	.L605
	b	.L603
.L607:
	adds	r2, r2, #1
	cmp	r2, #64
	bne	.L608
	b	.L606
.L610:
	adds	r2, r2, #1
	cmp	r2, #64
	bne	.L611
	b	.L609
.L598:
	movs	r2, #0
	movs	r1, #1
	mov	r0, r4
	bl	gc_add_sblk
	b	.L609
.L635:
	.align	2
.L634:
	.word	.LANCHOR56
	.word	.LANCHOR59
	.word	.LC15
	.word	.LANCHOR57
	.word	.LANCHOR22
	.word	.LC16
	.word	.LANCHOR73
	.word	.LC0
	.word	.LANCHOR60
	.size	gc_free_src_blk, .-gc_free_src_blk
	.section	.text.ftl_erase_phy_blk,"ax",%progbits
	.align	1
	.global	ftl_erase_phy_blk
	.syntax unified
	.thumb
	.thumb_func
	.fpu softvfp
	.type	ftl_erase_phy_blk, %function
ftl_erase_phy_blk:
	@ args = 0, pretend = 0, frame = 0
	@ frame_needed = 0, uses_anonymous_args = 0
	push	{r3, r4, r5, r6, r7, lr}
	mov	r6, r1
	ldr	r3, .L641
	ldr	r7, .L641+4
	ldrh	r4, [r3]
	rsb	r3, r4, #21
	movs	r4, #1
	asr	r5, r0, r3
	lsls	r4, r4, r3
	ldr	r3, .L641+8
	subs	r4, r4, #1
	uxtb	r5, r5
	ands	r4, r4, r0
	ldrb	r3, [r3]	@ zero_extendqisi2
	sxth	r4, r4
	cbz	r3, .L637
	ldrh	r2, [r7]
	clz	r1, r1
	lsrs	r1, r1, #5
	mov	r0, r5
	muls	r2, r4, r2
	bl	flash_erase_block_en
.L637:
	ldrh	r2, [r7]
	uxtb	r1, r6
	mov	r0, r5
	muls	r2, r4, r2
	pop	{r3, r4, r5, r6, r7, lr}
	b	flash_erase_block_en
.L642:
	.align	2
.L641:
	.word	.LANCHOR71
	.word	.LANCHOR75
	.word	.LANCHOR74
	.size	ftl_erase_phy_blk, .-ftl_erase_phy_blk
	.section	.text.ftl_erase_sblk,"ax",%progbits
	.align	1
	.global	ftl_erase_sblk
	.syntax unified
	.thumb
	.thumb_func
	.fpu softvfp
	.type	ftl_erase_sblk, %function
ftl_erase_sblk:
	@ args = 0, pretend = 0, frame = 64
	@ frame_needed = 0, uses_anonymous_args = 0
	push	{r4, r5, r6, r7, r8, r10, fp, lr}
	mov	r4, r0
	ldr	r6, .L663
	sub	sp, sp, #64
	mov	r7, r1
	movs	r5, #0
	ldr	r3, [r6]
	add	r3, r3, r0, lsl #2
	ldrb	r8, [r3, #3]	@ zero_extendqisi2
.L644:
	ldr	r3, .L663+4
	ldrb	r3, [r3]	@ zero_extendqisi2
	cmp	r5, r3
	bge	.L651
	ldr	r3, .L663+8
	ldrb	r0, [r3]	@ zero_extendqisi2
	ldr	r3, .L663+12
	ldrh	ip, [r3]
	movs	r3, #0
	mul	r10, r0, r5
	mov	r2, r3
	mul	lr, r0, r4
	b	.L652
.L646:
	add	r1, r2, r10
	asr	r1, r8, r1
	lsls	r1, r1, #31
	bmi	.L645
	add	r1, sp, #64
	add	fp, r1, r3, lsl #2
	and	r1, r2, #1
	add	r1, r1, lr
	mul	r1, ip, r1
	adds	r3, r3, #1
	str	r1, [fp, #-64]
.L645:
	adds	r2, r2, #1
.L652:
	cmp	r2, r0
	blt	.L646
	cmp	r3, #2
	bne	.L647
	ldr	r3, .L663+16
	uxtb	r10, r5
	ldrb	r3, [r3]	@ zero_extendqisi2
	cbz	r3, .L648
	clz	r1, r7
	ldm	sp, {r2, r3}
	lsrs	r1, r1, #5
	mov	r0, r10
	bl	flash_erase_duplane_block
.L648:
	ldm	sp, {r2, r3}
	uxtb	r1, r7
	mov	r0, r10
	bl	flash_erase_duplane_block
.L649:
	adds	r5, r5, #1
	b	.L644
.L647:
	cmp	r3, #1
	bne	.L649
	ldr	r3, .L663+16
	uxtb	r10, r5
	ldrb	r3, [r3]	@ zero_extendqisi2
	cbz	r3, .L650
	clz	r1, r7
	ldr	r2, [sp]
	lsrs	r1, r1, #5
	mov	r0, r10
	bl	flash_erase_block_en
.L650:
	ldr	r2, [sp]
	uxtb	r1, r7
	mov	r0, r10
	bl	flash_erase_block_en
	b	.L649
.L651:
	ldr	r1, .L663+20
	ldr	r0, [r6]
	cbnz	r7, .L653
	ldrh	r2, [r0, r4, lsl #2]
	adds	r3, r2, #1
	ubfx	r3, r3, #0, #11
	bfi	r2, r3, #0, #11
	strh	r2, [r0, r4, lsl #2]	@ movhi
	ldr	r2, [r1]
	ldr	r1, [r2, #84]
	adds	r1, r1, #1
	str	r1, [r2, #84]
	ldrh	r1, [r2, #96]
	cmp	r1, r3
	bge	.L655
	strh	r3, [r2, #96]	@ movhi
.L655:
	movs	r0, #0
	add	sp, sp, #64
	@ sp needed
	pop	{r4, r5, r6, r7, r8, r10, fp, pc}
.L653:
	ldr	r2, [r0, r4, lsl #2]
	ubfx	r3, r2, #11, #8
	adds	r3, r3, #1
	uxtb	r3, r3
	bfi	r2, r3, #11, #8
	uxth	r3, r3
	str	r2, [r0, r4, lsl #2]
	ldr	r2, [r1]
	ldr	r1, [r2, #80]
	adds	r1, r1, #1
	str	r1, [r2, #80]
	ldrh	r1, [r2, #98]
	cmp	r1, r3
	it	cc
	strhcc	r3, [r2, #98]	@ movhi
	b	.L655
.L664:
	.align	2
.L663:
	.word	.LANCHOR57
	.word	.LANCHOR76
	.word	.LANCHOR70
	.word	.LANCHOR75
	.word	.LANCHOR74
	.word	.LANCHOR46
	.size	ftl_erase_sblk, .-ftl_erase_sblk
	.section	.text.ftl_alloc_sys_blk,"ax",%progbits
	.align	1
	.global	ftl_alloc_sys_blk
	.syntax unified
	.thumb
	.thumb_func
	.fpu softvfp
	.type	ftl_alloc_sys_blk, %function
ftl_alloc_sys_blk:
	@ args = 0, pretend = 0, frame = 0
	@ frame_needed = 0, uses_anonymous_args = 0
	push	{r3, r4, r5, r6, r7, lr}
	ldr	r3, .L675
	ldr	r3, [r3]
	ldrh	r2, [r3, #136]
	ldrh	r1, [r3, #112]
	cmp	r2, #63
	itt	hi
	movhi	r2, #0
	strhhi	r2, [r3, #136]	@ movhi
	cbnz	r1, .L667
	mov	r2, #440
	ldr	r1, .L675+4
	ldr	r0, .L675+8
	bl	printf
.L668:
	b	.L668
.L667:
	movw	r5, #65535
	movs	r6, #0
	mov	r7, r5
.L673:
	ldrh	r2, [r3, #136]
	add	r4, r3, r2, lsl #1
	adds	r4, r4, #158
.L669:
	cmp	r2, #63
	ble	.L671
	strh	r6, [r3, #136]	@ movhi
	b	.L673
.L671:
	ldrh	r0, [r4, #2]!
	cmp	r0, r5
	bne	.L674
	adds	r2, r2, #1
	b	.L669
.L674:
	add	r4, r2, #80
	subs	r1, r1, #1
	strh	r7, [r3, r4, lsl #1]	@ movhi
	strh	r2, [r3, #136]	@ movhi
	strh	r1, [r3, #112]	@ movhi
	pop	{r3, r4, r5, r6, r7, pc}
.L676:
	.align	2
.L675:
	.word	.LANCHOR46
	.word	.LANCHOR77
	.word	.LC0
	.size	ftl_alloc_sys_blk, .-ftl_alloc_sys_blk
	.section	.text.ftl_free_sys_blk,"ax",%progbits
	.align	1
	.global	ftl_free_sys_blk
	.syntax unified
	.thumb
	.thumb_func
	.fpu softvfp
	.type	ftl_free_sys_blk, %function
ftl_free_sys_blk:
	@ args = 0, pretend = 0, frame = 0
	@ frame_needed = 0, uses_anonymous_args = 0
	push	{r3, r4, r5, r6, r7, lr}
	ldr	r3, .L686
	ldr	r3, [r3]
	ldrh	r2, [r3, #138]
	ldrh	r1, [r3, #112]
	cmp	r2, #63
	itt	hi
	movhi	r2, #0
	strhhi	r2, [r3, #138]	@ movhi
	cmp	r1, #63
	bls	.L679
	mov	r2, #464
	ldr	r1, .L686+4
	ldr	r0, .L686+8
	bl	printf
.L680:
	b	.L680
.L679:
	movw	r6, #65535
	movs	r5, #0
.L685:
	ldrh	r2, [r3, #138]
	add	r4, r3, r2, lsl #1
	adds	r4, r4, #158
.L681:
	cmp	r2, #63
	ble	.L683
	strh	r5, [r3, #138]	@ movhi
	b	.L685
.L683:
	ldrh	r7, [r4, #2]!
	cmp	r7, r6
	bne	.L682
	add	r4, r2, #80
	adds	r1, r1, #1
	strh	r0, [r3, r4, lsl #1]	@ movhi
	strh	r2, [r3, #138]	@ movhi
	strh	r1, [r3, #112]	@ movhi
	pop	{r3, r4, r5, r6, r7, pc}
.L682:
	adds	r2, r2, #1
	b	.L681
.L687:
	.align	2
.L686:
	.word	.LANCHOR46
	.word	.LANCHOR78
	.word	.LC0
	.size	ftl_free_sys_blk, .-ftl_free_sys_blk
	.section	.text.ftl_info_data_recovery,"ax",%progbits
	.align	1
	.global	ftl_info_data_recovery
	.syntax unified
	.thumb
	.thumb_func
	.fpu softvfp
	.type	ftl_info_data_recovery, %function
ftl_info_data_recovery:
	@ args = 0, pretend = 0, frame = 0
	@ frame_needed = 0, uses_anonymous_args = 0
	ldrh	r1, [r0]
	movw	r3, #65535
	push	{r4, r5, lr}
	cmp	r1, r3
	beq	.L688
	ldr	r3, .L697
	ldr	r4, [r3]
	add	r2, r4, r1, lsl #2
	ldrb	r3, [r2, #2]	@ zero_extendqisi2
	tst	r3, #224
	bne	.L688
	ldrb	r0, [r0, #4]	@ zero_extendqisi2
	bfi	r3, r0, #5, #3
	strb	r3, [r2, #2]
	uxtb	r3, r3
	ldr	r2, .L697+4
	tst	r3, #8
	ldr	r5, [r2]
	beq	.L692
	ldrh	r0, [r5, #116]
	subs	r0, r0, #1
	strh	r0, [r5, #116]	@ movhi
.L693:
	and	r3, r3, #224
	cmp	r3, #160
	bne	.L695
	ldr	r3, [r4, r1, lsl #2]
	ldr	r2, [r2]
	ubfx	r0, r3, #11, #8
	adds	r0, r0, #1
	bfi	r3, r0, #11, #8
	str	r3, [r4, r1, lsl #2]
	ldrh	r3, [r2, #120]
	subs	r3, r3, #1
	strh	r3, [r2, #120]	@ movhi
	pop	{r4, r5, pc}
.L692:
	tst	r3, #24
	itete	eq
	ldrheq	r0, [r5, #114]
	ldrhne	r0, [r5, #118]
	addeq	r0, r0, #-1
	addne	r0, r0, #-1
	ite	eq
	strheq	r0, [r5, #114]	@ movhi
	strhne	r0, [r5, #118]	@ movhi
	b	.L693
.L695:
	ldrh	r0, [r4, r1, lsl #2]
	cmp	r3, #64
	add	r5, r0, #1
	bfi	r0, r5, #0, #11
	strh	r0, [r4, r1, lsl #2]	@ movhi
	bne	.L696
	ldr	r2, [r2]
	ldrh	r3, [r2, #122]
	subs	r3, r3, #1
	strh	r3, [r2, #122]	@ movhi
	pop	{r4, r5, pc}
.L696:
	cmp	r3, #96
	itttt	eq
	ldreq	r2, [r2]
	ldrheq	r3, [r2, #124]
	addeq	r3, r3, #-1
	strheq	r3, [r2, #124]	@ movhi
.L688:
	pop	{r4, r5, pc}
.L698:
	.align	2
.L697:
	.word	.LANCHOR57
	.word	.LANCHOR46
	.size	ftl_info_data_recovery, .-ftl_info_data_recovery
	.section	.text.ftl_get_ppa_from_index,"ax",%progbits
	.align	1
	.global	ftl_get_ppa_from_index
	.syntax unified
	.thumb
	.thumb_func
	.fpu softvfp
	.type	ftl_get_ppa_from_index, %function
ftl_get_ppa_from_index:
	@ args = 0, pretend = 0, frame = 0
	@ frame_needed = 0, uses_anonymous_args = 0
	ldr	r3, .L704
	push	{r4, r5, r6, lr}
	mov	r4, r0
	ldr	r5, [r3]
	ldr	r3, .L704+4
	ldrh	r2, [r3]
	ldr	r3, .L704+8
	ldrb	r3, [r3]	@ zero_extendqisi2
	mul	r1, r3, r2
	cmp	r0, r1
	itet	ge
	smulbbge	r3, r3, r2
	addlt	r5, r5, #16
	addge	r5, r5, #48
	ldrb	r6, [r5, #9]	@ zero_extendqisi2
	itt	ge
	subge	r4, r0, r3
	uxthge	r4, r4
	mov	r1, r6
	mov	r0, r4
	bl	__aeabi_idiv
	smulbb	r6, r0, r6
	movw	r2, #65535
	subs	r4, r4, r6
	uxth	r4, r4
	adds	r4, r4, #8
	ldrh	r3, [r5, r4, lsl #1]
	cmp	r3, r2
	bne	.L702
	movw	r2, #837
	ldr	r1, .L704+12
	ldr	r0, .L704+16
	bl	printf
.L703:
	b	.L703
.L702:
	ldr	r2, .L704+20
	ldrh	r2, [r2]
	mla	r0, r3, r2, r0
	pop	{r4, r5, r6, pc}
.L705:
	.align	2
.L704:
	.word	.LANCHOR60
	.word	.LANCHOR79
	.word	.LANCHOR69
	.word	.LANCHOR80
	.word	.LC0
	.word	.LANCHOR75
	.size	ftl_get_ppa_from_index, .-ftl_get_ppa_from_index
	.section	.text.lpa_hash_get_ppa,"ax",%progbits
	.align	1
	.global	lpa_hash_get_ppa
	.syntax unified
	.thumb
	.thumb_func
	.fpu softvfp
	.type	lpa_hash_get_ppa, %function
lpa_hash_get_ppa:
	@ args = 0, pretend = 0, frame = 0
	@ frame_needed = 0, uses_anonymous_args = 0
	@ link register save eliminated.
	ldr	r3, .L710
	uxtb	r2, r0
	push	{r4, r5}
	ldrh	r3, [r3, r2, lsl #1]
	ldr	r2, .L710+4
	ldr	r1, [r2]
	ldr	r2, .L710+8
	ldr	r4, [r2]
	movw	r2, #65535
.L707:
	cmp	r3, r2
	bne	.L709
	mov	r0, #-1
	pop	{r4, r5}
	bx	lr
.L709:
	ldr	r5, [r1, r3, lsl #2]
	cmp	r0, r5
	bne	.L708
	mov	r0, r3
	pop	{r4, r5}
	b	ftl_get_ppa_from_index
.L708:
	ldrh	r3, [r4, r3, lsl #1]
	b	.L707
.L711:
	.align	2
.L710:
	.word	.LANCHOR81
	.word	.LANCHOR82
	.word	.LANCHOR83
	.size	lpa_hash_get_ppa, .-lpa_hash_get_ppa
	.section	.text.ftl_get_new_free_page,"ax",%progbits
	.align	1
	.global	ftl_get_new_free_page
	.syntax unified
	.thumb
	.thumb_func
	.fpu softvfp
	.type	ftl_get_new_free_page, %function
ftl_get_new_free_page:
	@ args = 0, pretend = 0, frame = 0
	@ frame_needed = 0, uses_anonymous_args = 0
	ldrh	r1, [r0]
	movw	r2, #65535
	push	{r4, r5, r6, lr}
	mov	r3, r0
	cmp	r1, r2
	bne	.L713
	mov	r2, #948
	ldr	r1, .L723
	ldr	r0, .L723+4
	bl	printf
.L714:
	b	.L714
.L713:
	ldr	r1, .L723+8
	ldrh	r0, [r0, #2]
	ldrh	r1, [r1]
	cmp	r0, r1
	bne	.L715
	movw	r2, #949
	ldr	r1, .L723
	ldr	r0, .L723+4
	bl	printf
.L716:
	b	.L716
.L715:
	ldrh	r1, [r3, #6]
	cbnz	r1, .L717
	movw	r2, #950
	ldr	r1, .L723
	ldr	r0, .L723+4
	bl	printf
.L718:
	b	.L718
.L717:
	ldrb	r0, [r3, #5]	@ zero_extendqisi2
	movs	r6, #0
	ldr	r4, .L723+12
	adds	r0, r0, #8
	ldrh	r0, [r3, r0, lsl #1]
	ldrb	r5, [r4]	@ zero_extendqisi2
	mov	r4, r2
.L719:
	cmp	r0, r4
	ldrb	r2, [r3, #5]	@ zero_extendqisi2
	beq	.L721
	ldr	r6, .L723+16
	adds	r2, r2, #1
	uxtb	r2, r2
	ldrh	r4, [r3, #2]
	subs	r1, r1, #1
	ldrh	r6, [r6]
	cmp	r5, r2
	strh	r1, [r3, #6]	@ movhi
	ldrh	r1, [r3, #10]
	strb	r2, [r3, #5]
	it	eq
	addeq	r2, r4, #1
	mul	r0, r0, r6
	it	eq
	strheq	r2, [r3, #2]	@ movhi
	add	r1, r1, #1
	it	eq
	moveq	r2, #0
	strh	r1, [r3, #10]	@ movhi
	it	eq
	strbeq	r2, [r3, #5]
	orrs	r0, r0, r4
	pop	{r4, r5, r6, pc}
.L721:
	adds	r2, r2, #1
	uxtb	r2, r2
	cmp	r2, r5
	strb	r2, [r3, #5]
	itttt	eq
	ldrheq	r2, [r3, #2]
	strbeq	r6, [r3, #5]
	addeq	r2, r2, #1
	strheq	r2, [r3, #2]	@ movhi
	ldrb	r2, [r3, #5]	@ zero_extendqisi2
	adds	r2, r2, #8
	ldrh	r0, [r3, r2, lsl #1]
	b	.L719
.L724:
	.align	2
.L723:
	.word	.LANCHOR84
	.word	.LC0
	.word	.LANCHOR79
	.word	.LANCHOR69
	.word	.LANCHOR75
	.size	ftl_get_new_free_page, .-ftl_get_new_free_page
	.section	.text.ftl_ext_alloc_new_blk,"ax",%progbits
	.align	1
	.global	ftl_ext_alloc_new_blk
	.syntax unified
	.thumb
	.thumb_func
	.fpu softvfp
	.type	ftl_ext_alloc_new_blk, %function
ftl_ext_alloc_new_blk:
	@ args = 0, pretend = 0, frame = 0
	@ frame_needed = 0, uses_anonymous_args = 0
	push	{r3, r4, r5, lr}
	bl	ftl_alloc_sys_blk
	subs	r3, r0, #1
	movw	r2, #65533
	uxth	r3, r3
	mov	r4, r0
	cmp	r3, r2
	bls	.L726
	movw	r2, #981
	ldr	r1, .L728
	ldr	r0, .L728+4
	bl	printf
.L727:
	b	.L727
.L726:
	ldr	r5, .L728+8
	movs	r1, #0
	bl	ftl_erase_phy_blk
	ldr	r3, [r5]
	ldrh	r0, [r3, #130]
	bl	ftl_free_sys_blk
	ldr	r3, [r5]
	movs	r0, #0
	strh	r4, [r3, #130]	@ movhi
	strh	r0, [r3, #140]	@ movhi
	pop	{r3, r4, r5, pc}
.L729:
	.align	2
.L728:
	.word	.LANCHOR85
	.word	.LC0
	.word	.LANCHOR46
	.size	ftl_ext_alloc_new_blk, .-ftl_ext_alloc_new_blk
	.section	.text.ftl_total_vpn_update,"ax",%progbits
	.align	1
	.global	ftl_total_vpn_update
	.syntax unified
	.thumb
	.thumb_func
	.fpu softvfp
	.type	ftl_total_vpn_update, %function
ftl_total_vpn_update:
	@ args = 0, pretend = 0, frame = 0
	@ frame_needed = 0, uses_anonymous_args = 0
	ldr	r2, .L737
	push	{r4, r5, r6, r7, lr}
	mov	r1, r2
	ldrh	r3, [r2]
	cmp	r3, #4
	bhi	.L731
	cbnz	r0, .L731
	adds	r3, r3, #1
	strh	r3, [r2]	@ movhi
	pop	{r4, r5, r6, r7, pc}
.L731:
	ldr	r2, .L737+4
	movs	r3, #0
	strh	r3, [r1]	@ movhi
	movw	ip, #65535
	mov	r1, r3
	ldrh	r5, [r2]
	ldr	r2, .L737+8
	ldr	r6, [r2]
	ldr	r2, .L737+12
	ldr	r7, [r2]
	mov	r2, r3
.L733:
	uxth	r0, r3
	cmp	r5, r0
	bhi	.L736
	ldr	r3, .L737+16
	ldr	r3, [r3]
	str	r1, [r3, #524]
	str	r2, [r3, #528]
	pop	{r4, r5, r6, r7, pc}
.L736:
	ldrh	r0, [r6, r3, lsl #1]
	cmp	r0, ip
	beq	.L734
	add	r4, r7, r3, lsl #2
	ldrb	r4, [r4, #2]	@ zero_extendqisi2
	and	r4, r4, #224
	cmp	r4, #160
	ite	eq
	addeq	r2, r2, r0
	addne	r1, r1, r0
.L734:
	adds	r3, r3, #1
	b	.L733
.L738:
	.align	2
.L737:
	.word	.LANCHOR86
	.word	.LANCHOR54
	.word	.LANCHOR56
	.word	.LANCHOR57
	.word	.LANCHOR60
	.size	ftl_total_vpn_update, .-ftl_total_vpn_update
	.section	.text.ftl_debug_info_fill,"ax",%progbits
	.align	1
	.global	ftl_debug_info_fill
	.syntax unified
	.thumb
	.thumb_func
	.fpu softvfp
	.type	ftl_debug_info_fill, %function
ftl_debug_info_fill:
	@ args = 0, pretend = 0, frame = 0
	@ frame_needed = 0, uses_anonymous_args = 0
	@ link register save eliminated.
	movs	r0, #0
	bx	lr
	.size	ftl_debug_info_fill, .-ftl_debug_info_fill
	.section	.text.ftl_vpn_update,"ax",%progbits
	.align	1
	.global	ftl_vpn_update
	.syntax unified
	.thumb
	.thumb_func
	.fpu softvfp
	.type	ftl_vpn_update, %function
ftl_vpn_update:
	@ args = 0, pretend = 0, frame = 0
	@ frame_needed = 0, uses_anonymous_args = 0
	@ link register save eliminated.
	ldr	r3, .L741
	ldr	r3, [r3]
	ldrh	r0, [r3, r0, lsl #1]
	clz	r0, r0
	lsrs	r0, r0, #5
	bx	lr
.L742:
	.align	2
.L741:
	.word	.LANCHOR56
	.size	ftl_vpn_update, .-ftl_vpn_update
	.section	.text.ftl_vpn_decrement,"ax",%progbits
	.align	1
	.global	ftl_vpn_decrement
	.syntax unified
	.thumb
	.thumb_func
	.fpu softvfp
	.type	ftl_vpn_decrement, %function
ftl_vpn_decrement:
	@ args = 0, pretend = 0, frame = 0
	@ frame_needed = 0, uses_anonymous_args = 0
	movw	r3, #65535
	push	{r4, lr}
	cmp	r0, r3
	mov	r1, r0
	beq	.L744
	ldr	r3, .L749
	ldr	r3, [r3]
	ldrh	r4, [r3, r0, lsl #1]
	cbnz	r4, .L745
	mov	r2, r4
	ldr	r0, .L749+4
	bl	printf
.L748:
	movs	r0, #0
	pop	{r4, pc}
.L745:
	subs	r4, r4, #1
	strh	r4, [r3, r0, lsl #1]	@ movhi
.L744:
	ldr	r2, .L749+8
	ldrh	r0, [r2]
	cmp	r1, r0
	beq	.L748
	movw	r3, #65535
	cmp	r0, r3
	bne	.L747
	strh	r1, [r2]	@ movhi
	b	.L748
.L747:
	bl	ftl_vpn_update
	adds	r0, r0, #0
	strh	r1, [r2]	@ movhi
	it	ne
	movne	r0, #1
	pop	{r4, pc}
.L750:
	.align	2
.L749:
	.word	.LANCHOR56
	.word	.LC17
	.word	.LANCHOR87
	.size	ftl_vpn_decrement, .-ftl_vpn_decrement
	.section	.text.lpa_hash_update_ppa,"ax",%progbits
	.align	1
	.global	lpa_hash_update_ppa
	.syntax unified
	.thumb
	.thumb_func
	.fpu softvfp
	.type	lpa_hash_update_ppa, %function
lpa_hash_update_ppa:
	@ args = 0, pretend = 0, frame = 0
	@ frame_needed = 0, uses_anonymous_args = 0
	push	{r4, r5, r6, r7, r8, r10, fp, lr}
	uxtb	ip, r0
	ldr	r4, .L762
	movw	r6, #65535
	mov	fp, r6
	ldr	r5, .L762+4
	ldr	lr, [r4]
	ldr	r4, .L762+8
	ldrh	r3, [r5, ip, lsl #1]
	ldr	r4, [r4]
.L752:
	cmp	r3, fp
	beq	.L756
	ldr	r7, [lr, r3, lsl #2]
	add	r8, lr, r3, lsl #2
	cmp	r0, r7
	bne	.L753
	cmp	r6, fp
	mov	r10, #-1
	ite	eq
	ldrheq	r6, [r4, r3, lsl #1]
	ldrhne	r7, [r4, r3, lsl #1]
	str	r10, [r8]
	ite	eq
	strheq	r6, [r5, ip, lsl #1]	@ movhi
	strhne	r7, [r4, r6, lsl #1]	@ movhi
	movw	r6, #65535
	strh	r6, [r4, r3, lsl #1]	@ movhi
.L756:
	ldrh	r3, [r5, ip, lsl #1]
	str	r0, [lr, r2, lsl #2]
	strh	r2, [r5, ip, lsl #1]	@ movhi
	strh	r3, [r4, r2, lsl #1]	@ movhi
	adds	r3, r1, #1
	beq	.L758
	ldr	r3, .L762+12
	ldrh	r0, [r3]
	movs	r3, #1
	rsb	r2, r0, #21
	lsls	r3, r3, r2
	ldr	r2, .L762+16
	lsr	r0, r1, r0
	subs	r3, r3, #1
	ldrb	r1, [r2]	@ zero_extendqisi2
	ands	r0, r0, r3
	bl	__aeabi_uidiv
	uxth	r0, r0
	bl	ftl_vpn_decrement
.L758:
	mov	r0, #-1
	pop	{r4, r5, r6, r7, r8, r10, fp, pc}
.L753:
	mov	r6, r3
	ldrh	r3, [r4, r3, lsl #1]
	b	.L752
.L763:
	.align	2
.L762:
	.word	.LANCHOR82
	.word	.LANCHOR81
	.word	.LANCHOR83
	.word	.LANCHOR71
	.word	.LANCHOR70
	.size	lpa_hash_update_ppa, .-lpa_hash_update_ppa
	.section	.text.ftl_write_completed,"ax",%progbits
	.align	1
	.global	ftl_write_completed
	.syntax unified
	.thumb
	.thumb_func
	.fpu softvfp
	.type	ftl_write_completed, %function
ftl_write_completed:
	@ args = 0, pretend = 0, frame = 0
	@ frame_needed = 0, uses_anonymous_args = 0
	push	{r4, r5, r6, r7, r8, r10, fp, lr}
	ldr	r7, .L772
	ldr	r6, .L772+4
.L765:
	ldrb	r3, [r7]	@ zero_extendqisi2
	cmp	r3, #255
	bne	.L771
	pop	{r4, r5, r6, r7, r8, r10, fp, pc}
.L771:
	movs	r2, #48
	add	r5, r3, r3, lsl #1
	muls	r3, r2, r3
	add	r5, r6, r5, lsl #4
	adds	r4, r6, r3
	ldrb	r3, [r6, r3]	@ zero_extendqisi2
	strb	r3, [r7]
	ldr	r3, [r4, #36]
	adds	r3, r3, #1
	bne	.L766
	ldr	r3, .L772+8
	mov	r8, #1
	ldr	r10, [r4, #24]
	ldrh	r0, [r3]
	ldr	r3, .L772+12
	rsb	r2, r0, #21
	lsl	r2, r8, r2
	lsr	r0, r10, r0
	ldrb	r1, [r3]	@ zero_extendqisi2
	subs	r2, r2, #1
	ands	r0, r0, r2
	bl	__aeabi_uidiv
	uxth	fp, r0
	mov	r3, r10
	ldr	r2, [r4, #20]
	mov	r1, fp
	ldr	r0, .L772+16
	bl	printf
	movs	r2, #0
	mov	r1, r8
	mov	r0, fp
	bl	gc_add_sblk
	ldr	r3, .L772+20
	ldr	r3, [r3]
	ldrh	r2, [r3, #16]
	cmp	r2, fp
	bne	.L767
	movs	r2, #0
	strh	r2, [r3, #22]	@ movhi
.L768:
	mov	r0, r5
	bl	ftl_write_buf
	b	.L765
.L767:
	ldrh	r2, [r3, #48]
	cmp	r2, fp
	itt	eq
	moveq	r2, #0
	strheq	r2, [r3, #54]	@ movhi
	b	.L768
.L766:
	ldrh	r2, [r4, #32]
	ldr	r1, [r4, #28]
	ldr	r0, [r4, #20]
	bl	lpa_hash_update_ppa
	ldrb	r3, [r4, #2]	@ zero_extendqisi2
	lsls	r2, r3, #29
	bpl	.L770
	bic	r3, r3, #2
	strb	r3, [r4, #2]
	b	.L765
.L770:
	mov	r0, r5
	bl	buf_free
	b	.L765
.L773:
	.align	2
.L772:
	.word	.LANCHOR88
	.word	.LANCHOR36
	.word	.LANCHOR71
	.word	.LANCHOR70
	.word	.LC18
	.word	.LANCHOR60
	.size	ftl_write_completed, .-ftl_write_completed
	.section	.text.ftl_mask_bad_block,"ax",%progbits
	.align	1
	.global	ftl_mask_bad_block
	.syntax unified
	.thumb
	.thumb_func
	.fpu softvfp
	.type	ftl_mask_bad_block, %function
ftl_mask_bad_block:
	@ args = 0, pretend = 0, frame = 0
	@ frame_needed = 0, uses_anonymous_args = 0
	push	{r3, r4, r5, lr}
	ubfx	r4, r0, #21, #3
	ldr	r3, .L780
	ldrh	r2, [r3]
	movs	r3, #1
	rsb	r1, r2, #21
	lsls	r3, r3, r1
	lsrs	r0, r0, r2
	ldr	r2, .L780+4
	subs	r3, r3, #1
	ands	r0, r0, r3
	ldrb	r1, [r2]	@ zero_extendqisi2
	bl	__aeabi_uidiv
	ldr	r3, .L780+8
	uxtb	r5, r0
	ldr	r3, [r3]
	lsls	r3, r3, #17
	bpl	.L775
	mov	r2, r5
	mov	r1, r4
	ldr	r0, .L780+12
	bl	printf
.L775:
	ldr	r3, .L780+16
	ldrh	r3, [r3]
	cmp	r3, r5
	bls	.L774
	ldr	r3, .L780+20
	ldr	r2, [r3]
	movs	r3, #1
	lsls	r3, r3, r4
	add	r2, r2, r5, lsl #2
	ldrb	r4, [r2, #3]	@ zero_extendqisi2
	orrs	r4, r4, r3
	strb	r4, [r2, #3]
.L774:
	pop	{r3, r4, r5, pc}
.L781:
	.align	2
.L780:
	.word	.LANCHOR71
	.word	.LANCHOR70
	.word	.LANCHOR22
	.word	.LC19
	.word	.LANCHOR54
	.word	.LANCHOR57
	.size	ftl_mask_bad_block, .-ftl_mask_bad_block
	.section	.text.print_ftl_debug_info,"ax",%progbits
	.align	1
	.global	print_ftl_debug_info
	.syntax unified
	.thumb
	.thumb_func
	.fpu softvfp
	.type	print_ftl_debug_info, %function
print_ftl_debug_info:
	@ args = 0, pretend = 0, frame = 0
	@ frame_needed = 0, uses_anonymous_args = 0
	ldr	r3, .L783
	push	{r4, r5, r6, lr}
	sub	sp, sp, #32
	ldr	r4, .L783+4
	ldr	r5, [r3]
	ldr	r0, [r4]
	ldr	r6, [r5, #528]
	ldrh	r3, [r0, #116]
	ldrh	r2, [r0, #118]
	ldrh	r1, [r0, #114]
	str	r6, [sp, #16]
	ldr	r5, [r5, #524]
	str	r5, [sp, #12]
	ldrh	r5, [r0, #120]
	str	r5, [sp, #8]
	ldrh	r5, [r0, #124]
	str	r5, [sp, #4]
	ldrh	r0, [r0, #122]
	str	r0, [sp]
	ldr	r0, .L783+8
	bl	printf
	ldr	r1, [r4]
	ldr	r3, .L783+12
	ldr	r0, .L783+16
	ldr	r2, [r1, #64]
	ldrb	r3, [r3]	@ zero_extendqisi2
	str	r2, [sp, #4]
	ldr	r2, [r1, #8]
	str	r2, [sp]
	ldr	r2, [r1, #28]
	ldr	r1, [r1, #20]
	bl	printf
	ldr	r1, [r4]
	ldr	r0, .L783+20
	ldr	r3, [r1, #16]
	ldr	r2, [r1, #60]
	ldr	r1, [r1, #52]
	lsrs	r3, r3, #11
	bl	printf
	ldr	r2, [r4]
	ldrh	r0, [r2, #98]
	ldrh	r3, [r2, #88]
	ldrh	r1, [r2, #74]
	str	r0, [sp, #24]
	ldrh	r0, [r2, #94]
	str	r0, [sp, #20]
	ldrh	r0, [r2, #90]
	str	r0, [sp, #16]
	ldr	r0, [r2, #80]
	str	r0, [sp, #12]
	ldrh	r0, [r2, #72]
	str	r0, [sp, #8]
	ldrh	r0, [r2, #96]
	str	r0, [sp, #4]
	ldrh	r0, [r2, #92]
	str	r0, [sp]
	ldr	r0, .L783+24
	ldr	r2, [r2, #84]
	bl	printf
	add	sp, sp, #32
	@ sp needed
	pop	{r4, r5, r6, pc}
.L784:
	.align	2
.L783:
	.word	.LANCHOR60
	.word	.LANCHOR46
	.word	.LC20
	.word	.LANCHOR89
	.word	.LC21
	.word	.LC22
	.word	.LC23
	.size	print_ftl_debug_info, .-print_ftl_debug_info
	.section	.text.sblk_init,"ax",%progbits
	.align	1
	.global	sblk_init
	.syntax unified
	.thumb
	.thumb_func
	.fpu softvfp
	.type	sblk_init, %function
sblk_init:
	@ args = 0, pretend = 0, frame = 0
	@ frame_needed = 0, uses_anonymous_args = 0
	@ link register save eliminated.
	ldr	r2, .L786
	movs	r3, #255
	movs	r0, #0
	strb	r3, [r2]
	ldr	r2, .L786+4
	strb	r3, [r2]
	ldr	r2, .L786+8
	strb	r3, [r2]
	ldr	r2, .L786+12
	strb	r3, [r2]
	bx	lr
.L787:
	.align	2
.L786:
	.word	.LANCHOR90
	.word	.LANCHOR88
	.word	.LANCHOR51
	.word	.LANCHOR62
	.size	sblk_init, .-sblk_init
	.section	.text.dump_sblk_queue,"ax",%progbits
	.align	1
	.global	dump_sblk_queue
	.syntax unified
	.thumb
	.thumb_func
	.fpu softvfp
	.type	dump_sblk_queue, %function
dump_sblk_queue:
	@ args = 0, pretend = 0, frame = 0
	@ frame_needed = 0, uses_anonymous_args = 0
	push	{r4, r5, r6, lr}
	ldr	r4, .L797
	ldr	r0, .L797+4
	ldrb	r1, [r4]	@ zero_extendqisi2
	bl	printf
	ldrb	r4, [r4]	@ zero_extendqisi2
	cmp	r4, #255
	beq	.L788
	ldr	r5, .L797+8
	add	r4, r4, r4, lsl #1
	ldr	r6, .L797+12
	add	r4, r5, r4, lsl #4
.L790:
	ldr	r3, [r4, #24]
	mov	r0, r6
	ldrb	r2, [r4, #42]	@ zero_extendqisi2
	ldrb	r1, [r4, #1]	@ zero_extendqisi2
	bl	printf
	ldrb	r4, [r4]	@ zero_extendqisi2
	cmp	r4, #255
	beq	.L788
	add	r4, r4, r4, lsl #1
	add	r4, r5, r4, lsl #4
	b	.L790
.L788:
	pop	{r4, r5, r6, pc}
.L798:
	.align	2
.L797:
	.word	.LANCHOR90
	.word	.LC24
	.word	.LANCHOR36
	.word	.LC25
	.size	dump_sblk_queue, .-dump_sblk_queue
	.section	.text.queue_lun_state,"ax",%progbits
	.align	1
	.global	queue_lun_state
	.syntax unified
	.thumb
	.thumb_func
	.fpu softvfp
	.type	queue_lun_state, %function
queue_lun_state:
	@ args = 0, pretend = 0, frame = 0
	@ frame_needed = 0, uses_anonymous_args = 0
	ldr	r3, .L816
	push	{r4, r5, r6, r7, r8, r10, fp, lr}
	ldrb	r5, [r3]	@ zero_extendqisi2
	cmp	r5, #255
	beq	.L808
	ldr	r3, .L816+4
	ubfx	r10, r0, #21, #3
	ldr	lr, .L816+12
	mov	ip, #48
	ldrh	r7, [r3]
	movs	r3, #1
	mov	r8, lr
	rsb	r2, r7, #21
	lsls	r3, r3, r2
	ldr	r2, .L816+8
	subs	r3, r3, #1
	ldrb	r6, [r2]	@ zero_extendqisi2
	asr	r2, r0, r7
	uxth	r3, r3
	subs	r6, r6, #1
	uxth	r6, r6
	ands	r2, r2, r6
	ands	r2, r2, r3
.L807:
	mla	r0, ip, r5, lr
	ldr	r4, [r0, #24]
	ubfx	fp, r4, #21, #3
	cmp	r10, fp
	bne	.L801
	lsrs	r4, r4, r7
	ldrb	r0, [r0, #42]	@ zero_extendqisi2
	ands	r4, r4, r6
	ands	r4, r4, r3
	cmp	r2, r4
	bne	.L802
	cmp	r1, #1
	bne	.L799
	cmp	r0, #6
	beq	.L801
	cmp	r0, #8
	beq	.L801
	pop	{r4, r5, r6, r7, r8, r10, fp, pc}
.L802:
	cmp	r1, #3
	bhi	.L801
	tbb	[pc, r1]
.L804:
	.byte	(.L803-.L804)/2
	.byte	(.L805-.L804)/2
	.byte	(.L806-.L804)/2
	.byte	(.L799-.L804)/2
	.p2align 1
.L803:
	cmp	r0, #2
	beq	.L801
	pop	{r4, r5, r6, r7, r8, r10, fp, pc}
.L805:
	cmp	r0, #6
	beq	.L801
	cmp	r0, #8
	beq	.L801
	pop	{r4, r5, r6, r7, r8, r10, fp, pc}
.L806:
	cmp	r0, #10
	bne	.L799
.L801:
	mul	r5, ip, r5
	ldrb	r5, [r8, r5]	@ zero_extendqisi2
	cmp	r5, #255
	bne	.L807
.L808:
	movs	r0, #0
.L799:
	pop	{r4, r5, r6, r7, r8, r10, fp, pc}
.L817:
	.align	2
.L816:
	.word	.LANCHOR90
	.word	.LANCHOR71
	.word	.LANCHOR70
	.word	.LANCHOR36
	.size	queue_lun_state, .-queue_lun_state
	.section	.text.queue_remove_completed_req,"ax",%progbits
	.align	1
	.global	queue_remove_completed_req
	.syntax unified
	.thumb
	.thumb_func
	.fpu softvfp
	.type	queue_remove_completed_req, %function
queue_remove_completed_req:
	@ args = 0, pretend = 0, frame = 0
	@ frame_needed = 0, uses_anonymous_args = 0
	push	{r4, r5, lr}
	ldr	r5, .L834
	ldrb	r0, [r5]	@ zero_extendqisi2
	cmp	r0, #255
	beq	.L818
	movs	r1, #48
	ldr	r2, .L834+4
	muls	r1, r0, r1
	adds	r3, r2, r1
	ldrb	r4, [r3, #42]	@ zero_extendqisi2
	subs	r4, r4, #11
	cmp	r4, #1
	bhi	.L818
	ldrb	r4, [r2, r1]	@ zero_extendqisi2
	strb	r4, [r5]
	movs	r4, #255
	strb	r4, [r2, r1]
	ldrb	r1, [r3, #43]	@ zero_extendqisi2
	cmp	r1, #1
	bne	.L820
	ldrh	r3, [r3, #34]
	cbnz	r3, .L821
	ldr	r3, .L834+8
.L833:
	ldrb	r1, [r3]	@ zero_extendqisi2
	cmp	r1, #255
	bne	.L823
	movs	r1, #48
	mla	r2, r1, r0, r2
	ldrb	r2, [r2, #1]	@ zero_extendqisi2
	strb	r2, [r3]
	pop	{r4, r5, pc}
.L821:
	ldr	r3, .L834+12
	b	.L833
.L820:
	cbnz	r1, .L818
	ldr	r3, [r3, #20]
	adds	r3, r3, #1
	beq	.L818
	ldr	r3, .L834+16
	b	.L833
.L823:
	movs	r3, #48
.L826:
	mov	r4, r1
	muls	r1, r3, r1
	ldrb	r1, [r2, r1]	@ zero_extendqisi2
	cmp	r1, #255
	bne	.L826
	muls	r4, r3, r4
	mla	r3, r3, r0, r2
	ldrb	r3, [r3, #1]	@ zero_extendqisi2
	strb	r3, [r2, r4]
	pop	{r4, r5, pc}
.L818:
	pop	{r4, r5, pc}
.L835:
	.align	2
.L834:
	.word	.LANCHOR90
	.word	.LANCHOR36
	.word	.LANCHOR88
	.word	.LANCHOR62
	.word	.LANCHOR51
	.size	queue_remove_completed_req, .-queue_remove_completed_req
	.section	.text.pm_alloc_new_blk,"ax",%progbits
	.align	1
	.global	pm_alloc_new_blk
	.syntax unified
	.thumb
	.thumb_func
	.fpu softvfp
	.type	pm_alloc_new_blk, %function
pm_alloc_new_blk:
	@ args = 0, pretend = 0, frame = 0
	@ frame_needed = 0, uses_anonymous_args = 0
	push	{r0, r1, r2, r4, r5, r6, r7, lr}
	ldr	r4, .L854
	ldr	r1, .L854+4
	ldr	r2, [r4]
	ldrb	r1, [r1]	@ zero_extendqisi2
	ldrh	r3, [r2, #690]
	adds	r3, r3, #1
	uxth	r3, r3
	cmp	r1, r3
	strh	r3, [r2, #690]	@ movhi
	bls	.L837
	add	r3, r3, #336
	ldrh	r2, [r2, r3, lsl #1]
	movw	r3, #65535
	cmp	r2, r3
	bne	.L838
.L837:
	ldr	r7, .L854+8
	ldr	r6, .L854+12
.L852:
	movs	r0, #1
	bl	ftl_alloc_sblk
	movs	r1, #0
	mov	r5, r0
	bl	ftl_erase_sblk
	ldr	r1, [r4]
	mov	r0, r5
	add	r1, r1, #672
	bl	ftl_get_blk_list_in_sblk
	uxth	r0, r0
	cbnz	r0, .L839
	mov	r1, r5
	mov	r0, r7
	bl	printf
	ldr	r3, [r6]
	add	r5, r3, r5, lsl #2
	ldrb	r3, [r5, #2]	@ zero_extendqisi2
	orr	r3, r3, #224
	strb	r3, [r5, #2]
	b	.L852
.L839:
	ldr	r2, [r4]
	movs	r0, #1
	ldr	r1, .L854+16
	movs	r3, #0
	strh	r3, [r2, #690]	@ movhi
	str	r0, [r1]
	add	r1, r2, #416
	movw	r0, #65535
.L841:
	ldrh	r6, [r1], #2
	cmp	r6, r0
	beq	.L840
	adds	r3, r3, #1
	cmp	r3, #128
	bne	.L841
	movs	r2, #188
	ldr	r1, .L854+20
	ldr	r0, .L854+24
	bl	printf
.L843:
	b	.L843
.L844:
	movs	r2, #0
	strh	r3, [r1, #692]	@ movhi
	strh	r2, [r1, #696]	@ movhi
	ldr	r2, .L854+28
	ldrh	r2, [r2]
	rsb	r2, r2, #21
	asr	r0, r3, r2
	strh	r0, [r1, #694]	@ movhi
	ldr	r1, .L854+32
	ldr	r1, [r1]
	lsls	r1, r1, #19
	bpl	.L849
	movs	r1, #1
	uxth	r0, r0
	lsl	r2, r1, r2
	mov	r1, r3
	str	r0, [sp]
	subs	r2, r2, #1
	ldr	r0, .L854+36
	bl	printf
.L849:
	movs	r0, #0
	add	sp, sp, #12
	@ sp needed
	pop	{r4, r5, r6, r7, pc}
.L840:
	adds	r3, r3, #208
	strh	r5, [r2, r3, lsl #1]	@ movhi
	ldrh	r3, [r2, #688]
	adds	r3, r3, #1
	strh	r3, [r2, #688]	@ movhi
.L838:
	ldr	r1, [r4]
	movw	r0, #65533
	ldrh	r3, [r1, #690]
	add	r3, r3, #336
	ldrh	r3, [r1, r3, lsl #1]
	subs	r2, r3, #1
	uxth	r2, r2
	cmp	r2, r0
	bls	.L844
	movs	r2, #193
	ldr	r1, .L854+20
	ldr	r0, .L854+24
	bl	printf
.L845:
	b	.L845
.L855:
	.align	2
.L854:
	.word	.LANCHOR46
	.word	.LANCHOR69
	.word	.LC26
	.word	.LANCHOR57
	.word	.LANCHOR91
	.word	.LANCHOR92
	.word	.LC0
	.word	.LANCHOR71
	.word	.LANCHOR22
	.word	.LC27
	.size	pm_alloc_new_blk, .-pm_alloc_new_blk
	.section	.text.pm_select_ram_region,"ax",%progbits
	.align	1
	.global	pm_select_ram_region
	.syntax unified
	.thumb
	.thumb_func
	.fpu softvfp
	.type	pm_select_ram_region, %function
pm_select_ram_region:
	@ args = 0, pretend = 0, frame = 0
	@ frame_needed = 0, uses_anonymous_args = 0
	ldr	r2, .L867
	push	{r3, r4, r5, r6, r7, lr}
	movs	r3, #0
	movw	r4, #65535
	mov	r1, r2
.L858:
	ldrh	r5, [r2, r3, lsl #3]
	uxth	r0, r3
	cmp	r5, r4
	beq	.L857
	adds	r3, r3, #1
	cmp	r3, #32
	bne	.L858
	movs	r2, #0
	mov	r4, #32768
	mov	r0, r3
.L860:
	add	r3, r1, r2, lsl #3
	uxth	r5, r2
	ldrh	r3, [r3, #2]
	lsls	r6, r3, #16
	bmi	.L859
	cmp	r3, r4
	itt	cc
	movcc	r4, r3
	movcc	r0, r5
.L859:
	adds	r2, r2, #1
	cmp	r2, #32
	bne	.L860
	cmp	r0, #32
	bne	.L857
	ldr	r3, .L867+4
	mov	r2, #-1
	ldrb	r5, [r3]	@ zero_extendqisi2
	movs	r3, #0
.L862:
	add	r4, r1, r3, lsl #3
	uxth	r6, r3
	ldrh	r4, [r4, #2]
	cmp	r4, r2
	bcs	.L861
	ldrh	r7, [r1, r3, lsl #3]
	cmp	r7, r5
	itt	ne
	movne	r2, r4
	movne	r0, r6
.L861:
	adds	r3, r3, #1
	cmp	r3, #32
	bne	.L862
	cmp	r0, #32
	bne	.L857
	movw	r2, #289
	ldr	r1, .L867+8
	ldr	r0, .L867+12
	bl	printf
.L863:
	b	.L863
.L857:
	pop	{r3, r4, r5, r6, r7, pc}
.L868:
	.align	2
.L867:
	.word	.LANCHOR93
	.word	.LANCHOR94
	.word	.LANCHOR95
	.word	.LC0
	.size	pm_select_ram_region, .-pm_select_ram_region
	.section	.text.ftl_memset,"ax",%progbits
	.align	1
	.global	ftl_memset
	.syntax unified
	.thumb
	.thumb_func
	.fpu softvfp
	.type	ftl_memset, %function
ftl_memset:
	@ args = 0, pretend = 0, frame = 0
	@ frame_needed = 0, uses_anonymous_args = 0
	@ link register save eliminated.
	b	memset
	.size	ftl_memset, .-ftl_memset
	.section	.text.flash_lsb_page_tbl_build,"ax",%progbits
	.align	1
	.global	flash_lsb_page_tbl_build
	.syntax unified
	.thumb
	.thumb_func
	.fpu softvfp
	.type	flash_lsb_page_tbl_build, %function
flash_lsb_page_tbl_build:
	@ args = 0, pretend = 0, frame = 0
	@ frame_needed = 0, uses_anonymous_args = 0
	push	{r4, lr}
	ldr	r4, .L905
	cbnz	r0, .L871
.L872:
	strh	r0, [r4, r0, lsl #1]	@ movhi
	adds	r0, r0, #1
	cmp	r0, #256
	bne	.L872
.L878:
	movs	r1, #255
	mov	r2, #1024
	ldr	r0, .L905+4
	bl	ftl_memset
	ldr	r1, .L905+4
	movs	r3, #0
.L873:
	ldrh	r2, [r4, r3, lsl #1]
	adds	r3, r3, #1
	cmp	r3, #256
	strh	r2, [r1, r2, lsl #1]	@ movhi
	bne	.L873
	pop	{r4, pc}
.L871:
	cmp	r0, #1
	bne	.L874
	movs	r3, #0
.L877:
	cmp	r3, #3
	uxth	r2, r3
	bls	.L875
	tst	r2, #1
	ite	ne
	movne	r1, #3
	moveq	r1, #2
	rsb	r2, r1, r2, lsl #1
	uxth	r2, r2
.L875:
	strh	r2, [r4, r3, lsl #1]	@ movhi
	adds	r3, r3, #1
	cmp	r3, #256
	bne	.L877
	b	.L878
.L874:
	cmp	r0, #2
	bne	.L879
	movs	r2, #0
.L881:
	uxth	r3, r2
	cmp	r2, #1
	ittt	hi
	lslhi	r3, r3, #1
	addhi	r3, r3, #-1
	uxthhi	r3, r3
	strh	r3, [r4, r2, lsl #1]	@ movhi
	adds	r2, r2, #1
	cmp	r2, #256
	bne	.L881
	b	.L878
.L879:
	cmp	r0, #3
	bne	.L882
	movs	r3, #0
.L885:
	cmp	r3, #5
	uxth	r2, r3
	bls	.L883
	tst	r2, #1
	ite	ne
	movne	r1, #5
	moveq	r1, #4
	rsb	r2, r1, r2, lsl #1
	uxth	r2, r2
.L883:
	strh	r2, [r4, r3, lsl #1]	@ movhi
	adds	r3, r3, #1
	cmp	r3, #256
	bne	.L885
	b	.L878
.L882:
	cmp	r0, #4
	mov	r3, #0
	bne	.L886
	strh	r3, [r4]	@ movhi
	movs	r3, #1
	strh	r3, [r4, #2]	@ movhi
	movs	r3, #2
	strh	r3, [r4, #4]	@ movhi
	movs	r3, #3
	strh	r3, [r4, #6]	@ movhi
	movs	r3, #5
	strh	r3, [r4, #10]	@ movhi
	movs	r3, #7
	strh	r3, [r4, #12]	@ movhi
	mov	r2, r4
	movs	r3, #8
	strh	r0, [r4, #8]	@ movhi
	strh	r3, [r2, #14]!	@ movhi
.L888:
	tst	r3, #1
	ite	ne
	movne	r1, #7
	moveq	r1, #6
	rsb	r1, r1, r3, lsl #1
	adds	r3, r3, #1
	uxth	r3, r3
	strh	r1, [r2, #2]!	@ movhi
	cmp	r3, #256
	bne	.L888
	b	.L878
.L886:
	cmp	r0, #5
	bne	.L889
.L890:
	strh	r3, [r4, r3, lsl #1]	@ movhi
	adds	r3, r3, #1
	cmp	r3, #16
	bne	.L890
	ldr	r2, .L905+8
.L891:
	strh	r3, [r2, #2]!	@ movhi
	adds	r3, r3, #2
	uxth	r3, r3
	cmp	r3, #496
	bne	.L891
	b	.L878
.L889:
	cmp	r0, #8
	bne	.L878
.L892:
	strh	r3, [r4, r3]	@ movhi
	adds	r3, r3, #2
	cmp	r3, #512
	bne	.L892
	b	.L878
.L906:
	.align	2
.L905:
	.word	.LANCHOR14
	.word	.LANCHOR96
	.word	.LANCHOR14+30
	.size	flash_lsb_page_tbl_build, .-flash_lsb_page_tbl_build
	.section	.text.flash_die_info_init,"ax",%progbits
	.align	1
	.global	flash_die_info_init
	.syntax unified
	.thumb
	.thumb_func
	.fpu softvfp
	.type	flash_die_info_init, %function
flash_die_info_init:
	@ args = 0, pretend = 0, frame = 8
	@ frame_needed = 0, uses_anonymous_args = 0
	push	{r0, r1, r4, r5, r6, r7, r8, r10, fp, lr}
	movs	r5, #0
	ldr	r4, .L920
	ldr	r6, .L920+4
	ldrh	r3, [r4, #26]
	add	r10, r4, #1
	ldr	r7, .L920+8
	ldrb	r1, [r4, #12]	@ zero_extendqisi2
	ldrh	r0, [r4, #10]
	strh	r3, [r7]	@ movhi
	strb	r5, [r6]
	bl	__aeabi_idiv
	ldr	r3, .L920+12
	movs	r2, #8
	mov	r1, r5
	ldr	r8, .L920+32
	ldr	fp, .L920+20
	strh	r0, [r3]	@ movhi
	ldr	r0, .L920+16
	bl	ftl_memset
	movs	r2, #32
	mov	r1, r5
	ldr	r0, .L920+20
	bl	ftl_memset
	ldrb	r3, [r4]	@ zero_extendqisi2
	str	r3, [sp]
	ldr	r3, .L920+16
.L909:
	ldr	r2, [sp]
	add	r1, r8, r5, lsl #3
	mov	r0, r10
	str	r3, [sp, #4]
	bl	flash_mem_cmp8
	ldr	r3, [sp, #4]
	cbnz	r0, .L908
	ldrb	r2, [r6]	@ zero_extendqisi2
	adds	r1, r2, #1
	str	r0, [fp, r2, lsl #2]
	strb	r1, [r6]
	strb	r5, [r3, r2]
.L908:
	adds	r5, r5, #1
	cmp	r5, #4
	bne	.L909
	ldrb	r3, [r4, #8]	@ zero_extendqisi2
	cmp	r3, #2
	beq	.L910
.L914:
	ldrb	r2, [r4, #13]	@ zero_extendqisi2
	ldrb	r3, [r6]	@ zero_extendqisi2
	smulbb	r3, r3, r2
	ldrh	r2, [r4, #14]
	smulbb	r3, r3, r2
	ldr	r2, .L920+24
	strh	r3, [r2]	@ movhi
	add	sp, sp, #8
	@ sp needed
	pop	{r4, r5, r6, r7, r8, r10, fp, pc}
.L910:
	ldrh	r5, [r7]
	movs	r7, #0
	ldrb	r3, [r4, #13]	@ zero_extendqisi2
	ldrb	r8, [r4, #23]	@ zero_extendqisi2
	ldr	fp, .L920+16
	muls	r3, r5, r3
	ldrh	r5, [r4, #14]
	and	r5, r5, #65280
	muls	r5, r3, r5
	ldr	r3, .L920+28
	lsl	r10, r5, #1
.L913:
	ldr	r1, .L920+32
	mov	r0, r3
	ldr	r2, [sp]
	str	r3, [sp, #4]
	add	r1, r1, r7, lsl #3
	bl	flash_mem_cmp8
	ldr	r3, [sp, #4]
	cbnz	r0, .L911
	ldrb	r2, [r6]	@ zero_extendqisi2
	cmp	r8, #0
	ite	eq
	moveq	r1, r5
	movne	r1, r10
	ldr	r0, .L920+20
	strb	r7, [fp, r2]
	str	r1, [r0, r2, lsl #2]
	adds	r1, r2, #1
	strb	r1, [r6]
.L911:
	adds	r7, r7, #1
	cmp	r7, #4
	bne	.L913
	b	.L914
.L921:
	.align	2
.L920:
	.word	.LANCHOR19
	.word	.LANCHOR8
	.word	.LANCHOR13
	.word	.LANCHOR97
	.word	.LANCHOR10
	.word	.LANCHOR98
	.word	.LANCHOR99
	.word	.LANCHOR19+1
	.word	.LANCHOR26
	.size	flash_die_info_init, .-flash_die_info_init
	.section	.text.FlashReadFacBbtData,"ax",%progbits
	.align	1
	.global	FlashReadFacBbtData
	.syntax unified
	.thumb
	.thumb_func
	.fpu softvfp
	.type	FlashReadFacBbtData, %function
FlashReadFacBbtData:
	@ args = 0, pretend = 0, frame = 0
	@ frame_needed = 0, uses_anonymous_args = 0
	push	{r3, lr}
	lsrs	r2, r2, #3
	movs	r1, #0
	bl	ftl_memset
	movs	r0, #0
	pop	{r3, pc}
	.size	FlashReadFacBbtData, .-FlashReadFacBbtData
	.section	.text.lpa_hash_init,"ax",%progbits
	.align	1
	.global	lpa_hash_init
	.syntax unified
	.thumb
	.thumb_func
	.fpu softvfp
	.type	lpa_hash_init, %function
lpa_hash_init:
	@ args = 0, pretend = 0, frame = 0
	@ frame_needed = 0, uses_anonymous_args = 0
	push	{r3, lr}
	mov	r2, #512
	movs	r1, #255
	ldr	r0, .L924
	bl	ftl_memset
	ldr	r3, .L924+4
	movs	r1, #255
	ldr	r2, .L924+8
	ldrh	r3, [r3]
	ldrb	r2, [r2]	@ zero_extendqisi2
	muls	r2, r3, r2
	ldr	r3, .L924+12
	ldr	r0, [r3]
	lsls	r2, r2, #2
	pop	{r3, lr}
	b	ftl_memset
.L925:
	.align	2
.L924:
	.word	.LANCHOR81
	.word	.LANCHOR79
	.word	.LANCHOR69
	.word	.LANCHOR83
	.size	lpa_hash_init, .-lpa_hash_init
	.section	.text.lpa_rebuild_hash,"ax",%progbits
	.align	1
	.global	lpa_rebuild_hash
	.syntax unified
	.thumb
	.thumb_func
	.fpu softvfp
	.type	lpa_rebuild_hash, %function
lpa_rebuild_hash:
	@ args = 0, pretend = 0, frame = 0
	@ frame_needed = 0, uses_anonymous_args = 0
	push	{r3, r4, r5, r6, r7, lr}
	ldr	r3, .L937
	ldr	r3, [r3]
	lsls	r3, r3, #19
	bpl	.L927
	movs	r3, #0
	movs	r2, #190
	ldr	r1, .L937+4
	ldr	r0, .L937+8
	bl	printf
.L927:
	ldr	r6, .L937+12
	mov	r2, #512
	ldr	r4, .L937+16
	movs	r1, #255
	ldr	r0, .L937+20
	bl	ftl_memset
	ldrh	r3, [r4]
	movs	r1, #255
	ldrb	r2, [r6]	@ zero_extendqisi2
	ldr	r5, .L937+24
	muls	r2, r3, r2
	ldr	r0, [r5]
	lsls	r2, r2, #2
	bl	ftl_memset
	ldr	r3, .L937+28
	movs	r2, #0
	ldrb	r6, [r6]	@ zero_extendqisi2
	ldr	ip, [r5]
	ldr	r7, [r3]
	ldr	r0, .L937+20
.L928:
	ldrh	r3, [r4]
	uxth	r5, r2
	mov	r1, r5
	muls	r3, r6, r3
	cmp	r5, r3, lsl #1
	blt	.L930
	pop	{r3, r4, r5, r6, r7, pc}
.L930:
	ldr	r3, [r7, r1, lsl #2]
	adds	r2, r2, #1
	cmp	r3, #-1
	itttt	ne
	uxtbne	r3, r3
	ldrhne	lr, [r0, r3, lsl #1]
	strhne	r5, [r0, r3, lsl #1]	@ movhi
	strhne	lr, [ip, r1, lsl #1]	@ movhi
	b	.L928
.L938:
	.align	2
.L937:
	.word	.LANCHOR22
	.word	.LANCHOR100
	.word	.LC28
	.word	.LANCHOR69
	.word	.LANCHOR79
	.word	.LANCHOR81
	.word	.LANCHOR83
	.word	.LANCHOR82
	.size	lpa_rebuild_hash, .-lpa_rebuild_hash
	.section	.text.ftl_open_sblk_init,"ax",%progbits
	.align	1
	.global	ftl_open_sblk_init
	.syntax unified
	.thumb
	.thumb_func
	.fpu softvfp
	.type	ftl_open_sblk_init, %function
ftl_open_sblk_init:
	@ args = 0, pretend = 0, frame = 0
	@ frame_needed = 0, uses_anonymous_args = 0
	push	{r3, r4, r5, r6, r7, r8, r10, lr}
	mov	r4, r0
	ldr	r8, .L945+12
	mov	r6, r1
	movs	r7, #0
.L940:
.L943:
	mov	r0, r6
	ldr	r10, .L945+16
	bl	ftl_alloc_sblk
	movs	r1, #0
	mov	r5, r0
	bl	ftl_erase_sblk
	add	r1, r4, #16
	mov	r0, r5
	bl	ftl_get_blk_list_in_sblk
	ldr	r1, .L945
	cmp	r6, #2
	ldrh	r2, [r8]
	uxtb	r0, r0
	strh	r5, [r4]	@ movhi
	ite	eq
	moveq	r3, #0
	ldrbne	r3, [r1]	@ zero_extendqisi2
	ldrb	r1, [r1]	@ zero_extendqisi2
	strb	r0, [r4, #9]
	smulbb	r0, r0, r2
	strh	r7, [r4, #2]	@ movhi
	it	ne
	smulbbne	r3, r3, r2
	strb	r7, [r4, #5]
	mul	r2, r2, r1
	ldr	r1, .L945+4
	strh	r0, [r4, #6]	@ movhi
	it	ne
	uxthne	r3, r3
	strh	r7, [r4, #10]	@ movhi
	ldr	r0, [r1]
	movs	r1, #255
	strh	r3, [r4, #12]	@ movhi
	lsls	r2, r2, #2
	strb	r6, [r4, #4]
	add	r0, r0, r3, lsl #2
	bl	ftl_memset
	ldr	r3, [r10]
	ldrh	r2, [r4, #6]
	strh	r2, [r3, r5, lsl #1]	@ movhi
	ldrb	r3, [r4, #9]	@ zero_extendqisi2
	cbnz	r3, .L939
	mov	r1, r5
	ldr	r0, .L945+8
	bl	printf
	ldr	r3, [r10]
	movw	r2, #65535
	strh	r2, [r3, r5, lsl #1]	@ movhi
	movs	r3, #7
	strb	r3, [r4, #4]
	b	.L943
.L939:
	pop	{r3, r4, r5, r6, r7, r8, r10, pc}
.L946:
	.align	2
.L945:
	.word	.LANCHOR69
	.word	.LANCHOR82
	.word	.LC26
	.word	.LANCHOR79
	.word	.LANCHOR56
	.size	ftl_open_sblk_init, .-ftl_open_sblk_init
	.section	.text.pm_free_sblk,"ax",%progbits
	.align	1
	.global	pm_free_sblk
	.syntax unified
	.thumb
	.thumb_func
	.fpu softvfp
	.type	pm_free_sblk, %function
pm_free_sblk:
	@ args = 0, pretend = 0, frame = 280
	@ frame_needed = 0, uses_anonymous_args = 0
	ldr	r3, .L962
	push	{r4, r5, r6, r7, r8, r10, fp, lr}
	sub	sp, sp, #280
	ldrh	r2, [r3]
	str	r3, [sp, #4]
	cmp	r2, #128
	bls	.L948
	movs	r2, #74
	ldr	r1, .L962+4
	ldr	r0, .L962+8
	bl	printf
.L949:
	b	.L949
.L948:
	mov	r2, #256
	movs	r1, #0
	add	r0, sp, #24
	movs	r4, #1
	bl	ftl_memset
	ldr	r3, .L962+12
	add	r10, sp, #24
	ldr	r0, .L962+16
	ldr	r1, .L962+20
	ldrh	r7, [r3]
	ldr	r6, [r0]
	ldr	r5, [sp, #4]
	rsb	r3, r7, #21
	str	r0, [sp, #8]
	lsls	r4, r4, r3
	ldrh	r2, [r6, #698]
	ldrb	r3, [r1]	@ zero_extendqisi2
	add	r8, r6, #704
	ldrh	fp, [r5]
	subs	r4, r4, #1
	movs	r5, #0
	str	r1, [sp, #12]
.L950:
	uxth	r1, r5
	cmp	r2, r1
	bhi	.L954
	ldr	r6, .L962+24
	movs	r5, #0
	ldr	r7, .L962+28
	mov	r10, r5
	ldrb	r4, [r6]	@ zero_extendqisi2
	ldrh	r3, [r7]
	smulbb	r4, r4, r3
	uxth	r4, r4
.L955:
	ldr	r3, [sp, #4]
	uxth	r2, r5
	ldrh	r3, [r3]
	cmp	r3, r2
	bhi	.L960
	mov	r0, r10
	add	sp, sp, #280
	@ sp needed
	pop	{r4, r5, r6, r7, r8, r10, fp, pc}
.L954:
	ldr	r0, [r8], #4
	mov	r1, r3
	str	r2, [sp, #20]
	str	r3, [sp, #16]
	lsrs	r0, r0, r7
	ands	r0, r0, r4
	bl	__aeabi_uidiv
	ldr	r3, [sp, #16]
	uxth	r0, r0
	ldr	r2, [sp, #20]
	add	lr, r6, #416
	movs	r1, #0
.L951:
	uxth	ip, r1
	cmp	fp, ip
	bhi	.L953
	adds	r5, r5, #1
	b	.L950
.L953:
	ldrh	ip, [lr], #2
	cmp	r0, ip
	ittt	eq
	ldrheq	ip, [r10, r1, lsl #1]
	addeq	ip, ip, #1
	strheq	ip, [r10, r1, lsl #1]	@ movhi
	adds	r1, r1, #1
	b	.L951
.L960:
	ldr	r3, [sp, #8]
	str	r2, [sp, #20]
	ldr	r0, [r3]
	uxth	r3, r5
	add	fp, r3, #208
	str	r3, [sp, #16]
	ldr	r3, [sp, #12]
	ldrh	r8, [r0, fp, lsl #1]
	ldrh	r0, [r0, #692]
	ldrb	r1, [r3]	@ zero_extendqisi2
	bl	__aeabi_idiv
	cmp	r0, r8
	ldr	r3, [sp, #16]
	ldr	r2, [sp, #20]
	bne	.L956
	ldrh	r0, [r7]
	ldrb	r1, [r6]	@ zero_extendqisi2
	smulbb	r1, r1, r0
	add	r0, sp, #24
	strh	r1, [r0, r3, lsl #1]	@ movhi
.L956:
	add	r1, sp, #24
	ldrh	r3, [r1, r3, lsl #1]
	cmp	r4, r3
	bls	.L957
	cbnz	r3, .L961
.L959:
	movw	r3, #65535
	cmp	r8, r3
	str	r3, [sp, #16]
	beq	.L958
	mov	r0, r8
	bl	ftl_free_sblk
	ldr	r3, [sp, #8]
	ldr	r2, [r3]
	ldr	r3, [sp, #16]
	strh	r3, [r2, fp, lsl #1]	@ movhi
	ldrh	r3, [r2, #688]
	subs	r3, r3, #1
	strh	r3, [r2, #688]	@ movhi
	b	.L958
.L957:
	cmp	r3, #0
	beq	.L959
.L958:
	adds	r5, r5, #1
	b	.L955
.L961:
	mov	r10, r2
	mov	r4, r3
	b	.L958
.L963:
	.align	2
.L962:
	.word	.LANCHOR101
	.word	.LANCHOR102
	.word	.LC0
	.word	.LANCHOR71
	.word	.LANCHOR46
	.word	.LANCHOR70
	.word	.LANCHOR69
	.word	.LANCHOR79
	.size	pm_free_sblk, .-pm_free_sblk
	.section	.text.ftl_memcpy,"ax",%progbits
	.align	1
	.global	ftl_memcpy
	.syntax unified
	.thumb
	.thumb_func
	.fpu softvfp
	.type	ftl_memcpy, %function
ftl_memcpy:
	@ args = 0, pretend = 0, frame = 0
	@ frame_needed = 0, uses_anonymous_args = 0
	@ link register save eliminated.
	b	memcpy
	.size	ftl_memcpy, .-ftl_memcpy
	.section	.text.flash_into_data_init,"ax",%progbits
	.align	1
	.global	flash_into_data_init
	.syntax unified
	.thumb
	.thumb_func
	.fpu softvfp
	.type	flash_into_data_init, %function
flash_into_data_init:
	@ args = 0, pretend = 0, frame = 0
	@ frame_needed = 0, uses_anonymous_args = 0
	push	{r4, lr}
	mov	r2, #2048
	ldr	r4, .L966
	movs	r1, #0
	ldr	r0, [r4]
	bl	ftl_memset
	ldr	r0, [r4]
	movs	r2, #32
	ldr	r3, .L966+4
	ldr	r1, .L966+8
	adds	r0, r0, #80
	str	r3, [r0, #-80]
	mov	r3, #2032
	str	r3, [r0, #-72]
	movs	r3, #1
	strh	r3, [r0, #-64]	@ movhi
	bl	ftl_memcpy
	ldr	r0, [r4]
	movs	r2, #32
	ldr	r1, .L966+12
	pop	{r4, lr}
	adds	r0, r0, #48
	b	ftl_memcpy
.L967:
	.align	2
.L966:
	.word	.LANCHOR5
	.word	1398362953
	.word	.LANCHOR103
	.word	.LANCHOR19
	.size	flash_into_data_init, .-flash_into_data_init
	.section	.text.ftl_memcpy32,"ax",%progbits
	.align	1
	.global	ftl_memcpy32
	.syntax unified
	.thumb
	.thumb_func
	.fpu softvfp
	.type	ftl_memcpy32, %function
ftl_memcpy32:
	@ args = 0, pretend = 0, frame = 0
	@ frame_needed = 0, uses_anonymous_args = 0
	movs	r3, #0
	push	{r4, lr}
.L969:
	cmp	r3, r2
	bne	.L970
	pop	{r4, pc}
.L970:
	ldr	r4, [r1, r3, lsl #2]
	str	r4, [r0, r3, lsl #2]
	adds	r3, r3, #1
	b	.L969
	.size	ftl_memcpy32, .-ftl_memcpy32
	.section	.text.ftl_memcmp,"ax",%progbits
	.align	1
	.global	ftl_memcmp
	.syntax unified
	.thumb
	.thumb_func
	.fpu softvfp
	.type	ftl_memcmp, %function
ftl_memcmp:
	@ args = 0, pretend = 0, frame = 0
	@ frame_needed = 0, uses_anonymous_args = 0
	@ link register save eliminated.
	b	memcmp
	.size	ftl_memcmp, .-ftl_memcmp
	.section	.text.rknand_get_clk_rate,"ax",%progbits
	.align	1
	.global	rknand_get_clk_rate
	.syntax unified
	.thumb
	.thumb_func
	.fpu softvfp
	.type	rknand_get_clk_rate, %function
rknand_get_clk_rate:
	@ args = 0, pretend = 0, frame = 0
	@ frame_needed = 0, uses_anonymous_args = 0
	@ link register save eliminated.
	ldr	r0, .L973
	bx	lr
.L974:
	.align	2
.L973:
	.word	148000000
	.size	rknand_get_clk_rate, .-rknand_get_clk_rate
	.section	.text.ftl_malloc,"ax",%progbits
	.align	1
	.global	ftl_malloc
	.syntax unified
	.thumb
	.thumb_func
	.fpu softvfp
	.type	ftl_malloc, %function
ftl_malloc:
	@ args = 0, pretend = 0, frame = 0
	@ frame_needed = 0, uses_anonymous_args = 0
	@ link register save eliminated.
	movs	r1, #0
	b	kmalloc
	.size	ftl_malloc, .-ftl_malloc
	.section	.text.nandc_init,"ax",%progbits
	.align	1
	.global	nandc_init
	.syntax unified
	.thumb
	.thumb_func
	.fpu softvfp
	.type	nandc_init, %function
nandc_init:
	@ args = 0, pretend = 0, frame = 8
	@ frame_needed = 0, uses_anonymous_args = 0
	movs	r3, #0
	push	{r0, r1, r2, lr}
	str	r3, [sp, #4]
	movs	r2, #6
	ldr	r3, .L981
	ldr	r1, [r0, #352]
	strb	r2, [r3]
	ldr	r2, .L981+4
	str	r0, [r2]
	ldr	r2, .L981+8
	cmp	r1, r2
	ldr	r1, [r0, #128]
	itt	eq
	moveq	r2, #8
	strbeq	r2, [r3]
	ldr	r2, .L981+12
	cmp	r1, r2
	itt	eq
	moveq	r2, #9
	strbeq	r2, [r3]
	ldrb	r3, [r3]	@ zero_extendqisi2
	ldr	r2, .L981+16
	cmp	r3, #9
	ldr	r3, .L981+20
	bne	.L979
	movs	r1, #1
	strb	r1, [r3]
	ldr	r3, [sp, #4]
	orr	r3, r3, #256
	str	r3, [sp, #4]
	ldr	r3, [sp, #4]
	str	r3, [r0]
	movs	r3, #0
	str	r3, [r0, #520]
	movw	r3, #4225
	str	r3, [r0, #4]
	movw	r3, #8321
	str	r3, [r0, #8]
	movs	r3, #38
	str	r2, [r0, #80]
	str	r3, [r0, #84]
	movs	r3, #39
	str	r3, [r0, #84]
.L980:
	ldr	r3, .L981+24
	movs	r2, #1
	strb	r2, [r3]
	movs	r3, #0
	ldr	r2, .L981+28
	strh	r3, [r2]	@ movhi
	ldr	r2, .L981+32
	strb	r3, [r2]
	add	sp, sp, #12
	@ sp needed
	ldr	pc, [sp], #4
.L979:
	movs	r1, #0
	strb	r1, [r3]
	ldr	r3, [sp, #4]
	orr	r3, r3, #256
	str	r3, [sp, #4]
	ldr	r3, [sp, #4]
	str	r3, [r0]
	movw	r3, #4225
	str	r1, [r0, #336]
	str	r3, [r0, #4]
	movw	r3, #8321
	str	r3, [r0, #344]
	movs	r3, #38
	str	r2, [r0, #304]
	str	r3, [r0, #308]
	movs	r3, #39
	str	r3, [r0, #308]
	mov	r0, #2048
	bl	ftl_malloc
	ldr	r3, .L981+36
	str	r0, [r3]
	b	.L980
.L982:
	.align	2
.L981:
	.word	.LANCHOR7
	.word	.LANCHOR6
	.word	1446522928
	.word	1446588464
	.word	1052675
	.word	.LANCHOR28
	.word	.LANCHOR29
	.word	.LANCHOR31
	.word	.LANCHOR27
	.word	.LANCHOR30
	.size	nandc_init, .-nandc_init
	.section	.text.buf_init,"ax",%progbits
	.align	1
	.global	buf_init
	.syntax unified
	.thumb
	.thumb_func
	.fpu softvfp
	.type	buf_init, %function
buf_init:
	@ args = 0, pretend = 0, frame = 0
	@ frame_needed = 0, uses_anonymous_args = 0
	push	{r4, r5, r6, r7, r8, lr}
	movs	r5, #0
	ldr	r4, .L986
	mov	r6, r5
	ldr	r7, .L986+4
	mov	r8, r4
.L984:
	ldrb	r0, [r7]	@ zero_extendqisi2
	uxtb	r3, r5
	strb	r6, [r4, #2]
	adds	r5, r5, #1
	adds	r2, r3, #1
	strb	r3, [r4, #1]
	strb	r2, [r4]
	adds	r4, r4, #48
	str	r6, [r4, #-40]
	lsls	r0, r0, #9
	bl	ftl_malloc
	str	r0, [r4, #-44]
	ldrb	r0, [r7]	@ zero_extendqisi2
	lsls	r0, r0, #1
	bl	ftl_malloc
	cmp	r5, #32
	str	r0, [r4, #-36]
	bne	.L984
	movs	r3, #255
	strb	r3, [r8, #1488]
	ldr	r3, .L986+8
	strb	r6, [r3]
	ldr	r3, .L986+12
	strb	r5, [r3]
	pop	{r4, r5, r6, r7, r8, pc}
.L987:
	.align	2
.L986:
	.word	.LANCHOR36
	.word	.LANCHOR45
	.word	.LANCHOR37
	.word	.LANCHOR38
	.size	buf_init, .-buf_init
	.section	.text.gc_init,"ax",%progbits
	.align	1
	.global	gc_init
	.syntax unified
	.thumb
	.thumb_func
	.fpu softvfp
	.type	gc_init, %function
gc_init:
	@ args = 0, pretend = 0, frame = 0
	@ frame_needed = 0, uses_anonymous_args = 0
	push	{r3, r4, r5, lr}
	movs	r5, #0
	ldr	r3, .L989
	mov	r1, r5
	mov	r2, #320
	ldr	r4, .L989+4
	strb	r5, [r3]
	ldr	r3, .L989+8
	mov	r0, r4
	strb	r5, [r3]
	bl	ftl_memset
	movw	r3, #65535
	str	r5, [r4, #8]
	strh	r3, [r4]	@ movhi
	ldr	r3, .L989+12
	ldr	r5, .L989+16
	ldrh	r3, [r3]
	lsrs	r2, r3, #2
	lsrs	r1, r3, #1
	strh	r2, [r4, #32]	@ movhi
	strh	r1, [r4, #34]	@ movhi
	ldr	r4, .L989+20
	ldrb	r0, [r4]	@ zero_extendqisi2
	smulbb	r3, r0, r3
	subs	r3, r3, #32
	strh	r3, [r5]	@ movhi
	ldr	r3, .L989+24
	ldr	r5, .L989+28
	strh	r1, [r3]	@ movhi
	ldr	r3, .L989+32
	strh	r2, [r3]	@ movhi
	ldrh	r3, [r5]
	muls	r0, r3, r0
	lsls	r0, r0, #2
	bl	ftl_malloc
	ldr	r3, .L989+36
	str	r0, [r3]
	ldrh	r3, [r5]
	ldrb	r0, [r4]	@ zero_extendqisi2
	muls	r0, r3, r0
	lsls	r0, r0, #2
	bl	ftl_malloc
	ldr	r3, .L989+40
	str	r0, [r3]
	ldrh	r3, [r5]
	ldrb	r0, [r4]	@ zero_extendqisi2
	muls	r0, r3, r0
	bl	ftl_malloc
	ldr	r3, .L989+44
	str	r0, [r3]
	ldrh	r3, [r5]
	ldrb	r0, [r4]	@ zero_extendqisi2
	muls	r0, r3, r0
	lsls	r0, r0, #2
	bl	ftl_malloc
	ldr	r3, .L989+48
	str	r0, [r3]
	ldrh	r3, [r5]
	ldrb	r0, [r4]	@ zero_extendqisi2
	muls	r0, r3, r0
	lsls	r0, r0, #2
	bl	ftl_malloc
	ldr	r3, .L989+52
	str	r0, [r3]
	pop	{r3, r4, r5, pc}
.L990:
	.align	2
.L989:
	.word	.LANCHOR67
	.word	.LANCHOR59
	.word	.LANCHOR104
	.word	.LANCHOR79
	.word	.LANCHOR105
	.word	.LANCHOR69
	.word	.LANCHOR106
	.word	.LANCHOR68
	.word	.LANCHOR58
	.word	.LANCHOR107
	.word	.LANCHOR108
	.word	.LANCHOR65
	.word	.LANCHOR61
	.word	.LANCHOR109
	.size	gc_init, .-gc_init
	.section	.text.ftl_free,"ax",%progbits
	.align	1
	.global	ftl_free
	.syntax unified
	.thumb
	.thumb_func
	.fpu softvfp
	.type	ftl_free, %function
ftl_free:
	@ args = 0, pretend = 0, frame = 0
	@ frame_needed = 0, uses_anonymous_args = 0
	@ link register save eliminated.
	b	free
	.size	ftl_free, .-ftl_free
	.section	.text.js_hash,"ax",%progbits
	.align	1
	.global	js_hash
	.syntax unified
	.thumb
	.thumb_func
	.fpu softvfp
	.type	js_hash, %function
js_hash:
	@ args = 0, pretend = 0, frame = 0
	@ frame_needed = 0, uses_anonymous_args = 0
	ldr	r3, .L995
	add	r1, r1, r0
	push	{r4, lr}
.L993:
	cmp	r0, r1
	bne	.L994
	mov	r0, r3
	pop	{r4, pc}
.L994:
	lsrs	r2, r3, #2
	ldrb	r4, [r0], #1	@ zero_extendqisi2
	add	r2, r2, r3, lsl #5
	add	r2, r2, r4
	eors	r3, r3, r2
	b	.L993
.L996:
	.align	2
.L995:
	.word	1204201446
	.size	js_hash, .-js_hash
	.section	.text.timer_get_time,"ax",%progbits
	.align	1
	.global	timer_get_time
	.syntax unified
	.thumb
	.thumb_func
	.fpu softvfp
	.type	timer_get_time, %function
timer_get_time:
	@ args = 0, pretend = 0, frame = 0
	@ frame_needed = 0, uses_anonymous_args = 0
	@ link register save eliminated.
	movs	r0, #0
	bx	lr
	.size	timer_get_time, .-timer_get_time
	.section	.text.FlashCs123Init,"ax",%progbits
	.align	1
	.global	FlashCs123Init
	.syntax unified
	.thumb
	.thumb_func
	.fpu softvfp
	.type	FlashCs123Init, %function
FlashCs123Init:
	@ args = 0, pretend = 0, frame = 0
	@ frame_needed = 0, uses_anonymous_args = 0
	@ link register save eliminated.
	bx	lr
	.size	FlashCs123Init, .-FlashCs123Init
	.section	.text.rk_nand_de_init,"ax",%progbits
	.align	1
	.global	rk_nand_de_init
	.syntax unified
	.thumb
	.thumb_func
	.fpu softvfp
	.type	rk_nand_de_init, %function
rk_nand_de_init:
	@ args = 0, pretend = 0, frame = 0
	@ frame_needed = 0, uses_anonymous_args = 0
	@ link register save eliminated.
	b	FlashDeInit
	.size	rk_nand_de_init, .-rk_nand_de_init
	.section	.text.rk_ftl_get_capacity,"ax",%progbits
	.align	1
	.global	rk_ftl_get_capacity
	.syntax unified
	.thumb
	.thumb_func
	.fpu softvfp
	.type	rk_ftl_get_capacity, %function
rk_ftl_get_capacity:
	@ args = 0, pretend = 0, frame = 0
	@ frame_needed = 0, uses_anonymous_args = 0
	@ link register save eliminated.
	ldr	r3, .L1001
	ldr	r0, [r3]
	bx	lr
.L1002:
	.align	2
.L1001:
	.word	.LANCHOR52
	.size	rk_ftl_get_capacity, .-rk_ftl_get_capacity
	.section	.text.rknand_print_hex,"ax",%progbits
	.align	1
	.global	rknand_print_hex
	.syntax unified
	.thumb
	.thumb_func
	.fpu softvfp
	.type	rknand_print_hex, %function
rknand_print_hex:
	@ args = 0, pretend = 0, frame = 0
	@ frame_needed = 0, uses_anonymous_args = 0
	push	{r4, r5, r6, r7, r8, r10, fp, lr}
	movs	r5, #0
	ldr	r7, .L1012
	mov	fp, r0
	mov	r6, r1
	mov	r8, r2
	mov	r10, r3
	mov	r4, r5
.L1004:
	cmp	r4, r10
	bne	.L1010
	ldr	r1, .L1012+4
	ldr	r0, .L1012+8
	pop	{r4, r5, r6, r7, r8, r10, fp, lr}
	b	printf
.L1010:
	cbnz	r5, .L1005
	mov	r2, r4
	mov	r1, fp
	ldr	r0, .L1012+12
	bl	printf
.L1005:
	cmp	r8, #4
	bne	.L1006
	ldr	r1, [r6, r4, lsl #2]
.L1011:
	mov	r0, r7
	adds	r5, r5, #1
	bl	printf
	cmp	r5, #15
	bls	.L1009
	movs	r5, #0
	ldr	r1, .L1012+4
	ldr	r0, .L1012+8
	bl	printf
.L1009:
	adds	r4, r4, #1
	b	.L1004
.L1006:
	cmp	r8, #2
	ite	eq
	ldrsheq	r1, [r6, r4, lsl #1]
	ldrbne	r1, [r6, r4]	@ zero_extendqisi2
	b	.L1011
.L1013:
	.align	2
.L1012:
	.word	.LC30
	.word	.LC31
	.word	.LC32
	.word	.LC29
	.size	rknand_print_hex, .-rknand_print_hex
	.section	.text.hynix_get_read_retry_default,"ax",%progbits
	.align	1
	.global	hynix_get_read_retry_default
	.syntax unified
	.thumb
	.thumb_func
	.fpu softvfp
	.type	hynix_get_read_retry_default, %function
hynix_get_read_retry_default:
	@ args = 0, pretend = 0, frame = 56
	@ frame_needed = 0, uses_anonymous_args = 0
	ldr	r3, .L1107
	cmp	r0, #2
	push	{r4, r5, r6, r7, r8, r10, fp, lr}
	sub	sp, sp, #56
	mov	r1, #173
	mov	r2, #174
	mov	r6, r0
	ldr	r4, [r3]
	add	r3, r4, #128
	strb	r0, [r4, #112]
	str	r3, [sp, #8]
	mov	r3, #172
	strb	r3, [r4, #128]
	mov	r3, #175
	strb	r1, [r4, #129]
	strb	r2, [r4, #130]
	strb	r3, [r4, #131]
	bne	.L1015
	movs	r3, #167
	movs	r2, #247
	strb	r3, [r4, #128]
	ldr	r3, .L1107+4
	strb	r2, [r3, #17]
.L1069:
	mov	r10, #7
	b	.L1101
.L1015:
	cmp	r0, #3
	bne	.L1017
	add	r2, r4, #127
	movs	r3, #176
.L1018:
	strb	r3, [r2, #1]!
	adds	r3, r3, #1
	uxtb	r3, r3
	cmp	r3, #184
	bne	.L1018
.L1102:
	mov	r10, #8
	mov	fp, r10
.L1016:
	subs	r3, r6, #1
	cmp	r3, #1
	bhi	.L1023
	movs	r6, #0
.L1024:
	ldr	r3, .L1107+8
	ldrb	r2, [r3]	@ zero_extendqisi2
	uxtb	r3, r6
	cmp	r2, r3
	bhi	.L1029
.L1030:
	strb	fp, [r4, #113]
	strb	r10, [r4, #114]
	add	sp, sp, #56
	@ sp needed
	pop	{r4, r5, r6, r7, r8, r10, fp, pc}
.L1017:
	cmp	r0, #4
	bne	.L1019
	movs	r0, #204
	strb	r1, [r4, #133]
	strb	r0, [r4, #128]
	movs	r0, #191
	strb	r0, [r4, #129]
	movs	r0, #170
	strb	r0, [r4, #130]
	movs	r0, #171
	strb	r0, [r4, #131]
	movs	r0, #205
	strb	r0, [r4, #132]
	strb	r2, [r4, #134]
	strb	r3, [r4, #135]
	b	.L1102
.L1019:
	cmp	r0, #5
	bne	.L1020
	movs	r3, #56
	mov	r10, #8
	strb	r3, [r4, #128]
	movs	r3, #57
	strb	r3, [r4, #129]
	movs	r3, #58
	strb	r3, [r4, #130]
	movs	r3, #59
	strb	r3, [r4, #131]
.L1101:
	mov	fp, #4
	b	.L1016
.L1020:
	cmp	r0, #6
	bne	.L1021
	movs	r3, #14
	mov	r10, #12
	strb	r3, [r4, #128]
	movs	r3, #15
	strb	r3, [r4, #129]
	movs	r3, #16
	strb	r3, [r4, #130]
	movs	r3, #17
	strb	r3, [r4, #131]
	b	.L1101
.L1021:
	cmp	r0, #7
	bne	.L1069
	add	r2, r4, #127
	movs	r3, #176
.L1022:
	strb	r3, [r2, #1]!
	adds	r3, r3, #1
	uxtb	r3, r3
	cmp	r3, #184
	bne	.L1022
	movs	r3, #212
	mov	r10, #12
	strb	r3, [r4, #136]
	movs	r3, #213
	strb	r3, [r4, #137]
	mov	fp, #10
	b	.L1016
.L1029:
	ldr	r2, .L1107+12
	movs	r1, #160
	add	r8, fp, #-1
	add	r7, r4, #127
	ldrb	r3, [r2, r3]	@ zero_extendqisi2
	mla	r1, r1, r3, r4
	add	r2, r1, #144
	ldr	r1, [sp, #8]
	str	r2, [sp, #4]
	ldr	r2, .L1107+16
	uxtab	r8, r1, r8
	ldr	r5, [r2]
	ldr	r2, [sp, #4]
	add	r5, r5, r3, lsl #8
	subs	r2, r2, #1
	addw	r3, r5, #2056
.L1025:
	str	r2, [sp, #16]
	movs	r2, #55
	str	r2, [r3]
	ldrb	r0, [r7, #1]!	@ zero_extendqisi2
	str	r3, [sp, #12]
	str	r0, [r5, #2052]
	movs	r0, #80
	bl	timer_delay_ns
	ldr	r0, [r5, #2048]
	cmp	r8, r7
	ldr	r2, [sp, #16]
	ldr	r3, [sp, #12]
	strb	r0, [r2, #1]!
	bne	.L1025
	ldr	r0, [sp, #4]
	movs	r2, #0
	ldr	ip, .L1107+4
.L1026:
	movs	r3, #1
	add	r7, ip, r2
.L1027:
	ldrb	r5, [r7, r3, lsl #2]	@ zero_extendqisi2
	ldrb	lr, [r0]	@ zero_extendqisi2
	add	r5, r5, lr
	strb	r5, [r0, r3, lsl #3]
	adds	r3, r3, #1
	cmp	r3, #7
	bne	.L1027
	adds	r2, r2, #1
	adds	r0, r0, #1
	cmp	r2, #4
	bne	.L1026
	ldr	r2, [sp, #4]
	movs	r3, #0
	adds	r6, r6, #1
	strb	r3, [r2, #16]
	strb	r3, [r2, #24]
	strb	r3, [r2, #32]
	strb	r3, [r2, #40]
	strb	r3, [r2, #48]
	strb	r3, [r2, #41]
	strb	r3, [r2, #49]
	b	.L1024
.L1023:
	subs	r3, r6, #3
	cmp	r3, #4
	bhi	.L1030
	smulbb	r3, r10, fp
	asrs	r2, r3, #2
	lsls	r3, r3, #4
	str	r3, [sp, #48]
	lsls	r3, r2, #3
	str	r2, [sp, #8]
	str	r3, [sp, #52]
	lsls	r3, r2, #2
	str	r3, [sp, #36]
	movs	r3, #0
.L1106:
	str	r3, [sp, #24]
	ldr	r3, .L1107+8
	ldrb	r2, [r3]	@ zero_extendqisi2
	ldrb	r3, [sp, #24]	@ zero_extendqisi2
	cmp	r2, r3
	bls	.L1030
	ldr	r2, .L1107+12
	movs	r1, #160
	movs	r7, #255
	ldrb	r3, [r2, r3]	@ zero_extendqisi2
	str	r3, [sp, #4]
	mla	r1, r1, r3, r4
	ldr	r2, [sp, #4]
	add	r3, r1, #144
	str	r3, [sp, #44]
	ldr	r3, .L1107+16
	ldr	r3, [r3]
	str	r3, [sp, #12]
	add	r5, r3, r2, lsl #8
	str	r7, [r5, #2056]
	bl	nandc_wait_flash_ready
	cmp	r6, #4
	mov	r3, #54
	str	r3, [r5, #2056]
	bne	.L1032
	movs	r3, #64
	str	r7, [r5, #2052]
	str	r3, [r5, #2048]
	movs	r3, #204
.L1103:
	str	r3, [r5, #2052]
	movs	r3, #77
	b	.L1104
.L1032:
	subs	r3, r6, #5
	cmp	r3, #1
	bhi	.L1034
	ldrb	r3, [r4, #128]	@ zero_extendqisi2
	str	r3, [r5, #2052]
	movs	r3, #82
.L1104:
	str	r3, [r5, #2048]
	cmp	r6, #6
	ldr	r3, [sp, #12]
	ldr	r2, [sp, #4]
	add	r5, r3, r2, lsl #8
	mov	r3, #22
	ldr	r2, [sp, #4]
	str	r3, [r5, #2056]
	mov	r3, #23
	str	r3, [r5, #2056]
	mov	r3, #4
	str	r3, [r5, #2056]
	mov	r3, #25
	str	r3, [r5, #2056]
	mov	r3, #0
	str	r3, [r5, #2056]
	str	r3, [r5, #2052]
	str	r3, [r5, #2052]
	it	eq
	moveq	r3, #31
	str	r3, [r5, #2052]
	movs	r3, #2
	str	r3, [r5, #2052]
	movs	r3, #0
	str	r3, [r5, #2052]
	ldr	r3, [sp, #12]
	add	r3, r3, r2, lsl #8
	movs	r2, #48
	str	r2, [r3, #2056]
	bl	nandc_wait_flash_ready
	subs	r3, r6, #5
	cmp	r3, #1
	str	r3, [sp, #28]
	bls	.L1070
	cmp	r6, #7
	ite	ne
	movne	r2, #2
	moveq	r2, #32
.L1037:
	ldr	r3, .L1107+20
	subs	r2, r2, #1
	ldr	r3, [r3]
	subs	r1, r3, #1
	uxtab	r2, r3, r2
	mov	r0, r1
.L1038:
	ldr	r7, [r5, #2048]
	strb	r7, [r0, #1]!
	cmp	r0, r2
	bne	.L1038
	cmp	r6, #7
	bne	.L1039
	movs	r2, #0
.L1041:
	ldrb	r0, [r3, r2, lsl #2]	@ zero_extendqisi2
	uxtb	r1, r2
	cmp	r0, #12
	beq	.L1040
	add	r0, r3, r2, lsl #2
	ldrb	r0, [r0, #1]	@ zero_extendqisi2
	cmp	r0, #10
	beq	.L1040
	adds	r2, r2, #1
	cmp	r2, #8
	bne	.L1041
.L1042:
	movs	r1, #0
	ldr	r0, .L1107+24
	bl	printf
.L1044:
	b	.L1044
.L1034:
	movs	r3, #174
	str	r3, [r5, #2052]
	movs	r3, #0
	str	r3, [r5, #2048]
	movs	r3, #176
	b	.L1103
.L1070:
	movs	r2, #16
	b	.L1037
.L1108:
	.align	2
.L1107:
	.word	.LANCHOR5
	.word	.LANCHOR110
	.word	.LANCHOR8
	.word	.LANCHOR10
	.word	.LANCHOR6
	.word	.LANCHOR111
	.word	.LC33
.L1040:
	cmp	r1, #6
	bhi	.L1042
.L1043:
	ldr	r3, .L1109
	ldr	r8, [r3]
	mov	r3, r8
.L1048:
	ldr	r1, [sp, #48]
	sub	r2, r3, r8
	cmp	r1, r2
	bgt	.L1049
	ldr	r3, .L1109
	ldr	r1, [r3]
	ldr	r3, [sp, #36]
	adds	r0, r1, r3
	movs	r3, #8
.L1051:
	mov	ip, r0
	movs	r7, #0
.L1050:
	ldr	r2, [ip]
	adds	r7, r7, #1
	mvns	r2, r2
	str	r2, [ip], #4
	ldr	r2, [sp, #8]
	cmp	r2, r7
	bgt	.L1050
	ldr	r2, [sp, #52]
	subs	r3, r3, #1
	add	r0, r0, r2
	bne	.L1051
	mov	ip, r1
	str	r3, [sp, #20]
.L1052:
	movs	r0, #0
	mov	r2, r0
.L1056:
	movs	r3, #1
	mov	lr, #0
	lsl	r7, r3, r2
	movs	r3, #16
	str	ip, [sp, #16]
	str	r7, [sp, #32]
	str	r3, [sp, #40]
.L1054:
	ldr	r3, [sp, #32]
	mov	r7, r3
	ldr	r3, [sp, #16]
	ldr	r3, [r3]
	bics	r3, r7, r3
	ldr	r3, [sp, #36]
	ldr	r7, [sp, #16]
	it	eq
	addeq	lr, lr, #1
	add	r7, r7, r3
	ldr	r3, [sp, #40]
	str	r7, [sp, #16]
	subs	r3, r3, #1
	str	r3, [sp, #40]
	bne	.L1054
	cmp	lr, #8
	add	r2, r2, #1
	itt	hi
	ldrhi	r3, [sp, #32]
	orrhi	r0, r0, r3
	cmp	r2, #32
	bne	.L1056
	ldr	r3, [sp, #20]
	str	r0, [ip], #4
	adds	r3, r3, #1
	str	r3, [sp, #20]
	ldr	r2, [sp, #20]
	ldr	r3, [sp, #8]
	cmp	r3, r2
	bgt	.L1052
	subs	r2, r1, #4
	add	r0, r1, #28
	movs	r3, #0
.L1059:
	ldr	r7, [r2, #4]!
	cbnz	r7, .L1058
	adds	r3, r3, #1
.L1058:
	cmp	r0, r2
	bne	.L1059
	cmp	r3, #7
	ble	.L1060
	ldr	r0, .L1109+4
	mov	r3, #1024
	movs	r2, #1
	bl	rknand_print_hex
	movs	r1, #0
	ldr	r0, .L1109+8
	bl	printf
.L1061:
	b	.L1061
.L1039:
	cmp	r6, #6
	bne	.L1043
	adds	r3, r3, #7
.L1045:
	ldrb	r2, [r1, #1]!	@ zero_extendqisi2
	cmp	r2, #12
	beq	.L1043
	ldrb	r2, [r1, #8]	@ zero_extendqisi2
	cmp	r2, #4
	beq	.L1043
	cmp	r1, r3
	bne	.L1045
	movs	r1, #0
	ldr	r0, .L1109+8
	bl	printf
.L1047:
	b	.L1047
.L1049:
	ldr	r2, [r5, #2048]
	strb	r2, [r3], #1
	b	.L1048
.L1060:
	cmp	r6, #6
	beq	.L1072
	cmp	r6, #7
	ite	ne
	movne	lr, #8
	moveq	lr, #10
.L1062:
	add	r3, fp, #-1
	ldr	r1, [sp, #44]
	uxtb	r3, r3
	movs	r0, #0
	adds	r3, r3, #1
.L1063:
	mov	ip, r1
	mov	r2, r8
.L1064:
	ldrb	r7, [r2], #1	@ zero_extendqisi2
	strb	r7, [ip], #1
	sub	r7, r2, r8
	uxtb	r7, r7
	cmp	fp, r7
	bhi	.L1064
	adds	r0, r0, #1
	add	r8, r8, r3
	cmp	r10, r0
	add	r1, r1, lr
	bgt	.L1063
	ldr	r3, [sp, #12]
	mov	r8, #255
	ldr	r2, [sp, #4]
	add	r7, r3, r2, lsl #8
	str	r8, [r7, #2056]
	bl	nandc_wait_flash_ready
	ldr	r3, [sp, #28]
	cmp	r3, #1
	bhi	.L1066
	movs	r3, #54
	movs	r2, #22
	str	r3, [r7, #2056]
	ldrb	r3, [r4, #128]	@ zero_extendqisi2
	str	r3, [r5, #2052]
	movs	r3, #0
	str	r3, [r5, #2048]
	str	r2, [r7, #2056]
	str	r3, [r7, #2056]
	str	r3, [r5, #2052]
	str	r3, [r5, #2052]
	movs	r3, #48
	str	r8, [r5, #2052]
	str	r8, [r5, #2052]
	str	r8, [r5, #2052]
.L1105:
	str	r3, [r7, #2056]
	bl	nandc_wait_flash_ready
	ldr	r3, [sp, #24]
	adds	r3, r3, #1
	b	.L1106
.L1072:
	mov	lr, #4
	b	.L1062
.L1066:
	movs	r3, #56
	b	.L1105
.L1110:
	.align	2
.L1109:
	.word	.LANCHOR111
	.word	.LC34
	.word	.LC33
	.size	hynix_get_read_retry_default, .-hynix_get_read_retry_default
	.section	.text.flash_get_read_retry_tbl,"ax",%progbits
	.align	1
	.global	flash_get_read_retry_tbl
	.syntax unified
	.thumb
	.thumb_func
	.fpu softvfp
	.type	flash_get_read_retry_tbl, %function
flash_get_read_retry_tbl:
	@ args = 0, pretend = 0, frame = 0
	@ frame_needed = 0, uses_anonymous_args = 0
	@ link register save eliminated.
	ldr	r3, .L1113
	ldrb	r0, [r3, #19]	@ zero_extendqisi2
	subs	r3, r0, #1
	cmp	r3, #6
	bhi	.L1111
	b	hynix_get_read_retry_default
.L1111:
	bx	lr
.L1114:
	.align	2
.L1113:
	.word	.LANCHOR19
	.size	flash_get_read_retry_tbl, .-flash_get_read_retry_tbl
	.section	.text.nandc_xfer_done,"ax",%progbits
	.align	1
	.global	nandc_xfer_done
	.syntax unified
	.thumb
	.thumb_func
	.fpu softvfp
	.type	nandc_xfer_done, %function
nandc_xfer_done:
	@ args = 0, pretend = 0, frame = 8
	@ frame_needed = 0, uses_anonymous_args = 0
	ldr	r3, .L1149
	push	{r0, r1, r4, r5, r6, r7, r8, lr}
	ldr	r4, .L1149+4
	ldrb	r3, [r3]	@ zero_extendqisi2
	ldr	r6, [r4]
	cmp	r3, #9
	bne	.L1116
	ldr	r3, [r6, #16]
	str	r3, [sp]
	ldr	r5, [r6, #48]
	ubfx	r5, r5, #1, #1
	cbnz	r5, .L1117
	ldr	r7, .L1149+8
	ldr	r8, .L1149+24
.L1118:
	ldr	r3, [sp]
	lsls	r0, r3, #11
	bmi	.L1121
	ldr	r3, [r4]
	adds	r5, r5, #1
	ldr	r3, [r3, #16]
	str	r3, [sp]
	bics	r3, r5, #-16777216
	bne	.L1118
	ldr	r2, [sp]
	mov	r1, r5
	ldr	r3, [r6, #64]
	mov	r0, r7
	ubfx	r3, r3, #16, #6
	bl	printf
	mov	r3, #256
	movs	r2, #4
	ldr	r1, [r4]
	mov	r0, r8
	bl	rknand_print_hex
	b	.L1118
.L1117:
	ldr	r7, .L1149+12
	movs	r5, #0
	ldr	r8, .L1149+24
.L1119:
	ldr	r2, [r6, #64]
	ldr	r3, [sp]
	ubfx	r2, r2, #16, #6
	ubfx	r3, r3, #22, #6
	cmp	r2, r3
	blt	.L1123
.L1121:
	ldr	r3, .L1149+16
	movs	r2, #0
	str	r2, [r3, #20]
	add	sp, sp, #8
	@ sp needed
	pop	{r4, r5, r6, r7, r8, pc}
.L1123:
	ldr	r3, [r4]
	ldr	r3, [r3]
	str	r3, [sp, #4]
	ldr	r3, [sp, #4]
	lsls	r2, r3, #18
	bpl	.L1120
	ldr	r3, [sp, #4]
	lsls	r3, r3, #14
	bmi	.L1121
.L1120:
	adds	r5, r5, #1
	bics	r3, r5, #-16777216
	bne	.L1119
	ldr	r2, [r6, #64]
	mov	r1, r5
	ldr	r3, [sp]
	mov	r0, r7
	ubfx	r2, r2, #16, #5
	ubfx	r3, r3, #22, #6
	bl	printf
	mov	r3, #256
	movs	r2, #4
	ldr	r1, [r4]
	mov	r0, r8
	bl	rknand_print_hex
	b	.L1119
.L1116:
	ldr	r3, [r6, #8]
	str	r3, [sp]
	ldr	r5, [r6, #16]
	ubfx	r5, r5, #1, #1
	cbnz	r5, .L1127
	ldr	r7, .L1149+8
	ldr	r8, .L1149+24
.L1128:
	ldr	r3, [sp]
	lsls	r3, r3, #11
	bmi	.L1121
	ldr	r3, [r4]
	adds	r5, r5, #1
	ldr	r3, [r3, #8]
	str	r3, [sp]
	bics	r3, r5, #-16777216
	bne	.L1128
	ldr	r2, [sp]
	mov	r1, r5
	ldr	r3, [r6, #28]
	mov	r0, r7
	ubfx	r3, r3, #16, #5
	bl	printf
	mov	r3, #256
	movs	r2, #4
	ldr	r1, [r4]
	mov	r0, r8
	bl	rknand_print_hex
	b	.L1128
.L1127:
	ldr	r7, .L1149+12
	movs	r5, #0
	ldr	r8, .L1149+24
.L1129:
	ldr	r2, [r6, #28]
	ldr	r3, [sp]
	ubfx	r2, r2, #16, #5
	ubfx	r3, r3, #22, #6
	cmp	r2, r3
	bge	.L1121
	ldr	r3, [r4]
	ldr	r3, [r3]
	str	r3, [sp, #4]
	ldr	r3, [sp, #4]
	lsls	r1, r3, #18
	bpl	.L1130
	ldr	r3, [sp, #4]
	lsls	r2, r3, #14
	bpl	.L1130
	ldr	r1, [sp, #4]
	ldr	r0, .L1149+20
	bl	printf
	b	.L1121
.L1130:
	adds	r5, r5, #1
	bics	r3, r5, #-16777216
	bne	.L1129
	ldr	r2, [r6, #28]
	mov	r1, r5
	ldr	r3, [sp]
	mov	r0, r7
	ubfx	r2, r2, #16, #5
	ubfx	r3, r3, #22, #6
	bl	printf
	mov	r3, #256
	movs	r2, #4
	ldr	r1, [r4]
	mov	r0, r8
	bl	rknand_print_hex
	b	.L1129
.L1150:
	.align	2
.L1149:
	.word	.LANCHOR7
	.word	.LANCHOR6
	.word	.LC37
	.word	.LC35
	.word	.LANCHOR30
	.word	.LC38
	.word	.LC36
	.size	nandc_xfer_done, .-nandc_xfer_done
	.section	.text.nandc_xfer,"ax",%progbits
	.align	1
	.global	nandc_xfer
	.syntax unified
	.thumb
	.thumb_func
	.fpu softvfp
	.type	nandc_xfer, %function
nandc_xfer:
	@ args = 4, pretend = 0, frame = 8
	@ frame_needed = 0, uses_anonymous_args = 0
	push	{r0, r1, r4, r5, r6, r7, r8, lr}
	mov	r8, r1
	ldr	r4, [sp, #32]
	mov	r6, r2
	mov	r5, r3
	mov	r1, r6
	mov	r2, r5
	mov	r0, r8
	mov	r3, r4
	bl	nandc_xfer_start
	bl	nandc_xfer_done
	cmp	r8, #0
	bne	.L1169
	ldr	r3, .L1182
	ldrb	r3, [r3]	@ zero_extendqisi2
	cmp	r3, #9
	bne	.L1153
	ldr	r5, .L1182+4
	lsrs	r6, r6, #2
	movs	r2, #1
	mov	r1, r8
	mov	r0, r8
	ldr	r4, [r5]
.L1154:
	cmp	r1, r6
	bcc	.L1158
	ldr	r4, [r4]
	cmp	r2, #0
	it	ne
	movne	r0, #512
	and	r3, r4, #139264
	cmp	r3, #139264
	bne	.L1152
	mov	r1, r4
	ldr	r0, .L1182+8
	bl	printf
	ldr	r3, [r5]
	orr	r4, r4, #131072
.L1181:
	mov	r0, #-1
	str	r4, [r3]
.L1152:
	add	sp, sp, #8
	@ sp needed
	pop	{r4, r5, r6, r7, r8, pc}
.L1158:
	add	r3, r1, #84
	ldr	r3, [r4, r3, lsl #2]
	str	r3, [sp, #4]
	ldr	r7, [sp, #4]
	ldr	r3, [sp, #4]
	ubfx	r3, r3, #26, #1
	and	r3, r3, r7, lsr #10
	ands	r2, r2, r3
	ldr	r3, [sp, #4]
	lsls	r3, r3, #29
	bmi	.L1171
	ldr	r3, [sp, #4]
	lsls	r7, r3, #13
	bmi	.L1171
	ldr	r7, [sp, #4]
	ldr	r3, [sp, #4]
	ubfx	r7, r7, #3, #7
	ubfx	r3, r3, #19, #7
	cmp	r7, r3
	ldr	r3, [sp, #4]
	ite	gt
	ubfxgt	r3, r3, #3, #7
	ubfxle	r3, r3, #19, #7
	cmp	r0, r3
	it	cc
	movcc	r0, r3
.L1155:
	adds	r1, r1, #1
	b	.L1154
.L1171:
	mov	r0, #-1
	b	.L1155
.L1153:
	ldr	r3, .L1182+12
	mov	r1, r8
	mov	r0, r8
	ldr	r8, .L1182+20
	lsrs	r7, r6, #1
	ldrb	r3, [r3]	@ zero_extendqisi2
	cmp	r3, #25
	mov	r3, r4
	ite	cc
	movcc	lr, #64
	movcs	lr, #128
.L1161:
	cmp	r0, r7
	add	ip, lr, r1
	add	r3, r3, #4
	bcc	.L1162
	lsrs	r7, r6, #2
	ldr	r6, .L1182+4
	movs	r2, #0
	mov	r0, r2
	ldr	r1, [r6]
.L1163:
	cmp	r2, r7
	bcc	.L1167
	movs	r3, #0
	str	r3, [r1, #16]
	adds	r3, r0, #1
	beq	.L1168
	ldr	r3, [r4]
	adds	r3, r3, #1
	bne	.L1168
	ldr	r3, [r4, #4]
	adds	r3, r3, #1
	bne	.L1168
	ldr	r3, [r5]
	adds	r3, r3, #1
	it	eq
	moveq	r0, #512
.L1168:
	ldr	r4, [r1]
	and	r3, r4, #139264
	cmp	r3, #139264
	bne	.L1152
	mov	r1, r4
	ldr	r0, .L1182+16
	bl	printf
	orr	r4, r4, #131072
	ldr	r3, [r6]
	b	.L1181
.L1162:
	ldr	r2, [r8]
	bic	r1, r1, #3
	adds	r0, r0, #1
	ldr	r2, [r2, r1]
	strb	r2, [r3, #-4]
	lsrs	r1, r2, #8
	strb	r1, [r3, #-3]
	lsrs	r1, r2, #16
	lsrs	r2, r2, #24
	strb	r1, [r3, #-2]
	mov	r1, ip
	strb	r2, [r3, #-1]
	b	.L1161
.L1167:
	add	r3, r2, #8
	ldr	r3, [r1, r3, lsl #2]
	str	r3, [sp, #4]
	ldr	r3, [sp, #4]
	lsls	r3, r3, #29
	bmi	.L1174
	ldr	r3, [sp, #4]
	lsls	r3, r3, #16
	bmi	.L1174
	ldr	r3, [sp, #4]
	ubfx	ip, r3, #3, #5
	ldr	r3, [sp, #4]
	ubfx	r8, r3, #27, #1
	ldr	r3, [sp, #4]
	ldr	lr, [sp, #4]
	orr	ip, ip, r8, lsl #5
	ubfx	r3, r3, #16, #5
	ubfx	lr, lr, #29, #1
	orr	r3, r3, lr, lsl #5
	cmp	ip, r3
	ldr	r3, [sp, #4]
	itete	hi
	ldrhi	ip, [sp, #4]
	ldrls	ip, [sp, #4]
	ubfxhi	r3, r3, #3, #5
	ubfxls	r3, r3, #16, #5
	ite	hi
	ubfxhi	ip, ip, #27, #1
	ubfxls	ip, ip, #29, #1
	orr	r3, r3, ip, lsl #5
	cmp	r0, r3
	it	cc
	movcc	r0, r3
.L1164:
	adds	r2, r2, #1
	b	.L1163
.L1174:
	mov	r0, #-1
	b	.L1164
.L1169:
	movs	r0, #0
	b	.L1152
.L1183:
	.align	2
.L1182:
	.word	.LANCHOR7
	.word	.LANCHOR6
	.word	.LC39
	.word	.LANCHOR27
	.word	.LC40
	.word	.LANCHOR30
	.size	nandc_xfer, .-nandc_xfer
	.section	.text.flash_read_page,"ax",%progbits
	.align	1
	.global	flash_read_page
	.syntax unified
	.thumb
	.thumb_func
	.fpu softvfp
	.type	flash_read_page, %function
flash_read_page:
	@ args = 4, pretend = 0, frame = 16
	@ frame_needed = 0, uses_anonymous_args = 0
	push	{r4, r5, r6, r7, r8, r10, fp, lr}
	sub	sp, sp, #24
	str	r3, [sp, #16]
	mov	r5, r0
	mov	r8, r1
	ubfx	r4, r1, #0, #21
	ldr	r3, .L1200
	ubfx	r6, r1, #24, #2
	str	r2, [sp, #12]
	ldr	r7, [r3]
	ldr	r3, .L1200+4
	ldr	r3, [r3]
	lsls	r3, r3, #27
	bpl	.L1185
	mov	r3, r1
	mov	r2, r6
	mov	r1, r0
	ldr	r0, .L1200+8
	bl	printf
.L1185:
	bl	nandc_wait_flash_ready
	mov	r0, r5
	lsl	r10, r5, #8
	bl	nandc_cs
	ldr	r1, .L1200+12
	cbnz	r6, .L1186
	mov	r0, r5
	str	r1, [sp, #20]
	bl	flash_enter_slc_mode
.L1198:
	ldr	r1, [sp, #20]
	b	.L1187
.L1186:
	ldr	r3, [r1]
	ldrb	r3, [r3, #12]	@ zero_extendqisi2
	cmp	r3, #3
	bne	.L1188
	add	r3, r7, r10
	str	r6, [r3, #2056]
.L1187:
	add	fp, r7, r10
	movs	r2, #0
	str	r2, [fp, #2056]
	str	r2, [fp, #2052]
	str	r2, [fp, #2052]
	uxtb	r2, r8
	str	r2, [fp, #2052]
	lsrs	r2, r4, #8
	str	r2, [fp, #2052]
	lsrs	r2, r4, #16
	str	r2, [fp, #2052]
	movs	r2, #48
	str	r2, [fp, #2056]
	ldr	r2, [r1]
	ldrb	r2, [r2, #12]	@ zero_extendqisi2
	cmp	r2, #3
	bne	.L1189
	cbz	r6, .L1189
	add	r4, r4, r4, lsl #1
	subs	r0, r4, #1
	add	r0, r0, r6
.L1199:
	bl	nandc_set_seed
	add	r7, r7, r10
	bl	nandc_wait_flash_ready
	movs	r1, #0
	movs	r2, #5
	movs	r3, #224
	str	r2, [r7, #2056]
	str	r1, [fp, #2052]
	mov	r0, r5
	str	r1, [fp, #2052]
	str	r3, [r7, #2056]
	ldr	r3, [sp, #16]
	ldrb	r2, [sp, #56]	@ zero_extendqisi2
	str	r3, [sp]
	ldr	r3, [sp, #12]
	bl	nandc_xfer
	mov	r4, r0
	cbnz	r6, .L1191
	mov	r0, r5
	bl	flash_exit_slc_mode
.L1191:
	movs	r0, #0
	bl	nandc_de_cs
	mov	r0, r4
	add	sp, sp, #24
	@ sp needed
	pop	{r4, r5, r6, r7, r8, r10, fp, pc}
.L1188:
	mov	r0, r5
	str	r1, [sp, #20]
	bl	flash_exit_slc_mode
	b	.L1198
.L1189:
	mov	r0, r4
	b	.L1199
.L1201:
	.align	2
.L1200:
	.word	.LANCHOR6
	.word	.LANCHOR22
	.word	.LC41
	.word	.LANCHOR34
	.size	flash_read_page, .-flash_read_page
	.section	.text.micron_read_retrial,"ax",%progbits
	.align	1
	.global	micron_read_retrial
	.syntax unified
	.thumb
	.thumb_func
	.fpu softvfp
	.type	micron_read_retrial, %function
micron_read_retrial:
	@ args = 8, pretend = 0, frame = 8
	@ frame_needed = 0, uses_anonymous_args = 0
	push	{r0, r1, r2, r3, r4, r5, r6, r7, r8, r10, fp, lr}
	mov	r8, r0
	str	r3, [sp, #12]
	mov	r7, r2
	movs	r5, #0
	mov	r4, #-1
	ldr	r3, .L1215
	ldrb	r3, [r3]	@ zero_extendqisi2
	add	r3, r3, r3, lsl #1
	asr	r10, r3, #2
	bl	nandc_wait_flash_ready
	ldr	r3, .L1215+4
	ldr	r3, [r3]
	str	r3, [sp, #8]
.L1203:
	ldr	r3, .L1215+8
	ldrb	r3, [r3]	@ zero_extendqisi2
	cmp	r5, r3
	bcc	.L1207
.L1206:
	ldr	r3, [sp, #8]
	movs	r0, #200
	add	r8, r3, r8, lsl #8
	movs	r3, #239
	str	r3, [r8, #2056]
	movs	r3, #137
	str	r3, [r8, #2052]
	bl	timer_delay_ns
	cmp	r4, r10
	mov	r3, #0
	str	r3, [r8, #2048]
	str	r3, [r8, #2048]
	str	r3, [r8, #2048]
	str	r3, [r8, #2048]
	bcc	.L1202
	adds	r3, r4, #1
	mov	r2, r7
	it	ne
	movne	r4, #256
	mov	r3, r5
	str	r4, [sp]
	mov	r1, r5
	ldr	r0, .L1215+12
	bl	printf
.L1202:
	mov	r0, r4
	add	sp, sp, #16
	@ sp needed
	pop	{r4, r5, r6, r7, r8, r10, fp, pc}
.L1207:
	ldr	r3, [sp, #8]
	movs	r0, #200
	add	fp, r5, #1
	add	r1, r3, r8, lsl #8
	movs	r3, #239
	str	r3, [r1, #2056]
	movs	r3, #137
	str	r3, [r1, #2052]
	bl	timer_delay_ns
	movs	r3, #0
	str	fp, [r1, #2048]
	str	r3, [r1, #2048]
	mov	r0, r8
	str	r3, [r1, #2048]
	str	r3, [r1, #2048]
	mov	r1, r7
	ldr	r3, [sp, #52]
	ldr	r2, [sp, #12]
	str	r3, [sp]
	ldr	r3, [sp, #48]
	bl	flash_read_page
	mov	r2, r7
	mov	r6, r0
	str	r4, [sp]
	mov	r3, r5
	mov	r1, r5
	ldr	r0, .L1215+16
	bl	printf
	adds	r2, r6, #1
	beq	.L1204
	ldr	r3, .L1215+20
	cmp	r4, #-1
	it	eq
	moveq	r4, r6
	cmp	r6, r10
	ldr	r3, [r3]
	str	r3, [sp, #12]
	ldr	r3, .L1215+24
	ldr	r3, [r3]
	str	r3, [sp, #48]
	bcc	.L1210
.L1204:
	mov	r5, fp
	b	.L1203
.L1210:
	mov	r4, r6
	b	.L1206
.L1216:
	.align	2
.L1215:
	.word	.LANCHOR27
	.word	.LANCHOR6
	.word	.LANCHOR113
	.word	.LC43
	.word	.LC42
	.word	.LANCHOR111
	.word	.LANCHOR112
	.size	micron_read_retrial, .-micron_read_retrial
	.section	.text.toshiba_3d_read_retrial,"ax",%progbits
	.align	1
	.global	toshiba_3d_read_retrial
	.syntax unified
	.thumb
	.thumb_func
	.fpu softvfp
	.type	toshiba_3d_read_retrial, %function
toshiba_3d_read_retrial:
	@ args = 8, pretend = 0, frame = 16
	@ frame_needed = 0, uses_anonymous_args = 0
	push	{r4, r5, r6, r7, r8, r10, fp, lr}
	sub	sp, sp, #24
	mov	r10, r0
	mov	r8, r2
	mov	r4, r1
	add	r7, r10, #8
	str	r3, [sp, #12]
	bl	nandc_wait_flash_ready
	ldr	r3, .L1252
	ldr	r6, [r3]
	ldr	r3, .L1252+4
	ldrb	r2, [r3]	@ zero_extendqisi2
	add	r7, r6, r7, lsl #8
	cmp	r2, #36
	ite	ne
	movne	r2, #56
	moveq	r2, #46
	str	r2, [sp, #20]
	ite	ne
	movne	r2, #10
	moveq	r2, #26
	str	r2, [sp, #16]
	cmp	r4, #0
	bne	.L1219
	mov	r4, #-1
	movs	r5, #1
	str	r3, [sp, #20]
.L1225:
	ldr	r3, [sp, #20]
	ldrb	r3, [r3]	@ zero_extendqisi2
	cmp	r3, #36
	bne	.L1220
	movs	r2, #0
	mov	r1, r5
	mov	r0, r7
	bl	toshiba_tlc_set_rr_para
	add	r3, r6, r10, lsl #8
	movs	r2, #93
	str	r2, [r3, #2056]
.L1221:
	ldr	r3, [sp, #60]
	mov	r1, r8
	ldr	r2, [sp, #12]
	mov	r0, r10
	str	r3, [sp]
	ldr	r3, [sp, #56]
	bl	flash_read_page
	mov	r2, r8
	mov	fp, r0
	mov	r3, r0
	mov	r1, r5
	ldr	r0, .L1252+8
	bl	printf
	cmp	fp, #-1
	beq	.L1222
	ldr	r3, .L1252+12
	cmp	r4, #-1
	it	eq
	moveq	r4, fp
	ldr	r3, [r3]
	str	r3, [sp, #12]
	ldr	r3, .L1252+16
	ldr	r3, [r3]
	str	r3, [sp, #56]
	ldr	r3, .L1252+20
	ldrb	r3, [r3]	@ zero_extendqisi2
	add	r3, r3, r3, lsl #1
	cmp	fp, r3, asr #2
	bcc	.L1238
.L1222:
	ldr	r3, [sp, #16]
	adds	r5, r5, #1
	cmp	r3, r5
	bne	.L1225
.L1224:
	ldr	r3, .L1252+4
	ldrb	r3, [r3]	@ zero_extendqisi2
	cmp	r3, #36
	bne	.L1226
	movs	r2, #0
.L1251:
	movs	r1, #0
	mov	r0, r7
	bl	toshiba_tlc_set_rr_para
	b	.L1227
.L1220:
	uxtb	r1, r5
	mov	r0, r7
	bl	toshiba_3d_set_slc_rr_para
	b	.L1221
.L1238:
	mov	r4, fp
	b	.L1224
.L1226:
	movs	r1, #0
	mov	r0, r7
	bl	toshiba_3d_set_slc_rr_para
.L1227:
	ldr	r3, .L1252+4
	ldrb	r3, [r3]	@ zero_extendqisi2
	cmp	r3, #36
	bne	.L1235
	add	r6, r6, r10, lsl #8
	movs	r3, #85
	str	r3, [r6, #2056]
	movs	r3, #0
	str	r3, [r6, #2052]
	str	r3, [r6, #2048]
	movs	r3, #255
	str	r3, [r6, #2056]
.L1235:
	mov	r3, r5
	str	r4, [sp]
	mov	r2, r8
	mov	r1, r5
	ldr	r0, .L1252+24
	bl	printf
	ldr	r3, .L1252+20
	ldrb	r3, [r3]	@ zero_extendqisi2
	add	r3, r3, r3, lsl #1
	cmp	r4, r3, asr #2
	bcc	.L1236
	adds	r3, r4, #1
	it	ne
	movne	r4, #256
.L1236:
	bl	nandc_wait_flash_ready
	mov	r0, r4
	add	sp, sp, #24
	@ sp needed
	pop	{r4, r5, r6, r7, r8, r10, fp, pc}
.L1219:
	orr	r8, r8, r4, lsl #24
	movs	r5, #1
	mov	r4, #-1
	str	r3, [sp, #16]
.L1233:
	ldr	r3, [sp, #16]
	ldrb	r3, [r3]	@ zero_extendqisi2
	cmp	r3, #36
	bne	.L1228
	movs	r2, #1
	mov	r1, r5
	mov	r0, r7
	bl	toshiba_tlc_set_rr_para
	add	r3, r6, r10, lsl #8
	movs	r2, #93
.L1250:
	str	r2, [r3, #2056]
	mov	r1, r8
	ldr	r3, [sp, #60]
	mov	r0, r10
	ldr	r2, [sp, #12]
	str	r3, [sp]
	ldr	r3, [sp, #56]
	bl	flash_read_page
	mov	r2, r8
	mov	fp, r0
	mov	r3, r0
	mov	r1, r5
	ldr	r0, .L1252+28
	bl	printf
	cmp	fp, #-1
	beq	.L1230
	ldr	r3, .L1252+12
	cmp	r4, #-1
	it	eq
	moveq	r4, fp
	ldr	r3, [r3]
	str	r3, [sp, #12]
	ldr	r3, .L1252+16
	ldr	r3, [r3]
	str	r3, [sp, #56]
	ldr	r3, .L1252+20
	ldrb	r3, [r3]	@ zero_extendqisi2
	add	r3, r3, r3, lsl #1
	cmp	fp, r3, asr #2
	bcc	.L1239
.L1230:
	ldr	r3, [sp, #20]
	adds	r5, r5, #1
	cmp	r3, r5
	bne	.L1233
.L1232:
	ldr	r3, .L1252+4
	ldrb	r3, [r3]	@ zero_extendqisi2
	cmp	r3, #36
	bne	.L1234
	movs	r2, #1
	b	.L1251
.L1228:
	uxtb	r1, r5
	mov	r0, r7
	bl	toshiba_3d_set_tlc_rr_para
	add	r3, r6, r10, lsl #8
	movs	r2, #38
	b	.L1250
.L1239:
	mov	r4, fp
	b	.L1232
.L1234:
	movs	r1, #0
	mov	r0, r7
	bl	toshiba_3d_set_tlc_rr_para
	b	.L1227
.L1253:
	.align	2
.L1252:
	.word	.LANCHOR6
	.word	.LANCHOR1
	.word	.LC44
	.word	.LANCHOR111
	.word	.LANCHOR112
	.word	.LANCHOR27
	.word	.LC46
	.word	.LC45
	.size	toshiba_3d_read_retrial, .-toshiba_3d_read_retrial
	.section	.text.toshiba_read_retrial,"ax",%progbits
	.align	1
	.global	toshiba_read_retrial
	.syntax unified
	.thumb
	.thumb_func
	.fpu softvfp
	.type	toshiba_read_retrial, %function
toshiba_read_retrial:
	@ args = 8, pretend = 0, frame = 16
	@ frame_needed = 0, uses_anonymous_args = 0
	push	{r4, r5, r6, r7, r8, r10, fp, lr}
	sub	sp, sp, #24
	mov	r7, r0
	str	r2, [sp, #12]
	add	r10, r7, #8
	str	r3, [sp, #16]
	bl	nandc_wait_flash_ready
	ldr	r3, .L1281
	ldr	r2, .L1281+4
	ldr	r6, [r3]
	ldrb	r3, [r2]	@ zero_extendqisi2
	str	r2, [sp, #20]
	subs	r3, r3, #67
	add	r10, r6, r10, lsl #8
	cmp	r3, #1
	bls	.L1272
	ldr	r3, .L1281+8
	ldrb	r5, [r3]	@ zero_extendqisi2
	cbz	r5, .L1256
	movs	r5, #1
	movs	r0, #1
	bl	nandc_set_if_mode
.L1256:
	add	r3, r6, r7, lsl #8
	movs	r2, #92
	str	r2, [r3, #2056]
	movs	r2, #197
	str	r2, [r3, #2056]
.L1255:
	mov	r8, #1
	mov	fp, #-1
.L1257:
	ldr	r3, .L1281+12
	ldrb	r3, [r3]	@ zero_extendqisi2
	adds	r3, r3, #1
	cmp	r8, r3
	bcc	.L1266
	mov	r4, fp
.L1265:
	ldr	r3, .L1281+4
	movs	r1, #0
	mov	r0, r10
	ldrb	r3, [r3]	@ zero_extendqisi2
	subs	r3, r3, #67
	cmp	r3, #1
	bhi	.L1267
	bl	sandisk_set_rr_para
.L1268:
	add	r6, r6, r7, lsl #8
	movs	r3, #255
	str	r3, [r6, #2056]
	ldr	r3, .L1281+16
	ldrb	r3, [r3]	@ zero_extendqisi2
	add	r3, r3, r3, lsl #1
	cmp	r4, r3, asr #2
	bcc	.L1269
	adds	r3, r4, #1
	ldr	r2, [sp, #12]
	it	ne
	movne	r4, #256
	mov	r3, r8
	str	r4, [sp]
	mov	r1, r8
	ldr	r0, .L1281+20
	bl	printf
.L1269:
	bl	nandc_wait_flash_ready
	cbz	r5, .L1254
	movs	r0, #4
	bl	nandc_set_if_mode
.L1254:
	mov	r0, r4
	add	sp, sp, #24
	@ sp needed
	pop	{r4, r5, r6, r7, r8, r10, fp, pc}
.L1272:
	movs	r5, #0
	b	.L1255
.L1266:
	ldr	r3, [sp, #20]
	mov	r0, r10
	uxtb	r1, r8
	ldrb	r3, [r3]	@ zero_extendqisi2
	subs	r3, r3, #67
	cmp	r3, #1
	bhi	.L1258
	bl	sandisk_set_rr_para
.L1259:
	ldr	r3, .L1281+4
	ldrb	r3, [r3]	@ zero_extendqisi2
	cmp	r3, #34
	bne	.L1260
	ldr	r3, .L1281+12
	ldrb	r3, [r3]	@ zero_extendqisi2
	subs	r3, r3, #3
	cmp	r8, r3
	ittt	eq
	addeq	r3, r6, r7, lsl #8
	moveq	r2, #179
	streq	r2, [r3, #2056]
.L1260:
	add	r3, r6, r7, lsl #8
	movs	r2, #38
	ldr	r1, [sp, #12]
	mov	r0, r7
	str	r2, [r3, #2056]
	movs	r2, #93
	str	r2, [r3, #2056]
	ldr	r3, [sp, #60]
	ldr	r2, [sp, #16]
	str	r3, [sp]
	ldr	r3, [sp, #56]
	bl	flash_read_page
	adds	r2, r0, #1
	mov	r4, r0
	beq	.L1263
	ldr	r3, .L1281+24
	cmp	fp, #-1
	it	eq
	moveq	fp, r0
	ldr	r3, [r3]
	str	r3, [sp, #16]
	ldr	r3, .L1281+28
	ldr	r3, [r3]
	str	r3, [sp, #56]
	ldr	r3, .L1281+16
	ldrb	r3, [r3]	@ zero_extendqisi2
	add	r3, r3, r3, lsl #1
	cmp	r0, r3, asr #2
	bcc	.L1265
.L1263:
	add	r8, r8, #1
	b	.L1257
.L1258:
	bl	toshiba_set_rr_para
	b	.L1259
.L1267:
	bl	toshiba_set_rr_para
	b	.L1268
.L1282:
	.align	2
.L1281:
	.word	.LANCHOR6
	.word	.LANCHOR1
	.word	.LANCHOR35
	.word	.LANCHOR113
	.word	.LANCHOR27
	.word	.LC46
	.word	.LANCHOR111
	.word	.LANCHOR112
	.size	toshiba_read_retrial, .-toshiba_read_retrial
	.section	.text.hynix_read_retrial,"ax",%progbits
	.align	1
	.global	hynix_read_retrial
	.syntax unified
	.thumb
	.thumb_func
	.fpu softvfp
	.type	hynix_read_retrial, %function
hynix_read_retrial:
	@ args = 8, pretend = 0, frame = 8
	@ frame_needed = 0, uses_anonymous_args = 0
	push	{r0, r1, r2, r3, r4, r5, r6, r7, r8, r10, fp, lr}
	movs	r6, #0
	str	r3, [sp, #12]
	mov	r4, #-1
	mov	r7, r0
	mov	r8, r2
	ldr	r3, .L1297
	ldr	r3, [r3]
	add	fp, r3, r0
	ldrb	r10, [r3, #114]	@ zero_extendqisi2
	ldrb	r5, [fp, #120]	@ zero_extendqisi2
	bl	nandc_wait_flash_ready
.L1284:
	cmp	r6, r10
	bcc	.L1289
.L1288:
	ldr	r3, .L1297+4
	strb	r5, [fp, #120]
	ldrb	r3, [r3]	@ zero_extendqisi2
	add	r3, r3, r3, lsl #1
	cmp	r4, r3, asr #2
	bcc	.L1283
	adds	r3, r4, #1
	mov	r2, r8
	it	ne
	movne	r4, #256
	mov	r3, r6
	str	r4, [sp]
	mov	r1, r6
	ldr	r0, .L1297+8
	bl	printf
.L1283:
	mov	r0, r4
	add	sp, sp, #16
	@ sp needed
	pop	{r4, r5, r6, r7, r8, r10, fp, pc}
.L1289:
	adds	r5, r5, #1
	mov	r0, r7
	uxtb	r5, r5
	cmp	r10, r5
	it	ls
	movls	r5, #0
	mov	r1, r5
	bl	hynix_set_rr_para
	ldr	r3, [sp, #52]
	mov	r1, r8
	ldr	r2, [sp, #12]
	mov	r0, r7
	str	r3, [sp]
	ldr	r3, [sp, #48]
	bl	flash_read_page
	adds	r2, r0, #1
	beq	.L1286
	ldr	r3, .L1297+12
	cmp	r4, #-1
	it	eq
	moveq	r4, r0
	ldr	r3, [r3]
	str	r3, [sp, #12]
	ldr	r3, .L1297+16
	ldr	r3, [r3]
	str	r3, [sp, #48]
	ldr	r3, .L1297+4
	ldrb	r3, [r3]	@ zero_extendqisi2
	add	r3, r3, r3, lsl #1
	cmp	r0, r3, asr #2
	bcc	.L1292
.L1286:
	adds	r6, r6, #1
	b	.L1284
.L1292:
	mov	r4, r0
	b	.L1288
.L1298:
	.align	2
.L1297:
	.word	.LANCHOR5
	.word	.LANCHOR27
	.word	.LC47
	.word	.LANCHOR111
	.word	.LANCHOR112
	.size	hynix_read_retrial, .-hynix_read_retrial
	.section	.text.flash_ddr_tunning_read,"ax",%progbits
	.align	1
	.global	flash_ddr_tunning_read
	.syntax unified
	.thumb
	.thumb_func
	.fpu softvfp
	.type	flash_ddr_tunning_read, %function
flash_ddr_tunning_read:
	@ args = 4, pretend = 0, frame = 24
	@ frame_needed = 0, uses_anonymous_args = 0
	push	{r4, r5, r6, r7, r8, r10, fp, lr}
	mov	r8, #0
	mov	r5, r8
	mov	r4, r8
	mov	r7, #1024
	movs	r6, #6
	mov	fp, #-1
	sub	sp, sp, #32
	str	r0, [sp, #16]
	str	r1, [sp, #12]
	str	r2, [sp, #20]
	str	r3, [sp, #24]
	bl	nandc_get_ddr_para
	str	r8, [sp, #8]
	str	r0, [sp, #28]
.L1304:
	uxtb	r0, r6
	bl	nandc_set_ddr_para
	ldr	r3, [sp, #64]
	ldr	r2, [sp, #20]
	ldr	r1, [sp, #12]
	str	r3, [sp]
	ldr	r0, [sp, #16]
	ldr	r3, [sp, #24]
	bl	flash_read_page
	ldr	r2, [sp, #12]
	mov	r3, r0
	mov	r10, r0
	mov	r1, r6
	ldr	r0, .L1316
	bl	printf
	adds	r3, r7, #1
	cmp	r10, r3
	bhi	.L1300
	ldr	r3, .L1316+4
	cmp	r10, #2
	ldr	r3, [r3]
	str	r3, [sp, #20]
	ldr	r3, .L1316+8
	ldr	r3, [r3]
	str	r3, [sp, #24]
	bhi	.L1309
	adds	r4, r4, #1
	cmp	r4, #7
	bls	.L1309
	mov	r3, r5
	mov	r7, r10
	subs	r5, r6, r4
	mov	fp, #0
.L1302:
	ldr	r2, [sp, #8]
	cmp	r4, r2
	it	ls
	movls	r5, r3
.L1303:
	cbz	r5, .L1305
	ldr	r3, .L1316+12
	ldrb	r2, [r3]	@ zero_extendqisi2
	ldr	r3, .L1316+16
	umull	r2, r3, r2, r3
	ubfx	r3, r3, #1, #8
	cmp	r3, r7
	bls	.L1305
	mov	r1, r5
	ldr	r0, .L1316+20
	bl	printf
	uxtb	r0, r5
.L1315:
	bl	nandc_set_ddr_para
	cmp	fp, #0
	beq	.L1299
	mov	r7, fp
	ldr	r2, [sp, #12]
	ldr	r1, [sp, #16]
	ldr	r0, .L1316+24
	bl	printf
.L1299:
	mov	r0, r7
	add	sp, sp, #32
	@ sp needed
	pop	{r4, r5, r6, r7, r8, r10, fp, pc}
.L1300:
	ldr	r3, [sp, #8]
	cmp	r4, r3
	bls	.L1310
	cmp	r4, #7
	sub	r5, r8, r4
	bhi	.L1303
	str	r4, [sp, #8]
.L1310:
	movs	r4, #0
	b	.L1301
.L1309:
	mov	r8, r6
	mov	r7, r10
	mov	fp, #0
.L1301:
	adds	r6, r6, #2
	cmp	r6, #50
	bne	.L1304
	mov	r3, r5
	mov	r5, r8
	b	.L1302
.L1305:
	ldrb	r0, [sp, #28]	@ zero_extendqisi2
	b	.L1315
.L1317:
	.align	2
.L1316:
	.word	.LC48
	.word	.LANCHOR111
	.word	.LANCHOR112
	.word	.LANCHOR27
	.word	-1431655765
	.word	.LC49
	.word	.LC50
	.size	flash_ddr_tunning_read, .-flash_ddr_tunning_read
	.section	.text.flash_read_page_en,"ax",%progbits
	.align	1
	.global	flash_read_page_en
	.syntax unified
	.thumb
	.thumb_func
	.fpu softvfp
	.type	flash_read_page_en, %function
flash_read_page_en:
	@ args = 4, pretend = 0, frame = 8
	@ frame_needed = 0, uses_anonymous_args = 0
	push	{r0, r1, r2, r3, r4, r5, r6, r7, r8, r10, fp, lr}
	mov	r8, r3
	ldr	r3, .L1347
	mov	r4, r1
	mov	r7, r2
	ldr	r10, [sp, #48]
	ldrb	r3, [r3]	@ zero_extendqisi2
	cmp	r3, r0
	bhi	.L1319
	mov	r2, #386
	ldr	r1, .L1347+4
	ldr	r0, .L1347+8
	bl	printf
.L1320:
	b	.L1320
.L1319:
	ldr	r3, .L1347+12
	ldrb	r5, [r3, r0]	@ zero_extendqisi2
	ldr	r3, .L1347+16
	ldr	r3, [r3]
	lsls	r0, r3, #27
	bpl	.L1321
	mov	r2, r1
	ldr	r0, .L1347+20
	mov	r1, r5
	bl	printf
.L1321:
	tst	r4, #50331648
	bne	.L1322
	ldr	r3, .L1347+24
	ldrb	r2, [r3]	@ zero_extendqisi2
	ldr	r3, .L1347+28
	cbz	r2, .L1323
	ldrb	r2, [r3]	@ zero_extendqisi2
	cbz	r2, .L1322
.L1323:
	ldr	r2, .L1347+32
	mov	r0, r4
	str	r3, [sp, #12]
	ldrh	r6, [r2]
	mov	r1, r6
	bl	__aeabi_uidiv
	mov	r1, r6
	mul	fp, r6, r0
	mov	r0, r4
	bl	__aeabi_uidivmod
	ldr	r3, [sp, #12]
	ldrb	r3, [r3]	@ zero_extendqisi2
	cbz	r3, .L1324
	add	r4, fp, r1, lsl #1
.L1322:
	mov	r1, r4
	str	r10, [sp]
	mov	r3, r8
	mov	r2, r7
	mov	r0, r5
	bl	flash_read_page
	adds	r1, r0, #1
	mov	r6, r0
	bne	.L1318
	ldr	fp, .L1347+40
	ldrb	r3, [fp]	@ zero_extendqisi2
	str	r3, [sp, #12]
	cbnz	r3, .L1326
.L1329:
	ldr	r3, .L1347+36
	ldr	fp, [r3]
	cmp	fp, #0
	bne	.L1327
.L1328:
	ldr	r3, .L1347+40
	mov	r2, r4
	movs	r1, #0
	ldr	r0, .L1347+44
	ldrb	r3, [r3]	@ zero_extendqisi2
	str	r3, [sp]
	mov	r3, #-1
	bl	printf
	ldr	r3, .L1347+48
	ldrb	r3, [r3]	@ zero_extendqisi2
	cbz	r3, .L1318
	str	r10, [sp, #48]
	mov	r3, r8
	mov	r2, r7
	mov	r1, r4
	mov	r0, r5
	add	sp, sp, #16
	@ sp needed
	pop	{r4, r5, r6, r7, r8, r10, fp, lr}
	b	flash_ddr_tunning_read
.L1324:
	ldr	r3, .L1347+52
	ldrh	r4, [r3, r1, lsl #1]
	add	r4, r4, fp
	b	.L1322
.L1326:
	movs	r3, #0
	mov	r2, r7
	strb	r3, [fp]
	mov	r1, r4
	mov	r3, r8
	str	r10, [sp]
	mov	r0, r5
	bl	flash_read_page
	ldrb	r3, [sp, #12]	@ zero_extendqisi2
	adds	r2, r0, #1
	strb	r3, [fp]
	beq	.L1329
.L1346:
	mov	r6, r0
.L1318:
	mov	r0, r6
	add	sp, sp, #16
	@ sp needed
	pop	{r4, r5, r6, r7, r8, r10, fp, pc}
.L1327:
	mov	r3, r7
	stm	sp, {r8, r10}
	mov	r2, r4
	movs	r1, #0
	mov	r0, r5
	blx	fp
	adds	r3, r0, #1
	bne	.L1346
	b	.L1328
.L1348:
	.align	2
.L1347:
	.word	.LANCHOR8
	.word	.LANCHOR114
	.word	.LC0
	.word	.LANCHOR10
	.word	.LANCHOR22
	.word	.LC51
	.word	.LANCHOR11
	.word	.LANCHOR12
	.word	.LANCHOR13
	.word	.LANCHOR115
	.word	.LANCHOR29
	.word	.LC52
	.word	.LANCHOR35
	.word	.LANCHOR14
	.size	flash_read_page_en, .-flash_read_page_en
	.section	.text.flash_get_last_written_page,"ax",%progbits
	.align	1
	.global	flash_get_last_written_page
	.syntax unified
	.thumb
	.thumb_func
	.fpu softvfp
	.type	flash_get_last_written_page, %function
flash_get_last_written_page:
	@ args = 4, pretend = 0, frame = 0
	@ frame_needed = 0, uses_anonymous_args = 0
	push	{r0, r1, r4, r5, r6, r7, r8, r10, fp, lr}
	mov	r8, r0
	ldr	r4, .L1355
	mov	r10, r2
	mov	fp, r3
	ldrh	r5, [r4]
	ldr	r4, .L1355+4
	subs	r5, r5, #1
	ldrh	r6, [r4, #26]
	sxth	r5, r5
	muls	r6, r1, r6
	ldr	r1, [sp, #40]
	str	r1, [sp]
	adds	r1, r5, r6
	bl	flash_read_page_en
	cmp	r0, #512
	bne	.L1350
	movs	r7, #0
.L1351:
	cmp	r7, r5
	ble	.L1354
.L1350:
	mov	r0, r5
	add	sp, sp, #8
	@ sp needed
	pop	{r4, r5, r6, r7, r8, r10, fp, pc}
.L1354:
	adds	r4, r7, r5
	ldr	r3, [sp, #40]
	add	r4, r4, r4, lsr #31
	mov	r2, r10
	mov	r0, r8
	asrs	r4, r4, #1
	str	r3, [sp]
	mov	r3, fp
	sxtah	r1, r6, r4
	bl	flash_read_page_en
	cmp	r0, #512
	itete	eq
	addeq	r4, r4, #-1
	addne	r4, r4, #1
	sxtheq	r5, r4
	sxthne	r7, r4
	b	.L1351
.L1356:
	.align	2
.L1355:
	.word	.LANCHOR97
	.word	.LANCHOR19
	.size	flash_get_last_written_page, .-flash_get_last_written_page
	.section	.text.flash_get_last_written_page_ext,"ax",%progbits
	.align	1
	.global	flash_get_last_written_page_ext
	.syntax unified
	.thumb
	.thumb_func
	.fpu softvfp
	.type	flash_get_last_written_page_ext, %function
flash_get_last_written_page_ext:
	@ args = 0, pretend = 0, frame = 0
	@ frame_needed = 0, uses_anonymous_args = 0
	push	{r0, r1, r2, r4, r5, lr}
	movs	r5, #1
	ldr	r4, .L1358
	ldrh	r4, [r4]
	str	r3, [sp]
	mov	r3, r2
	mov	r2, r1
	rsb	r4, r4, #21
	lsls	r5, r5, r4
	asr	r4, r0, r4
	subs	r5, r5, #1
	and	r1, r5, r0
	uxtb	r0, r4
	bl	flash_get_last_written_page
	add	sp, sp, #12
	@ sp needed
	pop	{r4, r5, pc}
.L1359:
	.align	2
.L1358:
	.word	.LANCHOR71
	.size	flash_get_last_written_page_ext, .-flash_get_last_written_page_ext
	.section	.text.flash_info_blk_init,"ax",%progbits
	.align	1
	.global	flash_info_blk_init
	.syntax unified
	.thumb
	.thumb_func
	.fpu softvfp
	.type	flash_info_blk_init, %function
flash_info_blk_init:
	@ args = 0, pretend = 0, frame = 0
	@ frame_needed = 0, uses_anonymous_args = 0
	push	{r0, r1, r4, r5, r6, r7, r8, r10, fp, lr}
	movs	r4, #4
	ldr	r10, .L1384+12
.L1363:
	movs	r5, #4
	movs	r0, #0
	ldr	r8, .L1384+16
	ldr	fp, .L1384+20
	ldr	r6, .L1384
	ldrh	r1, [r8]
	str	r5, [sp]
	mov	r7, fp
	ldr	r3, [r6]
	ldr	r2, [fp]
	muls	r1, r4, r1
	bl	flash_read_page_en
	adds	r0, r0, #1
	beq	.L1361
	ldr	r2, [fp]
	ldr	r3, [r2]
	cmp	r3, r10
	beq	.L1362
.L1361:
	adds	r4, r4, #1
	cmp	r4, #16
	bne	.L1363
.L1383:
	mov	r0, #-1
.L1360:
	add	sp, sp, #8
	@ sp needed
	pop	{r4, r5, r6, r7, r8, r10, fp, pc}
.L1371:
	ldr	r3, [r7]
	ldr	r2, [r3]
	cmp	r2, r10
	bne	.L1372
	ldr	r4, [r3, #4]
.L1365:
	ldrb	r1, [r5, #1]	@ zero_extendqisi2
	movs	r3, #4
	ldrh	r0, [r8]
	str	r3, [sp]
	ldr	r2, [r7]
	ldr	r3, [r6]
	muls	r1, r0, r1
	movs	r0, #0
	bl	flash_read_page_en
	adds	r0, r0, #1
	beq	.L1366
	ldr	r3, [r7]
	ldr	r2, [r3]
	cmp	r2, r10
	bne	.L1366
	ldr	r2, [r3, #4]
	cmp	r4, r2
	itttt	cc
	ldrbcc	r2, [r3, #37]	@ zero_extendqisi2
	ldrbcc	r3, [r3, #36]	@ zero_extendqisi2
	strbcc	r2, [r5]
	strbcc	r3, [r5, #1]
.L1366:
	mov	fp, #4
	ldrb	r1, [r5]	@ zero_extendqisi2
	str	fp, [sp]
	movs	r0, #0
	ldr	r3, [r6]
	ldr	r2, [r7]
	bl	flash_get_last_written_page
	adds	r3, r0, #1
	mov	r4, r0
	strh	r3, [r5, #2]	@ movhi
	ldrb	r5, [r5]	@ zero_extendqisi2
	ldrh	r3, [r8]
	mla	r5, r3, r5, r0
.L1367:
	cmp	r4, #0
	bge	.L1369
	adds	r4, r4, #1
	bne	.L1370
	ldr	r3, [r7]
	ldr	r0, .L1384+4
	ldr	r1, [r3]
	bl	printf
	b	.L1383
.L1369:
	str	fp, [sp]
	mov	r1, r5
	ldr	r3, [r6]
	movs	r0, #0
	ldr	r2, [r7]
	bl	flash_read_page_en
	adds	r0, r0, #1
	beq	.L1368
	ldr	r3, [r7]
	ldr	r3, [r3]
	cmp	r3, r10
	bne	.L1368
.L1370:
	movs	r0, #0
	b	.L1360
.L1368:
	subs	r4, r4, #1
	subs	r5, r5, #1
	sxth	r4, r4
	b	.L1367
.L1362:
	ldrb	r1, [r2, #36]	@ zero_extendqisi2
	ldrh	r0, [r8]
	ldrb	r3, [r2, #37]	@ zero_extendqisi2
	ldr	r4, .L1384+8
	strb	r1, [r4]
	muls	r1, r0, r1
	strb	r3, [r4, #1]
	movs	r0, #0
	str	r5, [sp]
	mov	r5, r4
	ldr	r3, [r6]
	bl	flash_read_page_en
	adds	r0, r0, #1
	bne	.L1371
.L1372:
	movs	r4, #0
	b	.L1365
.L1385:
	.align	2
.L1384:
	.word	.LANCHOR116
	.word	.LC53
	.word	.LANCHOR117
	.word	1398362953
	.word	.LANCHOR13
	.word	.LANCHOR5
	.size	flash_info_blk_init, .-flash_info_blk_init
	.section	.text.flash_ddr_para_scan,"ax",%progbits
	.align	1
	.global	flash_ddr_para_scan
	.syntax unified
	.thumb
	.thumb_func
	.fpu softvfp
	.type	flash_ddr_para_scan, %function
flash_ddr_para_scan:
	@ args = 0, pretend = 0, frame = 0
	@ frame_needed = 0, uses_anonymous_args = 0
	push	{r0, r1, r4, r5, r6, r7, r8, r10, fp, lr}
	mov	r7, r0
	ldr	r6, .L1392
	movs	r5, #1
	mov	r8, r1
	ldr	r4, .L1392+4
	ldr	fp, .L1392+8
	ldr	r10, .L1392+12
	ldrb	r0, [r6]	@ zero_extendqisi2
	strb	r5, [r4]
	bl	flash_set_interface_mode
	ldrb	r0, [r6]	@ zero_extendqisi2
	bl	nandc_set_if_mode
	movs	r3, #4
	ldr	r2, [r10]
	str	r3, [sp]
	mov	r1, r8
	ldr	r3, [fp]
	mov	r0, r7
	bl	flash_ddr_tunning_read
	movs	r3, #4
	ldr	r2, [r10]
	str	r3, [sp]
	mov	r1, r8
	ldr	r3, [fp]
	mov	r0, r7
	bl	flash_read_page
	adds	r0, r0, #1
	mov	r3, r4
	bne	.L1387
	ldrb	r2, [r6]	@ zero_extendqisi2
	lsls	r2, r2, #31
	bpl	.L1387
	mov	r0, r5
	bl	flash_set_interface_mode
	mov	r0, r5
	bl	nandc_set_if_mode
	movs	r3, #0
	strb	r3, [r4]
.L1388:
	movs	r0, #0
	add	sp, sp, #8
	@ sp needed
	pop	{r4, r5, r6, r7, r8, r10, fp, pc}
.L1387:
	movs	r2, #1
	strb	r2, [r3]
	b	.L1388
.L1393:
	.align	2
.L1392:
	.word	.LANCHOR25
	.word	.LANCHOR35
	.word	.LANCHOR118
	.word	.LANCHOR119
	.size	flash_ddr_para_scan, .-flash_ddr_para_scan
	.section	.text.flash_complete_page_read,"ax",%progbits
	.align	1
	.global	flash_complete_page_read
	.syntax unified
	.thumb
	.thumb_func
	.fpu softvfp
	.type	flash_complete_page_read, %function
flash_complete_page_read:
	@ args = 0, pretend = 0, frame = 16
	@ frame_needed = 0, uses_anonymous_args = 0
	push	{r4, r5, r6, r7, r8, r10, fp, lr}
	mov	r7, r2
	ldr	r2, .L1419
	ubfx	r3, r0, #21, #3
	sub	sp, sp, #24
	str	r0, [sp, #12]
	ldrb	r2, [r2]	@ zero_extendqisi2
	str	r1, [sp, #16]
	cmp	r2, r3
	bhi	.L1395
	movw	r2, #791
	ldr	r1, .L1419+4
	ldr	r0, .L1419+8
	bl	printf
.L1396:
	b	.L1396
.L1395:
	ldr	r2, [sp, #12]
	ubfx	r4, r2, #0, #21
	ubfx	r2, r2, #24, #2
	str	r2, [sp, #8]
	ldr	r2, .L1419+12
	ldrb	r5, [r2, r3]	@ zero_extendqisi2
	ldr	r3, .L1419+16
	mov	r0, r5
	ldr	r6, [r3]
	bl	nandc_cs
	ldr	r3, [sp, #8]
	cbnz	r3, .L1397
	ldr	r3, .L1419+20
	ldr	fp, .L1419+52
	ldrb	r3, [r3]	@ zero_extendqisi2
	cbz	r3, .L1398
	ldrb	r3, [fp]	@ zero_extendqisi2
	cbz	r3, .L1397
.L1398:
	ldr	r3, .L1419+24
	mov	r0, r4
	ldrh	r8, [r3]
	mov	r1, r8
	bl	__aeabi_uidiv
	mov	r1, r8
	mul	r10, r8, r0
	mov	r0, r4
	bl	__aeabi_uidivmod
	ldrb	r3, [fp]	@ zero_extendqisi2
	cmp	r3, #0
	beq	.L1399
	add	r4, r10, r1, lsl #1
.L1397:
	add	r6, r6, r5, lsl #8
	movs	r3, #5
	mov	r8, #0
	ldr	fp, .L1419+44
	str	r3, [r6, #2056]
	uxtb	r3, r4
	str	r8, [r6, #2052]
	mov	r1, r8
	str	r8, [r6, #2052]
	mov	r0, r5
	str	r3, [r6, #2052]
	lsrs	r3, r4, #8
	ldrb	r2, [fp, #9]	@ zero_extendqisi2
	str	r3, [r6, #2052]
	lsrs	r3, r4, #16
	str	r3, [r6, #2052]
	movs	r3, #224
	str	r3, [r6, #2056]
	str	r7, [sp]
	ldr	r3, [sp, #16]
	bl	nandc_xfer
	adds	r1, r0, #1
	mov	r6, r0
	bne	.L1394
	ldr	r10, .L1419+32
	ldrb	r3, [r10]	@ zero_extendqisi2
	str	r3, [sp, #20]
	cbnz	r3, .L1401
.L1404:
	ldr	r3, .L1419+28
	ldr	r8, [r3]
	cmp	r8, #0
	bne	.L1402
.L1403:
	ldr	r3, .L1419+32
	movs	r1, #0
	ldr	r2, [sp, #12]
	ldr	r0, .L1419+36
	ldrb	r3, [r3]	@ zero_extendqisi2
	str	r3, [sp]
	mov	r3, #-1
	bl	printf
	ldr	r3, .L1419+40
	ldrb	r3, [r3]	@ zero_extendqisi2
	cbz	r3, .L1394
	ldr	r3, .L1419+44
	mov	r0, r5
	ldr	r1, [sp, #8]
	ldr	r2, [sp, #16]
	ldrb	r3, [r3, #9]	@ zero_extendqisi2
	orr	r1, r4, r1, lsl #24
	str	r3, [sp]
	mov	r3, r7
	bl	flash_ddr_tunning_read
	b	.L1418
.L1399:
	ldr	r3, .L1419+48
	ldrh	r4, [r3, r1, lsl #1]
	add	r4, r4, r10
	b	.L1397
.L1401:
	ldr	r1, [sp, #8]
	mov	r0, r5
	ldrb	r3, [fp, #9]	@ zero_extendqisi2
	strb	r8, [r10]
	ldr	r2, [sp, #16]
	str	r3, [sp]
	orr	r1, r4, r1, lsl #24
	mov	r3, r7
	bl	flash_read_page
	ldrb	r3, [sp, #20]	@ zero_extendqisi2
	adds	r2, r0, #1
	strb	r3, [r10]
	beq	.L1404
.L1418:
	mov	r6, r0
.L1394:
	mov	r0, r6
	add	sp, sp, #24
	@ sp needed
	pop	{r4, r5, r6, r7, r8, r10, fp, pc}
.L1402:
	ldr	r3, .L1419+44
	mov	r2, r4
	ldr	r1, [sp, #8]
	mov	r0, r5
	ldrb	r3, [r3, #9]	@ zero_extendqisi2
	str	r7, [sp]
	str	r3, [sp, #4]
	ldr	r3, [sp, #16]
	blx	r8
	adds	r3, r0, #1
	beq	.L1403
	b	.L1418
.L1420:
	.align	2
.L1419:
	.word	.LANCHOR8
	.word	.LANCHOR120
	.word	.LC0
	.word	.LANCHOR10
	.word	.LANCHOR6
	.word	.LANCHOR11
	.word	.LANCHOR13
	.word	.LANCHOR115
	.word	.LANCHOR29
	.word	.LC54
	.word	.LANCHOR35
	.word	.LANCHOR19
	.word	.LANCHOR14
	.word	.LANCHOR12
	.size	flash_complete_page_read, .-flash_complete_page_read
	.section	.text.queue_wait_first_req_completed,"ax",%progbits
	.align	1
	.syntax unified
	.thumb
	.thumb_func
	.fpu softvfp
	.type	queue_wait_first_req_completed, %function
queue_wait_first_req_completed:
	@ args = 0, pretend = 0, frame = 0
	@ frame_needed = 0, uses_anonymous_args = 0
	ldr	r3, .L1458
	push	{r0, r1, r2, r4, r5, r6, r7, r8, r10, lr}
	ldrb	r5, [r3]	@ zero_extendqisi2
	cmp	r5, #255
	bne	.L1422
.L1440:
	movs	r4, #0
	b	.L1421
.L1422:
	ldr	r6, .L1458+4
	movs	r3, #48
	mla	r3, r3, r5, r6
	ldrb	r2, [r3, #42]	@ zero_extendqisi2
	ldr	r4, [r3, #24]
	subs	r3, r2, #1
	cmp	r3, #9
	bhi	.L1440
	tbb	[pc, r3]
.L1425:
	.byte	(.L1424-.L1425)/2
	.byte	(.L1424-.L1425)/2
	.byte	(.L1426-.L1425)/2
	.byte	(.L1426-.L1425)/2
	.byte	(.L1426-.L1425)/2
	.byte	(.L1427-.L1425)/2
	.byte	(.L1428-.L1425)/2
	.byte	(.L1429-.L1425)/2
	.byte	(.L1426-.L1425)/2
	.byte	(.L1429-.L1425)/2
	.p2align 1
.L1424:
	movs	r1, #64
	mov	r0, r4
	bl	flash_wait_device_ready
	lsls	r0, r0, #25
	bpl	.L1440
	movs	r3, #48
	mov	r0, r4
	mla	r5, r3, r5, r6
	ldr	r3, [r5, #4]
	ldr	r1, [r5, #8]
	ldr	r2, [r5, #12]
	cmp	r1, #0
	it	eq
	moveq	r1, r3
	bl	flash_complete_page_read
	movs	r3, #12
	str	r0, [r5, #36]
	strb	r3, [r5, #42]
	ldrb	r3, [r5, #2]	@ zero_extendqisi2
	orr	r3, r3, #8
	strb	r3, [r5, #2]
	b	.L1440
.L1426:
	movs	r1, #64
	mov	r0, r4
	bl	flash_wait_device_ready
	lsls	r1, r0, #25
	mov	r4, r0
	bpl	.L1440
	ands	r2, r0, #5
	mov	r3, #48
	mla	r5, r3, r5, r6
	beq	.L1439
	movs	r3, #11
	ldrb	r1, [r5, #1]	@ zero_extendqisi2
	strb	r3, [r5, #42]
	ldr	r0, .L1458+8
	str	r3, [sp]
	ldr	r3, [r5, #24]
	ldr	r2, [r5, #36]
	bl	printf
.L1457:
	mov	r3, #-1
	str	r3, [r5, #36]
	b	.L1421
.L1429:
	add	r3, r5, r5, lsl #1
	cmp	r2, #10
	it	eq
	moveq	r1, #9
	add	r3, r6, r3, lsl #4
	it	ne
	movne	r1, #3
	ubfx	r0, r4, #21, #3
	movs	r7, #48
.L1434:
	ldrb	r8, [r3]	@ zero_extendqisi2
	cmp	r8, #255
	bne	.L1438
	mov	r4, #-1
	b	.L1421
.L1438:
	mla	r2, r7, r8, r6
	add	r3, r8, r8, lsl #1
	ldrb	ip, [r2, #42]	@ zero_extendqisi2
	add	r3, r6, r3, lsl #4
	cmp	ip, r1
	bne	.L1434
	ldr	r2, [r2, #24]
	ubfx	r2, r2, #21, #3
	cmp	r0, r2
	bne	.L1434
	mov	r0, r4
	movs	r1, #64
	bl	flash_wait_device_ready
	ands	r4, r0, #64
	mov	r10, r0
	beq	.L1436
	ands	r4, r0, #15
	mul	r7, r7, r5
	beq	.L1437
	adds	r4, r6, r7
	movs	r7, #11
	ldrb	r1, [r4, #1]	@ zero_extendqisi2
	ldr	r0, .L1458+8
	str	r7, [sp]
	ldr	r3, [r4, #24]
	ldr	r2, [r4, #36]
	bl	printf
	mov	r3, #-1
	strb	r7, [r4, #42]
	str	r3, [r4, #36]
	mov	r4, r10
.L1436:
	movs	r3, #48
	mla	r5, r3, r5, r6
	mla	r6, r3, r8, r6
	ldrb	r2, [r5, #42]	@ zero_extendqisi2
	ldr	r3, [r5, #36]
	strb	r2, [r6, #42]
	str	r3, [r6, #36]
.L1421:
	mov	r0, r4
	add	sp, sp, #12
	@ sp needed
	pop	{r4, r5, r6, r7, r8, r10, pc}
.L1437:
	add	r7, r7, r6
	movs	r3, #12
	strb	r3, [r7, #42]
	str	r4, [r7, #36]
	b	.L1436
.L1427:
	mov	r0, r4
	movs	r1, #32
	bl	flash_wait_device_ready
	lsls	r2, r0, #26
	mov	r4, r0
	bpl	.L1440
	ands	r2, r0, #15
	mov	r3, #48
	mla	r5, r3, r5, r6
	beq	.L1439
	movs	r3, #11
	strb	r3, [r5, #42]
	b	.L1457
.L1439:
	movs	r3, #12
	str	r2, [r5, #36]
	strb	r3, [r5, #42]
	b	.L1440
.L1428:
	movs	r1, #64
	mov	r0, r4
	bl	flash_wait_device_ready
	lsls	r3, r0, #25
	bpl	.L1440
	movs	r3, #48
	mla	r5, r3, r5, r6
	movs	r3, #6
	str	r0, [r5, #36]
	strb	r3, [r5, #42]
	b	.L1440
.L1459:
	.align	2
.L1458:
	.word	.LANCHOR90
	.word	.LANCHOR36
	.word	.LC55
	.size	queue_wait_first_req_completed, .-queue_wait_first_req_completed
	.section	.text.sblk_wait_write_queue_completed,"ax",%progbits
	.align	1
	.global	sblk_wait_write_queue_completed
	.syntax unified
	.thumb
	.thumb_func
	.fpu softvfp
	.type	sblk_wait_write_queue_completed, %function
sblk_wait_write_queue_completed:
	@ args = 0, pretend = 0, frame = 0
	@ frame_needed = 0, uses_anonymous_args = 0
	push	{r4, lr}
	ldr	r4, .L1463
.L1461:
	ldrb	r3, [r4]	@ zero_extendqisi2
	cmp	r3, #255
	bne	.L1462
	pop	{r4, pc}
.L1462:
	bl	queue_wait_first_req_completed
	bl	queue_remove_completed_req
	b	.L1461
.L1464:
	.align	2
.L1463:
	.word	.LANCHOR90
	.size	sblk_wait_write_queue_completed, .-sblk_wait_write_queue_completed
	.section	.text.ftl_read_page,"ax",%progbits
	.align	1
	.global	ftl_read_page
	.syntax unified
	.thumb
	.thumb_func
	.fpu softvfp
	.type	ftl_read_page, %function
ftl_read_page:
	@ args = 4, pretend = 0, frame = 0
	@ frame_needed = 0, uses_anonymous_args = 0
	push	{r4, r5, r6, r7, r8, lr}
	mov	r4, r0
	ldr	r8, [sp, #24]
	mov	r5, r1
	mov	r6, r2
	mov	r7, r3
	bl	sblk_wait_write_queue_completed
	str	r8, [sp, #24]
	mov	r3, r7
	mov	r2, r6
	mov	r1, r5
	mov	r0, r4
	pop	{r4, r5, r6, r7, r8, lr}
	b	flash_read_page_en
	.size	ftl_read_page, .-ftl_read_page
	.section	.text.ftl_read_ppa_page,"ax",%progbits
	.align	1
	.global	ftl_read_ppa_page
	.syntax unified
	.thumb
	.thumb_func
	.fpu softvfp
	.type	ftl_read_ppa_page, %function
ftl_read_ppa_page:
	@ args = 0, pretend = 0, frame = 0
	@ frame_needed = 0, uses_anonymous_args = 0
	push	{r0, r1, r2, r4, r5, r6, r7, lr}
	mov	r4, r0
	mov	r5, r1
	mov	r6, r2
	mov	r7, r3
	bl	sblk_wait_write_queue_completed
	str	r7, [sp]
	mov	r3, r6
	mov	r2, r5
	mov	r1, r4
	ubfx	r0, r4, #21, #3
	bl	flash_read_page_en
	add	sp, sp, #12
	@ sp needed
	pop	{r4, r5, r6, r7, pc}
	.size	ftl_read_ppa_page, .-ftl_read_ppa_page
	.section	.text.ftl_open_sblk_read_test,"ax",%progbits
	.align	1
	.global	ftl_open_sblk_read_test
	.syntax unified
	.thumb
	.thumb_func
	.fpu softvfp
	.type	ftl_open_sblk_read_test, %function
ftl_open_sblk_read_test:
	@ args = 0, pretend = 0, frame = 32
	@ frame_needed = 0, uses_anonymous_args = 0
	push	{r4, r5, r6, r7, r8, lr}
	movs	r5, #0
	ldr	r8, .L1477+20
	sub	sp, sp, #32
	mov	r4, r0
	add	r1, sp, #16
	bl	ftl_get_blk_list_in_sblk
	strh	r4, [sp]	@ movhi
	strb	r0, [sp, #9]
.L1468:
	ldr	r3, .L1477
	ldrh	r2, [r3]
	uxth	r3, r5
	cmp	r2, r3
	bls	.L1467
	movs	r4, #0
	ldr	r7, .L1477+4
	b	.L1470
.L1473:
	uxth	r3, r4
	add	r2, sp, #32
	add	r3, r2, r3, lsl #1
	ldrh	r0, [r3, #-16]
	movw	r3, #65535
	cmp	r0, r3
	bne	.L1469
.L1472:
	adds	r4, r4, #1
.L1470:
	ldrb	r2, [r7]	@ zero_extendqisi2
	uxth	r3, r4
	cmp	r2, r3
	bhi	.L1473
	adds	r5, r5, #1
	b	.L1468
.L1469:
	ldr	r3, .L1477+8
	uxth	r6, r5
	ldr	r2, .L1477+12
	ldr	r1, .L1477+16
	ldrh	ip, [r3]
	ldrb	r3, [r8]	@ zero_extendqisi2
	mla	r0, r0, ip, r6
	bl	ftl_read_ppa_page
	cmp	r0, #512
	bne	.L1472
.L1467:
	add	sp, sp, #32
	@ sp needed
	pop	{r4, r5, r6, r7, r8, pc}
.L1478:
	.align	2
.L1477:
	.word	.LANCHOR79
	.word	.LANCHOR69
	.word	.LANCHOR75
	.word	.LANCHOR121
	.word	ftl_tmp_buffer
	.word	.LANCHOR45
	.size	ftl_open_sblk_read_test, .-ftl_open_sblk_read_test
	.section	.text.sblk_read_page,"ax",%progbits
	.align	1
	.global	sblk_read_page
	.syntax unified
	.thumb
	.thumb_func
	.fpu softvfp
	.type	sblk_read_page, %function
sblk_read_page:
	@ args = 0, pretend = 0, frame = 8
	@ frame_needed = 0, uses_anonymous_args = 0
	push	{r0, r1, r4, r5, r6, r7, r8, r10, fp, lr}
	mov	r4, r0
	ldr	r10, .L1493
	mov	r5, r1
	mov	r8, r0
	mov	r6, r1
.L1480:
	cbnz	r6, .L1484
.L1492:
	ldr	r6, .L1493
.L1485:
	cbnz	r5, .L1488
	mov	r0, r5
	add	sp, sp, #8
	@ sp needed
	pop	{r4, r5, r6, r7, r8, r10, fp, pc}
.L1484:
	ldrb	r7, [r8]	@ zero_extendqisi2
	ldr	fp, [r8, #24]
.L1481:
	movs	r1, #0
	mov	r0, fp
	bl	queue_lun_state
	cbnz	r0, .L1482
	str	r0, [sp, #4]
	movs	r0, #48
	ldr	r1, [r8, #24]
	bl	flash_start_page_read
	ldr	r2, [sp, #4]
	movs	r1, #1
	strb	r1, [r8, #42]
	mov	r1, r8
	ldr	r0, .L1493+4
	strb	r2, [r8, #43]
	movs	r2, #255
	strb	r2, [r8]
	bl	buf_add_tail
	subs	r6, r6, #1
	beq	.L1492
	add	r7, r7, r7, lsl #1
	add	r8, r10, r7, lsl #4
	b	.L1480
.L1482:
	bl	queue_wait_first_req_completed
	bl	queue_remove_completed_req
	b	.L1481
.L1488:
	ldrb	r3, [r4, #42]	@ zero_extendqisi2
	cmp	r3, #12
	bne	.L1486
	ldrb	r4, [r4]	@ zero_extendqisi2
	subs	r5, r5, #1
	add	r4, r4, r4, lsl #1
	add	r4, r6, r4, lsl #4
	b	.L1485
.L1486:
	bl	queue_wait_first_req_completed
	bl	queue_remove_completed_req
	b	.L1485
.L1494:
	.align	2
.L1493:
	.word	.LANCHOR36
	.word	.LANCHOR90
	.size	sblk_read_page, .-sblk_read_page
	.section	.text.gc_check_data_one_wl,"ax",%progbits
	.align	1
	.global	gc_check_data_one_wl
	.syntax unified
	.thumb
	.thumb_func
	.fpu softvfp
	.type	gc_check_data_one_wl, %function
gc_check_data_one_wl:
	@ args = 0, pretend = 0, frame = 0
	@ frame_needed = 0, uses_anonymous_args = 0
	push	{r4, r5, r6, r7, r8, r10, fp, lr}
	sub	sp, sp, #24
	ldr	r3, .L1520
	ldr	r4, .L1520+4
	ldr	r8, [r3]
	ldr	r3, [r4, #8]
	cbnz	r3, .L1496
	movs	r0, #1
	bl	buf_alloc
	str	r0, [r4, #8]
.L1496:
	ldr	r5, [r4, #8]
	cbz	r5, .L1497
	ldr	fp, .L1520+40
	add	r10, r8, #96
	movs	r7, #0
.L1498:
	ldrb	r3, [r8, #89]	@ zero_extendqisi2
	cmp	r7, r3
	bge	.L1508
	movs	r6, #1
	b	.L1509
.L1497:
	movw	r2, #333
	ldr	r1, .L1520+8
	ldr	r0, .L1520+12
	bl	printf
.L1499:
	b	.L1499
.L1507:
	ldrh	r3, [fp]
	ldrh	r2, [r10]
	muls	r2, r3, r2
	ldr	r3, .L1520+16
	ldrb	r1, [r3]	@ zero_extendqisi2
	ldrh	r3, [r4, #12]
	cmp	r1, #3
	bne	.L1500
	add	r3, r3, r2
	orr	r3, r3, r6, lsl #24
.L1519:
	movs	r1, #1
	str	r3, [r5, #24]
	mov	r0, r5
	bl	sblk_read_page
	ldr	r2, [r5, #36]
	ldr	r1, .L1520+20
	adds	r0, r2, #1
	beq	.L1503
	ldr	r3, [r1]
	ldrh	ip, [r4, #18]
	ldr	r0, [r5, #12]
	ldr	lr, [r3, ip, lsl #2]
	ldr	r3, [r0, #4]
	cmp	lr, r3
	bne	.L1503
	ldr	r3, .L1520+24
	ldr	r3, [r3]
	ldr	ip, [r3, ip, lsl #2]
	ldr	r3, [r0, #8]
	cmp	ip, r3
	beq	.L1504
.L1503:
	ldrh	r3, [r4, #18]
	ldr	r1, [r1]
	lsls	r0, r3, #2
	ldr	r3, [r1, r3, lsl #2]
	adds	r1, r3, #1
	beq	.L1504
	ldr	r1, .L1520+28
	ldr	r1, [r1]
	lsls	r1, r1, #21
	bpl	.L1505
	ldr	r1, [r5, #12]
	ldr	r4, [r1, #12]
	str	r4, [sp, #16]
	ldr	r4, [r1, #8]
	str	r4, [sp, #12]
	ldr	r4, [r1, #4]
	str	r4, [sp, #8]
	ldr	r1, [r1]
	str	r1, [sp, #4]
	ldr	r1, .L1520+24
	ldr	r1, [r1]
	ldr	r1, [r1, r0]
	ldr	r0, .L1520+32
	str	r1, [sp]
	ldr	r1, [r5, #24]
	bl	printf
.L1505:
	ldr	r3, .L1520+36
	mov	r0, #-1
	ldrh	r2, [r8, #80]
	movs	r1, #0
	ldr	r3, [r3]
	strh	r1, [r3, r2, lsl #1]	@ movhi
.L1495:
	add	sp, sp, #24
	@ sp needed
	pop	{r4, r5, r6, r7, r8, r10, fp, pc}
.L1500:
	cmp	r1, #2
	itett	eq
	addeq	r3, r3, #-1
	addne	r3, r3, r2
	addeq	r3, r3, r2
	addeq	r3, r3, r6
	it	eq
	orreq	r3, r3, #33554432
	b	.L1519
.L1504:
	ldrh	r3, [r4, #18]
	adds	r6, r6, #1
	adds	r3, r3, #1
	strh	r3, [r4, #18]	@ movhi
.L1509:
	ldrh	r3, [r4, #16]
	cmp	r6, r3
	ble	.L1507
	adds	r7, r7, #1
	add	r10, r10, #2
	b	.L1498
.L1508:
.L1506:
	ldrh	r3, [r4, #12]
	movs	r0, #0
	adds	r3, r3, #1
	strh	r3, [r4, #12]	@ movhi
	b	.L1495
.L1521:
	.align	2
.L1520:
	.word	.LANCHOR60
	.word	.LANCHOR59
	.word	.LANCHOR122
	.word	.LC0
	.word	.LANCHOR64
	.word	.LANCHOR107
	.word	.LANCHOR108
	.word	.LANCHOR22
	.word	.LC56
	.word	.LANCHOR56
	.word	.LANCHOR75
	.size	gc_check_data_one_wl, .-gc_check_data_one_wl
	.section	.text.flash_prog_page,"ax",%progbits
	.align	1
	.global	flash_prog_page
	.syntax unified
	.thumb
	.thumb_func
	.fpu softvfp
	.type	flash_prog_page, %function
flash_prog_page:
	@ args = 4, pretend = 0, frame = 8
	@ frame_needed = 0, uses_anonymous_args = 0
	push	{r0, r1, r4, r5, r6, r7, r8, r10, fp, lr}
	mov	fp, r3
	ldr	r3, .L1530
	mov	r5, r0
	mov	r6, r1
	mov	r10, r2
	ubfx	r8, r1, #0, #21
	ubfx	r7, r1, #24, #2
	ldr	r4, [r3]
	add	r3, r0, #8
	add	r3, r4, r3, lsl #8
	str	r3, [sp, #4]
	ldr	r3, .L1530+4
	ldr	r3, [r3]
	lsls	r3, r3, #27
	bpl	.L1523
	ldr	r3, [sp, #40]
	mov	r2, r7
	ldr	r0, .L1530+8
	bl	printf
.L1523:
	bl	nandc_wait_flash_ready
	mov	r0, r5
	bl	hynix_reconfig_rr_para
	mov	r0, r5
	bl	nandc_cs
	mov	r0, r5
	cbnz	r7, .L1524
	bl	flash_enter_slc_mode
.L1525:
	add	r4, r4, r5, lsl #8
	movs	r3, #128
	uxtb	r6, r6
	mov	r0, r8
	str	r3, [r4, #2056]
	movs	r3, #0
	str	r3, [r4, #2052]
	str	r3, [r4, #2052]
	lsr	r3, r8, #8
	str	r6, [r4, #2052]
	str	r3, [r4, #2052]
	lsr	r3, r8, #16
	str	r3, [r4, #2052]
	bl	nandc_set_seed
	ldr	r1, .L1530+12
	mov	r2, r10
	mov	r3, fp
	movs	r0, #1
	ldrb	r1, [r1, #9]	@ zero_extendqisi2
	bl	nandc_xfer_start
	bl	nandc_xfer_done
	movs	r3, #16
	str	r3, [r4, #2056]
	bl	nandc_wait_flash_ready
	ldr	r0, [sp, #4]
	bl	flash_read_status
	mov	r4, r0
	cbnz	r7, .L1526
	mov	r0, r5
	bl	flash_exit_slc_mode
.L1526:
	mov	r0, r5
	bl	nandc_de_cs
	and	r0, r4, #4
	add	sp, sp, #8
	@ sp needed
	pop	{r4, r5, r6, r7, r8, r10, fp, pc}
.L1524:
	bl	flash_exit_slc_mode
	b	.L1525
.L1531:
	.align	2
.L1530:
	.word	.LANCHOR6
	.word	.LANCHOR22
	.word	.LC57
	.word	.LANCHOR19
	.size	flash_prog_page, .-flash_prog_page
	.section	.text.flash_test_blk,"ax",%progbits
	.align	1
	.global	flash_test_blk
	.syntax unified
	.thumb
	.thumb_func
	.fpu softvfp
	.type	flash_test_blk, %function
flash_test_blk:
	@ args = 0, pretend = 0, frame = 0
	@ frame_needed = 0, uses_anonymous_args = 0
	push	{r0, r1, r4, r5, r6, r7, r8, lr}
	mov	r5, r1
	mov	r4, r0
	cbnz	r0, .L1533
	ldr	r3, .L1550
	ldrb	r3, [r3]	@ zero_extendqisi2
	cmp	r3, r1
	bhi	.L1537
.L1533:
	ldr	r6, .L1550+4
	movs	r2, #32
	ldr	r7, .L1550+8
	movs	r1, #165
	ldr	r0, [r6]
	bl	ftl_memset
	movs	r2, #8
	movs	r1, #90
	ldr	r0, [r7]
	bl	ftl_memset
	ldr	r3, .L1550+12
	mov	r0, r4
	ldrh	r3, [r3]
	muls	r5, r3, r5
	mov	r1, r5
	bl	flash_erase_block
	adds	r0, r0, #1
	beq	.L1535
	ldr	r8, .L1550+16
	mov	r1, r5
	mov	r0, r4
	ldrb	r3, [r8, #9]	@ zero_extendqisi2
	str	r3, [sp]
	ldr	r2, [r7]
	ldr	r3, [r6]
	bl	flash_prog_page
	adds	r0, r0, #1
	beq	.L1535
	ldrb	r3, [r8, #9]	@ zero_extendqisi2
	mov	r1, r5
	mov	r0, r4
	str	r3, [sp]
	ldr	r2, [r7]
	ldr	r3, [r6]
	bl	flash_read_page
	cmp	r0, #-1
	mov	r8, r0
	beq	.L1535
	ldr	r3, [r7]
	ldr	r3, [r3]
	cmp	r3, #1515870810
	bne	.L1535
	ldr	r3, [r6]
	ldr	r3, [r3]
	cmp	r3, #-1515870811
	beq	.L1536
.L1535:
	mov	r8, #-1
.L1536:
	mov	r1, r5
	mov	r0, r4
	bl	flash_erase_block
	mov	r0, r8
.L1532:
	add	sp, sp, #8
	@ sp needed
	pop	{r4, r5, r6, r7, r8, pc}
.L1537:
	b	.L1532
.L1551:
	.align	2
.L1550:
	.word	.LANCHOR123
	.word	.LANCHOR118
	.word	.LANCHOR119
	.word	.LANCHOR13
	.word	.LANCHOR19
	.size	flash_test_blk, .-flash_test_blk
	.section	.text.flash_start_tlc_page_prog,"ax",%progbits
	.align	1
	.global	flash_start_tlc_page_prog
	.syntax unified
	.thumb
	.thumb_func
	.fpu softvfp
	.type	flash_start_tlc_page_prog, %function
flash_start_tlc_page_prog:
	@ args = 12, pretend = 0, frame = 8
	@ frame_needed = 0, uses_anonymous_args = 0
	push	{r0, r1, r4, r5, r6, r7, r8, r10, fp, lr}
	mov	r7, r2
	ldr	r2, .L1559
	add	r5, sp, #40
	mov	r4, r0
	mov	fp, r1
	ldm	r5, {r5, r8, r10}
	ldrb	r2, [r2]	@ zero_extendqisi2
	cmp	r2, r3
	bhi	.L1553
	movw	r2, #655
	ldr	r1, .L1559+4
	ldr	r0, .L1559+8
	bl	printf
.L1554:
	b	.L1554
.L1553:
	ldr	r2, .L1559+12
	ldrb	r6, [r2, r3]	@ zero_extendqisi2
	ldr	r3, .L1559+16
	mov	r0, r6
	ldr	r2, [r3]
	str	r2, [sp, #4]
	bl	nandc_cs
	lsls	r3, r6, #8
	ldr	r2, [sp, #4]
	cbz	r4, .L1555
	adds	r1, r2, r3
	str	r4, [r1, #2056]
.L1555:
	adds	r4, r2, r3
	movs	r3, #128
	str	fp, [r4, #2056]
	str	r3, [r4, #2056]
	movs	r3, #0
	str	r3, [r4, #2052]
	str	r3, [r4, #2052]
	uxtb	r3, r5
	str	r3, [r4, #2052]
	lsrs	r3, r5, #8
	str	r3, [r4, #2052]
	lsrs	r3, r5, #16
	add	r5, r5, r5, lsl #1
	str	r3, [r4, #2052]
	subs	r0, r5, #1
	add	r0, r0, fp
	bl	nandc_set_seed
	ldr	r1, .L1559+20
	mov	r3, r10
	mov	r2, r8
	movs	r0, #1
	ldrb	r1, [r1, #9]	@ zero_extendqisi2
	bl	nandc_xfer_start
	bl	nandc_xfer_done
	str	r7, [r4, #2056]
	mov	r0, r6
	add	sp, sp, #8
	@ sp needed
	pop	{r4, r5, r6, r7, r8, r10, fp, lr}
	b	nandc_de_cs
.L1560:
	.align	2
.L1559:
	.word	.LANCHOR8
	.word	.LANCHOR124
	.word	.LC0
	.word	.LANCHOR10
	.word	.LANCHOR6
	.word	.LANCHOR19
	.size	flash_start_tlc_page_prog, .-flash_start_tlc_page_prog
	.section	.text.queue_tlc_prog_cmd,"ax",%progbits
	.align	1
	.syntax unified
	.thumb
	.thumb_func
	.fpu softvfp
	.type	queue_tlc_prog_cmd, %function
queue_tlc_prog_cmd:
	@ args = 0, pretend = 0, frame = 0
	@ frame_needed = 0, uses_anonymous_args = 0
	push	{r0, r1, r2, r3, r4, r5, r6, lr}
	mov	r4, r0
	ldr	r3, [r0]
	movs	r1, #1
	ldr	r2, [r3, #12]
	ldr	r5, [r3, #24]
	ldrb	r0, [r3, #44]	@ zero_extendqisi2
	str	r2, [sp, #8]
	movs	r2, #26
	ldr	r3, [r3, #4]
	ubfx	r6, r5, #0, #21
	ubfx	r5, r5, #21, #3
	str	r6, [sp]
	str	r3, [sp, #4]
	mov	r3, r5
	bl	flash_start_tlc_page_prog
	bl	nandc_wait_flash_ready
	ldm	r4, {r2, r3}
	movs	r1, #2
	ldrb	r0, [r2, #44]	@ zero_extendqisi2
	ldr	r2, [r3, #12]
	str	r2, [sp, #8]
	movs	r2, #26
	ldr	r3, [r3, #4]
	str	r6, [sp]
	str	r3, [sp, #4]
	mov	r3, r5
	bl	flash_start_tlc_page_prog
	bl	nandc_wait_flash_ready
	ldr	r3, [r4, #8]
	movs	r1, #3
	ldr	r2, [r4]
	ldrb	r0, [r2, #44]	@ zero_extendqisi2
	ldr	r2, [r3, #12]
	str	r2, [sp, #8]
	movs	r2, #16
	ldr	r3, [r3, #4]
	str	r6, [sp]
	str	r3, [sp, #4]
	mov	r3, r5
	bl	flash_start_tlc_page_prog
	ldr	r1, [r4]
	movs	r3, #4
	ldr	r0, .L1562
	strb	r3, [r1, #42]
	movs	r3, #1
	strb	r3, [r1, #43]
	movs	r3, #255
	strb	r3, [r1]
	add	sp, sp, #16
	@ sp needed
	pop	{r4, r5, r6, lr}
	b	buf_add_tail
.L1563:
	.align	2
.L1562:
	.word	.LANCHOR90
	.size	queue_tlc_prog_cmd, .-queue_tlc_prog_cmd
	.section	.text.sblk_tlc_prog_one_page,"ax",%progbits
	.align	1
	.global	sblk_tlc_prog_one_page
	.syntax unified
	.thumb
	.thumb_func
	.fpu softvfp
	.type	sblk_tlc_prog_one_page, %function
sblk_tlc_prog_one_page:
	@ args = 0, pretend = 0, frame = 0
	@ frame_needed = 0, uses_anonymous_args = 0
	ldr	r3, [r0]
	push	{r4, r5, r6, lr}
	mov	r5, r0
	ldr	r6, [r3, #24]
.L1565:
	movs	r1, #1
	mov	r0, r6
	bl	queue_lun_state
	mov	r4, r0
	cbnz	r0, .L1566
	mov	r0, r5
	bl	queue_tlc_prog_cmd
	mov	r0, r4
	pop	{r4, r5, r6, pc}
.L1566:
	bl	queue_wait_first_req_completed
	bl	queue_remove_completed_req
	b	.L1565
	.size	sblk_tlc_prog_one_page, .-sblk_tlc_prog_one_page
	.section	.text.sblk_xlc_prog_pages,"ax",%progbits
	.align	1
	.global	sblk_xlc_prog_pages
	.syntax unified
	.thumb
	.thumb_func
	.fpu softvfp
	.type	sblk_xlc_prog_pages, %function
sblk_xlc_prog_pages:
	@ args = 0, pretend = 0, frame = 0
	@ frame_needed = 0, uses_anonymous_args = 0
	ldr	r3, [r0]
	push	{r4, r5, r6, r7, r8, r10, lr}
	mov	r4, r0
	sub	sp, sp, #20
	mov	r7, r1
	mov	r10, r2
	ldr	r5, [r3, #24]
.L1568:
	movs	r1, #1
	mov	r0, r5
	bl	queue_lun_state
	cmp	r0, #0
	bne	.L1569
	cmp	r10, #2
	bne	.L1570
	ldr	r2, [r7]
	movs	r1, #1
	ldr	r3, [r4]
	ldr	r6, [r2, #24]
	ldr	r2, [r3, #12]
	ldr	r5, [r3, #24]
	ldrb	r0, [r3, #44]	@ zero_extendqisi2
	ubfx	r6, r6, #0, #21
	str	r2, [sp, #8]
	movs	r2, #17
	ldr	r3, [r3, #4]
	ubfx	r8, r5, #0, #21
	ubfx	r5, r5, #21, #3
	str	r8, [sp]
	str	r3, [sp, #4]
	mov	r3, r5
	bl	flash_start_tlc_page_prog
	bl	nandc_wait_flash_ready
	ldr	r3, [r7]
	movs	r1, #1
	ldr	r2, [r4]
	ldrb	r0, [r2, #44]	@ zero_extendqisi2
	ldr	r2, [r3, #12]
	str	r2, [sp, #8]
	movs	r2, #26
	ldr	r3, [r3, #4]
	str	r6, [sp]
	str	r3, [sp, #4]
	mov	r3, r5
	bl	flash_start_tlc_page_prog
	bl	nandc_wait_flash_ready
	ldm	r4, {r2, r3}
	mov	r1, r10
	ldrb	r0, [r2, #44]	@ zero_extendqisi2
	ldr	r2, [r3, #12]
	str	r2, [sp, #8]
	movs	r2, #17
	ldr	r3, [r3, #4]
	str	r8, [sp]
	str	r3, [sp, #4]
	mov	r3, r5
	bl	flash_start_tlc_page_prog
	bl	nandc_wait_flash_ready
	ldr	r3, [r7, #4]
	mov	r1, r10
	ldr	r2, [r4]
	ldrb	r0, [r2, #44]	@ zero_extendqisi2
	ldr	r2, [r3, #12]
	str	r2, [sp, #8]
	movs	r2, #26
	ldr	r3, [r3, #4]
	str	r6, [sp]
	str	r3, [sp, #4]
	mov	r3, r5
	bl	flash_start_tlc_page_prog
	bl	nandc_wait_flash_ready
	ldr	r3, [r4, #8]
	movs	r1, #3
	ldr	r2, [r4]
	ldrb	r0, [r2, #44]	@ zero_extendqisi2
	ldr	r2, [r3, #12]
	str	r2, [sp, #8]
	movs	r2, #17
	ldr	r3, [r3, #4]
	str	r8, [sp]
	str	r3, [sp, #4]
	mov	r3, r5
	bl	flash_start_tlc_page_prog
	bl	nandc_wait_flash_ready
	ldr	r3, [r7, #8]
	movs	r1, #3
	ldr	r2, [r4]
	ldrb	r0, [r2, #44]	@ zero_extendqisi2
	ldr	r2, [r3, #12]
	str	r2, [sp, #8]
	movs	r2, #16
	ldr	r3, [r3, #4]
	str	r6, [sp]
	str	r3, [sp, #4]
	mov	r3, r5
	bl	flash_start_tlc_page_prog
	ldr	r1, [r4]
	movs	r3, #5
	ldr	r0, .L1572
	strb	r3, [r1, #42]
	movs	r3, #1
	strb	r3, [r1, #43]
	movs	r3, #255
	strb	r3, [r1]
	bl	buf_add_tail
.L1571:
	movs	r0, #0
	add	sp, sp, #20
	@ sp needed
	pop	{r4, r5, r6, r7, r8, r10, pc}
.L1569:
	bl	queue_wait_first_req_completed
	bl	queue_remove_completed_req
	b	.L1568
.L1570:
	mov	r0, r4
	bl	queue_tlc_prog_cmd
	b	.L1571
.L1573:
	.align	2
.L1572:
	.word	.LANCHOR90
	.size	sblk_xlc_prog_pages, .-sblk_xlc_prog_pages
	.section	.text.flash_start_page_prog,"ax",%progbits
	.align	1
	.global	flash_start_page_prog
	.syntax unified
	.thumb
	.thumb_func
	.fpu softvfp
	.type	flash_start_page_prog, %function
flash_start_page_prog:
	@ args = 0, pretend = 0, frame = 8
	@ frame_needed = 0, uses_anonymous_args = 0
	push	{r0, r1, r4, r5, r6, r7, r8, r10, fp, lr}
	mov	r8, r2
	ldr	r2, .L1585
	mov	r10, r3
	ubfx	r3, r1, #21, #3
	mov	r7, r0
	mov	fp, r1
	ldrb	r2, [r2]	@ zero_extendqisi2
	cmp	r2, r3
	bhi	.L1575
	mov	r2, #692
	ldr	r1, .L1585+4
	ldr	r0, .L1585+8
	bl	printf
.L1576:
	b	.L1576
.L1575:
	ldr	r2, .L1585+12
	ubfx	r4, r1, #0, #21
	ldrb	r6, [r2, r3]	@ zero_extendqisi2
	ldr	r3, .L1585+16
	mov	r0, r6
	ldr	r5, [r3]
	bl	hynix_reconfig_rr_para
	mov	r0, r6
	bl	nandc_cs
	tst	fp, #50331648
	bne	.L1577
	ldr	r3, .L1585+20
	ldr	r2, .L1585+24
	ldrb	r3, [r3]	@ zero_extendqisi2
	cbz	r3, .L1578
	ldrb	r3, [r2]	@ zero_extendqisi2
	cbz	r3, .L1579
.L1578:
	ldr	r3, .L1585+28
	mov	r0, r4
	str	r2, [sp, #4]
	ldrh	fp, [r3]
	mov	r1, fp
	bl	__aeabi_uidiv
	mul	r3, fp, r0
	mov	r1, fp
	mov	r0, r4
	str	r3, [sp]
	bl	__aeabi_uidivmod
	ldr	r2, [sp, #4]
	ldr	r3, [sp]
	ldrb	r2, [r2]	@ zero_extendqisi2
	cbz	r2, .L1580
	add	r4, r3, r1, lsl #1
.L1579:
	mov	r0, r6
	bl	flash_enter_slc_mode
	b	.L1581
.L1580:
	ldr	r2, .L1585+32
	ldrh	r4, [r2, r1, lsl #1]
	add	r4, r4, r3
.L1581:
	add	r5, r5, r6, lsl #8
	movs	r3, #128
	mov	r0, r4
	str	r3, [r5, #2056]
	movs	r3, #0
	str	r3, [r5, #2052]
	str	r3, [r5, #2052]
	uxtb	r3, r4
	str	r3, [r5, #2052]
	lsrs	r3, r4, #8
	str	r3, [r5, #2052]
	lsrs	r3, r4, #16
	str	r3, [r5, #2052]
	bl	nandc_set_seed
	ldr	r1, .L1585+36
	mov	r3, r10
	mov	r2, r8
	movs	r0, #1
	ldrb	r1, [r1, #9]	@ zero_extendqisi2
	bl	nandc_xfer_start
	bl	nandc_xfer_done
	str	r7, [r5, #2056]
	mov	r0, r6
	add	sp, sp, #8
	@ sp needed
	pop	{r4, r5, r6, r7, r8, r10, fp, lr}
	b	nandc_de_cs
.L1577:
	mov	r0, r6
	bl	flash_exit_slc_mode
	b	.L1581
.L1586:
	.align	2
.L1585:
	.word	.LANCHOR8
	.word	.LANCHOR125
	.word	.LC0
	.word	.LANCHOR10
	.word	.LANCHOR6
	.word	.LANCHOR11
	.word	.LANCHOR12
	.word	.LANCHOR13
	.word	.LANCHOR14
	.word	.LANCHOR19
	.size	flash_start_page_prog, .-flash_start_page_prog
	.section	.text.queue_prog_cmd,"ax",%progbits
	.align	1
	.syntax unified
	.thumb
	.thumb_func
	.fpu softvfp
	.type	queue_prog_cmd, %function
queue_prog_cmd:
	@ args = 0, pretend = 0, frame = 0
	@ frame_needed = 0, uses_anonymous_args = 0
	push	{r3, r4, r5, r6, r7, lr}
	mov	r4, r0
	ldr	r3, [r0, #12]
	ldr	r2, [r0, #4]
	ldr	r1, [r0, #24]
	movs	r0, #16
	bl	flash_start_page_prog
	ldr	r3, .L1595
	ldr	r2, [r4, #24]
	ldrb	r3, [r3]	@ zero_extendqisi2
	cmp	r3, #255
	beq	.L1588
	ldr	r6, .L1595+4
	ubfx	r2, r2, #21, #3
	movs	r5, #48
	mov	r7, r6
.L1590:
	mla	r1, r5, r3, r6
	ldr	r0, [r1, #24]
	ubfx	r0, r0, #21, #3
	cmp	r2, r0
	bne	.L1589
	add	r0, r1, #42
	ldrb	r1, [r1, #42]	@ zero_extendqisi2
	cmp	r1, #6
	bne	.L1589
	movs	r3, #3
	strb	r3, [r0]
.L1588:
	movs	r3, #3
	mov	r1, r4
	strb	r3, [r4, #42]
	movs	r3, #1
	strb	r3, [r4, #43]
	movs	r3, #255
	strb	r3, [r4]
	ldr	r0, .L1595
	pop	{r3, r4, r5, r6, r7, lr}
	b	buf_add_tail
.L1589:
	muls	r3, r5, r3
	ldrb	r3, [r7, r3]	@ zero_extendqisi2
	cmp	r3, #255
	bne	.L1590
	b	.L1588
.L1596:
	.align	2
.L1595:
	.word	.LANCHOR90
	.word	.LANCHOR36
	.size	queue_prog_cmd, .-queue_prog_cmd
	.section	.text.sblk_prog_page,"ax",%progbits
	.align	1
	.global	sblk_prog_page
	.syntax unified
	.thumb
	.thumb_func
	.fpu softvfp
	.type	sblk_prog_page, %function
sblk_prog_page:
	@ args = 0, pretend = 0, frame = 0
	@ frame_needed = 0, uses_anonymous_args = 0
	ldrh	r3, [r0, #34]
	push	{r4, r5, r6, r7, r8, r10, fp, lr}
	mov	r4, r0
	mov	r5, r1
	cbz	r3, .L1598
	ldr	r3, .L1620
	ldr	r3, [r3]
	lsls	r3, r3, #23
	bpl	.L1598
	mov	r2, r1
	ldr	r1, [r0, #24]
	ldr	r0, .L1620+4
	bl	printf
.L1598:
	movs	r6, #0
.L1599:
	cbnz	r5, .L1610
	mov	r0, r5
	pop	{r4, r5, r6, r7, r8, r10, fp, pc}
.L1610:
	ldrb	r7, [r4]	@ zero_extendqisi2
	ldr	r10, [r4, #24]
.L1600:
	movs	r1, #1
	mov	r0, r10
	bl	queue_lun_state
	mov	fp, r0
	cbnz	r0, .L1601
	cmp	r5, #1
	beq	.L1602
	ldr	r3, .L1620+8
	ldrb	r3, [r3]	@ zero_extendqisi2
	cbnz	r3, .L1603
.L1602:
	mov	r0, r4
	bl	queue_prog_cmd
.L1604:
	ldr	r3, .L1620+12
	add	r7, r7, r7, lsl #1
	subs	r5, r5, #1
	add	r4, r3, r7, lsl #4
	b	.L1599
.L1601:
	bl	queue_wait_first_req_completed
	bl	queue_remove_completed_req
	b	.L1600
.L1603:
	ldrb	r3, [r4]	@ zero_extendqisi2
	ubfx	r2, r10, #21, #3
	cmp	r3, #255
	bne	.L1605
	mov	r2, #478
	ldr	r1, .L1620+16
	ldr	r0, .L1620+20
	bl	printf
.L1606:
	b	.L1606
.L1605:
	ldr	r0, .L1620+12
	movs	r1, #48
	mla	r3, r1, r3, r0
	ldr	ip, [r3, #24]
	ubfx	r3, ip, #21, #3
	cmp	r2, r3
	bne	.L1607
	ldr	r3, .L1620+24
	mov	r8, #1
	ldrh	r1, [r3]
	ldr	r3, .L1620+28
	lsl	r2, r8, r1
	ldrb	r0, [r3]	@ zero_extendqisi2
	rsb	r3, r1, #21
	lsl	r3, r8, r3
	subs	r2, r2, #1
	uxth	r2, r2
	subs	r0, r0, #1
	subs	r3, r3, #1
	ands	r3, r3, r0
	and	lr, r2, r10
	uxth	r3, r3
	lsr	r10, r10, r1
	lsr	r1, ip, r1
	and	r10, r3, r10
	ands	r1, r1, r3
	and	r2, r2, ip
	cmp	r10, r1
	beq	.L1608
	cmp	lr, r2
	bne	.L1608
	cmp	r6, r0
	beq	.L1607
	ldr	r3, [r4, #12]
	movs	r0, #17
	ldr	r2, [r4, #4]
	add	r6, r6, r8
	ldr	r1, [r4, #24]
	bl	flash_start_page_prog
	movs	r3, #8
	strb	r8, [r4, #43]
	strb	r3, [r4, #42]
	movs	r3, #255
	strb	r3, [r4]
	mov	r1, r4
	ldr	r0, .L1620+32
	bl	buf_add_tail
	b	.L1604
.L1608:
	mov	r0, r4
	movs	r6, #0
	bl	queue_prog_cmd
	b	.L1604
.L1607:
	mov	r0, r4
	mov	r6, fp
	bl	queue_prog_cmd
	b	.L1604
.L1621:
	.align	2
.L1620:
	.word	.LANCHOR22
	.word	.LC58
	.word	.LANCHOR23
	.word	.LANCHOR36
	.word	.LANCHOR126
	.word	.LC0
	.word	.LANCHOR71
	.word	.LANCHOR70
	.word	.LANCHOR90
	.size	sblk_prog_page, .-sblk_prog_page
	.section	.text.ftl_flush,"ax",%progbits
	.align	1
	.global	ftl_flush
	.syntax unified
	.thumb
	.thumb_func
	.fpu softvfp
	.type	ftl_flush, %function
ftl_flush:
	@ args = 0, pretend = 0, frame = 0
	@ frame_needed = 0, uses_anonymous_args = 0
	push	{r3, r4, r5, lr}
	ldr	r4, .L1627
	ldr	r5, .L1627+4
	ldrb	r1, [r4]	@ zero_extendqisi2
	cbz	r1, .L1623
	ldrb	r0, [r5]	@ zero_extendqisi2
	ldr	r3, .L1627+8
	add	r0, r0, r0, lsl #1
	add	r0, r3, r0, lsl #4
	bl	sblk_prog_page
.L1623:
	movs	r3, #255
	strb	r3, [r5]
	movs	r3, #0
	strb	r3, [r4]
	bl	sblk_wait_write_queue_completed
	bl	ftl_write_completed
	movw	r0, #65535
	pop	{r3, r4, r5, lr}
	b	ftl_vpn_decrement
.L1628:
	.align	2
.L1627:
	.word	.LANCHOR89
	.word	.LANCHOR127
	.word	.LANCHOR36
	.size	ftl_flush, .-ftl_flush
	.section	.text.flash_prog_page_en,"ax",%progbits
	.align	1
	.global	flash_prog_page_en
	.syntax unified
	.thumb
	.thumb_func
	.fpu softvfp
	.type	flash_prog_page_en, %function
flash_prog_page_en:
	@ args = 8, pretend = 0, frame = 8
	@ frame_needed = 0, uses_anonymous_args = 0
	push	{r0, r1, r2, r3, r4, r5, r6, r7, r8, r10, fp, lr}
	mov	r8, r3
	ldr	r3, .L1658
	mov	r7, r0
	mov	r5, r1
	mov	r10, r2
	ldrb	r6, [sp, #52]	@ zero_extendqisi2
	ldrb	r3, [r3]	@ zero_extendqisi2
	cmp	r3, r0
	bhi	.L1630
	mov	r2, #480
	ldr	r1, .L1658+4
	ldr	r0, .L1658+8
	bl	printf
.L1631:
	b	.L1631
.L1630:
	ldr	r3, .L1658+12
	tst	r1, #50331648
	ldrb	fp, [r3, r0]	@ zero_extendqisi2
	bne	.L1642
	ldr	r3, .L1658+16
	ldr	r2, .L1658+20
	ldrb	r3, [r3]	@ zero_extendqisi2
	cbz	r3, .L1633
	ldrb	r3, [r2]	@ zero_extendqisi2
	cmp	r3, #0
	beq	.L1642
.L1633:
	ldr	r3, .L1658+24
	mov	r0, r5
	str	r2, [sp, #12]
	ldrh	r4, [r3]
	mov	r1, r4
	bl	__aeabi_uidiv
	mul	r3, r4, r0
	mov	r1, r4
	mov	r0, r5
	str	r3, [sp, #8]
	bl	__aeabi_uidivmod
	ldr	r2, [sp, #12]
	ldr	r3, [sp, #8]
	ldrb	r2, [r2]	@ zero_extendqisi2
	cmp	r2, #0
	beq	.L1634
	add	r4, r3, r1, lsl #1
.L1632:
	ldr	r3, .L1658+28
	ldr	r3, [r3]
	lsls	r2, r3, #27
	bpl	.L1635
	mov	r2, r5
	mov	r1, fp
	ldr	r0, .L1658+32
	bl	printf
.L1635:
	ldr	r3, [sp, #48]
	mov	r0, fp
	mov	r2, r10
	mov	r1, r4
	str	r3, [sp]
	mov	r3, r8
	bl	flash_prog_page
	mov	fp, r0
	cmp	r6, #0
	beq	.L1636
	ldr	r3, [sp, #48]
	mov	r1, r5
	ldr	r6, .L1658+36
	mov	r0, r7
	ldr	r4, .L1658+40
	str	r3, [sp]
	ldr	r3, [r6]
	ldr	r2, [r4]
	bl	flash_read_page_en
	adds	r3, r0, #1
	beq	.L1637
	cmp	r0, #512
	beq	.L1637
	ldr	r3, [r4]
	ldr	r2, [r10]
	ldr	r3, [r3]
	cmp	r2, r3
	bne	.L1637
	ldr	r3, [r6]
	ldr	r2, [r8]
	ldr	r3, [r3]
	cmp	r2, r3
	beq	.L1636
.L1637:
	movs	r3, #4
	ldr	r1, [r6]
	mov	r2, r3
	ldr	r0, .L1658+44
	bl	rknand_print_hex
	movs	r3, #4
	ldr	r1, [r4]
	mov	r2, r3
	ldr	r0, .L1658+48
	bl	rknand_print_hex
.L1638:
	mov	r1, r5
	ldr	r0, .L1658+52
	bl	printf
	mov	r2, #506
	ldr	r1, .L1658+4
	ldr	r0, .L1658+8
	bl	printf
.L1640:
	b	.L1640
.L1634:
	ldr	r2, .L1658+56
	ldrh	r4, [r2, r1, lsl #1]
	add	r4, r4, r3
	b	.L1632
.L1642:
	mov	r4, r5
	b	.L1632
.L1636:
	cmp	fp, #-1
	beq	.L1638
	mov	r0, fp
	add	sp, sp, #16
	@ sp needed
	pop	{r4, r5, r6, r7, r8, r10, fp, pc}
.L1659:
	.align	2
.L1658:
	.word	.LANCHOR8
	.word	.LANCHOR128
	.word	.LC0
	.word	.LANCHOR10
	.word	.LANCHOR11
	.word	.LANCHOR12
	.word	.LANCHOR13
	.word	.LANCHOR22
	.word	.LC59
	.word	.LANCHOR118
	.word	.LANCHOR119
	.word	.LC60
	.word	.LC61
	.word	.LC62
	.word	.LANCHOR14
	.size	flash_prog_page_en, .-flash_prog_page_en
	.section	.text.ftl_test_block,"ax",%progbits
	.align	1
	.global	ftl_test_block
	.syntax unified
	.thumb
	.thumb_func
	.fpu softvfp
	.type	ftl_test_block, %function
ftl_test_block:
	@ args = 0, pretend = 0, frame = 8
	@ frame_needed = 0, uses_anonymous_args = 0
	push	{r0, r1, r2, r3, r4, r5, r6, r7, r8, r10, fp, lr}
	movs	r5, #0
	ldr	r3, .L1677
	mov	r10, r0
	ldr	fp, .L1677+32
	str	r5, [r3]
	ldr	r3, .L1677+4
	str	r5, [r3]
.L1661:
	uxth	r3, r5
	str	r3, [sp, #12]
	ldr	r3, .L1677+8
	ldr	r2, [sp, #12]
	ldrb	r3, [r3]	@ zero_extendqisi2
	cmp	r3, r2
	bls	.L1668
	mov	r8, #0
	b	.L1669
.L1667:
	ldr	r3, .L1677+12
	ldr	r3, [r3]
	lsls	r3, r3, #19
	bpl	.L1662
	mov	r1, r10
	ldr	r0, .L1677+16
	bl	printf
.L1662:
	ldrb	r4, [fp]	@ zero_extendqisi2
	ldr	r3, [sp, #12]
	smulbb	r4, r4, r10
	add	r4, r4, r6
	uxth	r4, r4
	cbnz	r3, .L1663
	ldr	r3, .L1677+20
	ldr	r3, [r3]
	ldrb	r3, [r3, #47]	@ zero_extendqisi2
	cmp	r3, r4
	bcs	.L1664
.L1663:
	uxtb	r6, r5
	mov	r1, r4
	mov	r0, r6
	bl	flash_check_bad_block
	cbnz	r0, .L1664
	ldr	r3, .L1677+24
	mov	r0, r6
	ldrh	r7, [r3]
	muls	r7, r4, r7
	mov	r1, r7
	bl	flash_erase_block
	cbz	r0, .L1666
.L1676:
	mov	r1, r4
	mov	r0, r6
	bl	flash_mask_bad_block
	b	.L1664
.L1666:
	movs	r3, #1
	ldr	r2, .L1677
	str	r3, [sp, #4]
	mov	r1, r7
	ldr	r3, .L1677+28
	mov	r0, r6
	ldrb	r3, [r3]	@ zero_extendqisi2
	str	r3, [sp]
	ldr	r3, .L1677+4
	bl	flash_prog_page_en
	cmp	r0, #0
	bne	.L1676
.L1664:
	add	r8, r8, #1
.L1669:
	ldrb	r3, [fp]	@ zero_extendqisi2
	uxth	r6, r8
	cmp	r3, r6
	bhi	.L1667
	adds	r5, r5, #1
	b	.L1661
.L1668:
	movs	r0, #0
	add	sp, sp, #16
	@ sp needed
	pop	{r4, r5, r6, r7, r8, r10, fp, pc}
.L1678:
	.align	2
.L1677:
	.word	ftl_tmp_buffer
	.word	.LANCHOR121
	.word	.LANCHOR76
	.word	.LANCHOR22
	.word	.LC63
	.word	.LANCHOR5
	.word	.LANCHOR75
	.word	.LANCHOR45
	.word	.LANCHOR70
	.size	ftl_test_block, .-ftl_test_block
	.section	.text.ftl_prog_page,"ax",%progbits
	.align	1
	.global	ftl_prog_page
	.syntax unified
	.thumb
	.thumb_func
	.fpu softvfp
	.type	ftl_prog_page, %function
ftl_prog_page:
	@ args = 4, pretend = 0, frame = 0
	@ frame_needed = 0, uses_anonymous_args = 0
	push	{r0, r1, r2, r4, r5, r6, r7, lr}
	mov	r7, r3
	mov	r4, r0
	mov	r5, r1
	mov	r6, r2
	bl	sblk_wait_write_queue_completed
	movs	r3, #1
	mov	r2, r6
	str	r3, [sp, #4]
	mov	r1, r5
	ldr	r3, [sp, #32]
	mov	r0, r4
	str	r3, [sp]
	mov	r3, r7
	bl	flash_prog_page_en
	adds	r3, r0, #1
	bne	.L1679
	movw	r2, #1414
	ldr	r1, .L1682
	ldr	r0, .L1682+4
	bl	printf
.L1681:
	b	.L1681
.L1679:
	add	sp, sp, #12
	@ sp needed
	pop	{r4, r5, r6, r7, pc}
.L1683:
	.align	2
.L1682:
	.word	.LANCHOR129
	.word	.LC0
	.size	ftl_prog_page, .-ftl_prog_page
	.section	.text.ftl_info_flush,"ax",%progbits
	.align	1
	.global	ftl_info_flush
	.syntax unified
	.thumb
	.thumb_func
	.fpu softvfp
	.type	ftl_info_flush, %function
ftl_info_flush:
	@ args = 0, pretend = 0, frame = 8
	@ frame_needed = 0, uses_anonymous_args = 0
	push	{r0, r1, r2, r3, r4, r5, r6, r7, r8, r10, fp, lr}
	mov	r8, #0
	ldr	r4, .L1721
	movs	r1, #0
	ldr	r6, .L1721+4
	ldrb	r2, [r4]	@ zero_extendqisi2
	mov	fp, r4
	str	r0, [sp, #12]
	mov	r4, r6
	ldr	r0, .L1721+8
	lsls	r2, r2, #1
	bl	ftl_memset
.L1685:
	ldr	r7, .L1721+12
	ldr	r1, [sp, #12]
	ldrb	r10, [r6]	@ zero_extendqisi2
	ldrh	r3, [r7]
	ldrh	r5, [r6, #2]
	str	r3, [sp, #8]
	ldr	r3, .L1721+16
	ldr	r2, [r3]
	ldr	r3, [r2, #4]
	adds	r3, r3, #1
	str	r3, [r2, #4]
	ldr	r2, .L1721+8
	stm	r2, {r1, r3}
	ldr	r2, .L1721+20
	ldr	r2, [r2]
	lsls	r2, r2, #19
	bpl	.L1686
	mov	r2, r5
	mov	r1, r10
	ldr	r0, .L1721+24
	bl	printf
.L1686:
	ldr	r3, .L1721+28
	ldrh	r0, [r4, #2]
	ldrh	r3, [r3]
	cmp	r3, r0
	bhi	.L1687
	ldr	r2, .L1721+32
	movs	r0, #0
	ldrb	r3, [r4, #1]	@ zero_extendqisi2
	ldr	r5, [r2]
	ldrb	r2, [r4]	@ zero_extendqisi2
.L1694:
	adds	r3, r3, #1
	uxtb	r3, r3
	cmp	r3, #7
	bls	.L1688
	add	lr, r5, #40
	movs	r1, #0
.L1693:
	ldrb	r8, [lr], #1	@ zero_extendqisi2
	uxth	ip, r1
	cmp	r8, #128
	bls	.L1689
	cmp	r8, #255
	beq	.L1690
	strb	r3, [r4, #1]
	cbz	r0, .L1691
	strb	r2, [r4]
.L1691:
	movs	r2, #156
	ldr	r1, .L1721+36
	ldr	r0, .L1721+40
	bl	printf
.L1692:
	b	.L1692
.L1690:
	adds	r1, r1, #1
	cmp	r1, #8
	bne	.L1693
	mov	ip, r1
.L1689:
	uxtb	r3, ip
	mov	r8, #1
.L1688:
	adds	r2, r5, r3
	ldrb	r2, [r2, #40]	@ zero_extendqisi2
	movs	r0, #1
	cmp	r2, #255
	beq	.L1694
	ldrh	r5, [r7]
	movs	r0, #0
	strb	r3, [r4, #1]
	strb	r2, [r4]
	muls	r5, r2, r5
	mov	r1, r5
	bl	flash_erase_block
	ldrb	r3, [fp]	@ zero_extendqisi2
	mov	r1, r5
	ldr	r2, .L1721+44
	movs	r0, #0
	str	r3, [sp]
	ldr	r3, .L1721+8
	bl	ftl_prog_page
	movs	r3, #1
	add	r5, r5, r3
	strh	r3, [r4, #2]	@ movhi
.L1695:
	ldrb	r3, [fp]	@ zero_extendqisi2
	mov	r1, r5
	ldr	r2, .L1721+44
	movs	r0, #0
	str	r3, [sp]
	ldr	r3, .L1721+8
	bl	ftl_prog_page
	ldrh	r3, [r4, #2]
	adds	r0, r0, #1
	add	r3, r3, #1
	strh	r3, [r4, #2]	@ movhi
	beq	.L1685
	cmp	r8, #0
	bne	.L1696
.L1704:
	ldrb	r3, [r4]	@ zero_extendqisi2
	cmp	r3, #255
	bne	.L1720
	movs	r2, #191
	ldr	r1, .L1721+36
	ldr	r0, .L1721+40
	bl	printf
.L1705:
	b	.L1705
.L1687:
	ldr	r3, [sp, #8]
	mla	r5, r10, r3, r5
	cmp	r0, #0
	bne	.L1695
	mov	r1, r5
	bl	flash_erase_block
	b	.L1695
.L1696:
	ldrb	r5, [r4, #1]	@ zero_extendqisi2
	ldr	r6, .L1721+32
	adds	r5, r5, #1
.L1699:
	cmp	r5, #7
	bhi	.L1704
	ldr	r3, [r6]
	add	r3, r3, r5
	ldrb	r3, [r3, #40]	@ zero_extendqisi2
	uxth	r2, r3
	cmp	r2, #128
	bls	.L1700
	cmp	r2, #255
	beq	.L1701
	movs	r2, #184
	ldr	r1, .L1721+36
	ldr	r0, .L1721+40
	bl	printf
.L1702:
	b	.L1702
.L1700:
	ldr	r2, .L1721+12
	movs	r0, #0
	ldrh	r1, [r2]
	muls	r1, r3, r1
	bl	flash_erase_block
.L1701:
	adds	r5, r5, #1
	uxth	r5, r5
	b	.L1699
.L1720:
	movs	r0, #0
	add	sp, sp, #16
	@ sp needed
	pop	{r4, r5, r6, r7, r8, r10, fp, pc}
.L1722:
	.align	2
.L1721:
	.word	.LANCHOR45
	.word	.LANCHOR131
	.word	.LANCHOR130
	.word	.LANCHOR75
	.word	.LANCHOR46
	.word	.LANCHOR22
	.word	.LC64
	.word	.LANCHOR79
	.word	.LANCHOR5
	.word	.LANCHOR132
	.word	.LC0
	.word	ftl_info_data_buffer
	.size	ftl_info_flush, .-ftl_info_flush
	.section	.text.ftl_info_blk_init,"ax",%progbits
	.align	1
	.global	ftl_info_blk_init
	.syntax unified
	.thumb
	.thumb_func
	.fpu softvfp
	.type	ftl_info_blk_init, %function
ftl_info_blk_init:
	@ args = 0, pretend = 0, frame = 8
	@ frame_needed = 0, uses_anonymous_args = 0
	push	{r0, r1, r2, r3, r4, r5, r6, r7, r8, r10, fp, lr}
	movs	r4, #0
	ldr	r3, .L1755
	mov	r1, r4
	mov	r2, #16384
	ldr	r0, .L1755+4
	strb	r4, [r3]
	ldr	r3, .L1755+8
	ldr	r5, .L1755+12
	ldr	r6, .L1755+16
	str	r0, [r3]
	ldr	r3, .L1755+20
	ldrh	r3, [r3]
	add	r3, r0, r3, lsl #2
	str	r3, [r5]
	bl	ftl_memset
	mov	r2, #16384
	mov	r1, r4
	ldr	r0, .L1755+24
	bl	ftl_memset
	ldr	r2, [r6]
	ldr	r3, .L1755+28
	ldrb	r2, [r2, #40]	@ zero_extendqisi2
	strb	r4, [r3, #1]
	strh	r4, [r3, #2]	@ movhi
	movs	r4, #7
	strb	r2, [r3]
	str	r3, [sp, #12]
.L1725:
	ldr	r3, [r6]
	sxth	r8, r4
	add	r3, r3, r4
	ldrb	r7, [r3, #40]	@ zero_extendqisi2
	cmp	r7, #255
	bne	.L1724
.L1729:
	adds	r4, r4, #-1
	bcs	.L1725
	mov	r8, #0
.L1726:
	ldr	r3, .L1755+32
	ldr	r3, [r3]
	lsls	r1, r3, #19
	bpl	.L1730
	ldr	r3, [r5]
	mov	r2, #4800
	mov	r1, r4
	ldr	r0, .L1755+36
	ldr	r3, [r3]
	bl	printf
.L1730:
	adds	r2, r4, #1
	bne	.L1731
	mov	r2, #16384
	movs	r1, #0
	ldr	r0, .L1755+4
	bl	ftl_memset
	ldr	r3, [r5]
	mov	r0, r4
	ldr	r2, .L1755+40
	str	r2, [r3]
.L1723:
	add	sp, sp, #16
	@ sp needed
	pop	{r4, r5, r6, r7, r8, r10, fp, pc}
.L1724:
	ldr	r3, .L1755+44
	movs	r0, #0
	ldr	fp, .L1755+56
	ldr	r2, .L1755+4
	ldrh	r3, [r3]
	muls	r7, r3, r7
	ldrb	r3, [fp]	@ zero_extendqisi2
	str	r3, [sp]
	mov	r1, r7
	ldr	r3, .L1755+48
	bl	ftl_read_page
	cmp	r0, #-1
	mov	r10, r0
	bne	.L1727
	ldrb	r3, [fp]	@ zero_extendqisi2
	adds	r1, r7, #1
	ldr	r2, .L1755+4
	movs	r0, #0
	str	r3, [sp]
	ldr	r3, .L1755+48
	bl	ftl_read_page
	mov	r10, r0
.L1727:
	ldr	r3, .L1755+32
	ldr	r3, [r3]
	lsls	r0, r3, #19
	bpl	.L1728
	ldr	r3, [r5]
	mov	r2, r10
	mov	r1, r4
	ldr	r0, .L1755+52
	ldr	r3, [r3]
	str	r3, [sp]
	movs	r3, #64
	bl	printf
.L1728:
	cmp	r10, #-1
	beq	.L1729
	ldr	r3, [r5]
	ldr	r2, .L1755+40
	ldr	r3, [r3]
	cmp	r3, r2
	bne	.L1729
	mov	r4, r8
	b	.L1726
.L1731:
	ldr	r3, [r6]
	movs	r0, #0
	ldr	r2, .L1755+4
	movs	r4, #0
	ldr	r10, .L1755+40
	add	r3, r3, r8
	ldrb	r1, [r3, #40]	@ zero_extendqisi2
	ldr	r3, [sp, #12]
	strb	r8, [r3, #1]
	strb	r1, [r3]
	movs	r3, #4
	str	r3, [sp]
	ldr	r3, .L1755+48
	bl	flash_get_last_written_page
	uxth	r6, r0
	mov	r7, r0
	adds	r3, r6, #1
	uxth	r8, r3
	ldr	r3, [sp, #12]
	ldrb	fp, [r3]	@ zero_extendqisi2
	ldr	r3, .L1755+44
	ldrh	r3, [r3]
	mul	fp, r3, fp
.L1733:
	subs	r3, r6, r4
	lsls	r3, r3, #16
	bmi	.L1738
	ldr	r3, .L1755+56
	add	r1, r7, fp
	ldr	r2, .L1755+4
	subs	r1, r1, r4
	movs	r0, #0
	ldrb	r3, [r3]	@ zero_extendqisi2
	str	r3, [sp]
	ldr	r3, .L1755+48
	bl	ftl_read_page
	adds	r0, r0, #1
	beq	.L1734
	ldr	r3, [r5]
	ldr	r3, [r3]
	cmp	r3, r10
	bne	.L1734
.L1738:
	ldr	r3, [sp, #12]
	strh	r8, [r3, #2]	@ movhi
	ldr	r3, [r5]
	ldr	r2, [r3, #16]
	cmp	r2, #2048
	bhi	.L1735
.L1736:
	ldr	r2, [r3, #24]
	cmp	r2, #2048
	bls	.L1739
	ldr	r1, [r3, #28]
	add	r1, r1, r2, lsr #11
	ubfx	r2, r2, #0, #11
	str	r2, [r3, #24]
	str	r1, [r3, #28]
.L1739:
	ldr	r2, [r3, #32]
	cmp	r2, #1024
	bls	.L1740
	ldr	r1, [r3, #36]
	add	r1, r1, r2, lsr #10
	ubfx	r2, r2, #0, #10
	str	r2, [r3, #32]
	str	r1, [r3, #36]
.L1740:
	ldr	r2, [r3, #40]
	cmp	r2, #1024
	bls	.L1741
	ldr	r1, [r3, #44]
	add	r1, r1, r2, lsr #10
	ubfx	r2, r2, #0, #10
	str	r2, [r3, #40]
	str	r1, [r3, #44]
.L1741:
	ldr	r2, [r3, #64]
	movs	r0, #0
	adds	r2, r2, #1
	str	r2, [r3, #64]
	bl	ftl_info_flush
	movs	r0, #0
	bl	ftl_info_flush
	movs	r0, #0
	b	.L1723
.L1734:
	adds	r4, r4, #1
	b	.L1733
.L1735:
	ldr	r1, [r3, #20]
	add	r1, r1, r2, lsr #11
	ubfx	r2, r2, #0, #11
	str	r2, [r3, #16]
	str	r1, [r3, #20]
	b	.L1736
.L1756:
	.align	2
.L1755:
	.word	.LANCHOR133
	.word	ftl_info_data_buffer
	.word	.LANCHOR57
	.word	.LANCHOR46
	.word	.LANCHOR5
	.word	.LANCHOR54
	.word	ftl_ext_info_data_buffer
	.word	.LANCHOR131
	.word	.LANCHOR22
	.word	.LC66
	.word	1229739078
	.word	.LANCHOR75
	.word	.LANCHOR130
	.word	.LC65
	.word	.LANCHOR45
	.size	ftl_info_blk_init, .-ftl_info_blk_init
	.section	.text.ftl_ext_info_flush,"ax",%progbits
	.align	1
	.global	ftl_ext_info_flush
	.syntax unified
	.thumb
	.thumb_func
	.fpu softvfp
	.type	ftl_ext_info_flush, %function
ftl_ext_info_flush:
	@ args = 0, pretend = 0, frame = 0
	@ frame_needed = 0, uses_anonymous_args = 0
	ldr	r3, .L1771
	push	{r0, r1, r4, r5, r6, r7, r8, r10, fp, lr}
	ldr	r3, [r3]
	ldr	r2, [r3, #520]
	cbz	r2, .L1758
	movs	r2, #0
	str	r2, [r3, #520]
.L1758:
	ldr	r5, .L1771+4
	movs	r0, #0
	bl	ftl_total_vpn_update
	mov	r4, r5
.L1767:
	ldr	r3, [r5]
	ldr	r2, [r3, #56]
	adds	r2, r2, #1
	str	r2, [r3, #56]
	ldrh	r2, [r3, #140]
	ldr	r3, .L1771+8
	ldrh	r3, [r3]
	cmp	r2, r3
	bcc	.L1759
	bl	ftl_ext_alloc_new_blk
.L1759:
	ldr	r0, [r4]
	movw	r3, #65535
	ldrh	r1, [r0, #130]
	cmp	r1, r3
	bne	.L1760
	mov	r2, #1048
	ldr	r1, .L1771+12
	ldr	r0, .L1771+16
	bl	printf
.L1761:
	b	.L1761
.L1760:
	ldr	r3, .L1771+20
	movs	r7, #0
	ldr	fp, .L1771+32
	ldr	r10, .L1771+36
	ldrh	r3, [r3]
	rsb	r2, r3, #21
	movs	r3, #1
	asr	r6, r1, r2
	lsls	r3, r3, r2
	ldr	r2, .L1771+24
	subs	r3, r3, #1
	ands	r3, r3, r1
	movs	r1, #0
	ldrh	r8, [r2]
	ldrh	r2, [r0, #140]
	mov	r0, r10
	smlabb	r3, r8, r3, r2
	ldrb	r2, [fp]	@ zero_extendqisi2
	uxth	r8, r3
	lsls	r2, r2, #1
	bl	ftl_memset
	ldr	r3, [r4]
	mov	r1, r8
	ldr	r2, .L1771+28
	uxtb	r0, r6
	str	r7, [r10]
	ldr	r3, [r3, #56]
	str	r3, [r10, #4]
	ldrb	r3, [fp]	@ zero_extendqisi2
	str	r3, [sp]
	mov	r3, r10
	bl	ftl_prog_page
	ldr	r2, [r4]
	ldrh	r3, [r2, #140]
	adds	r3, r3, #1
	uxth	r3, r3
	cmp	r3, #1
	strh	r3, [r2, #140]	@ movhi
	beq	.L1767
	adds	r0, r0, #1
	beq	.L1767
	mov	r0, r7
	add	sp, sp, #8
	@ sp needed
	pop	{r4, r5, r6, r7, r8, r10, fp, pc}
.L1772:
	.align	2
.L1771:
	.word	.LANCHOR60
	.word	.LANCHOR46
	.word	.LANCHOR79
	.word	.LANCHOR134
	.word	.LC0
	.word	.LANCHOR71
	.word	.LANCHOR75
	.word	ftl_ext_info_data_buffer
	.word	.LANCHOR45
	.word	.LANCHOR130
	.size	ftl_ext_info_flush, .-ftl_ext_info_flush
	.section	.text.ftl_ext_info_init,"ax",%progbits
	.align	1
	.global	ftl_ext_info_init
	.syntax unified
	.thumb
	.thumb_func
	.fpu softvfp
	.type	ftl_ext_info_init, %function
ftl_ext_info_init:
	@ args = 0, pretend = 0, frame = 0
	@ frame_needed = 0, uses_anonymous_args = 0
	push	{r0, r1, r4, r5, r6, r7, r8, r10, fp, lr}
	movs	r2, #0
	ldr	r3, .L1790
	ldr	r5, .L1790+4
	strh	r2, [r3]	@ movhi
	ldr	r2, .L1790+8
	ldr	r3, [r5]
	mov	r10, r5
	ldrh	r4, [r3, #130]
	ldr	r3, .L1790+12
	ubfx	r8, r4, #0, #14
	ldrh	r3, [r3]
	mov	r1, r8
	rsb	r3, r3, #21
	asrs	r4, r4, r3
	movs	r3, #4
	str	r3, [sp]
	uxtb	r4, r4
	ldr	r3, .L1790+16
	mov	r0, r4
	bl	flash_get_last_written_page
	ldr	r3, .L1790+20
	mov	r6, r0
	ldr	r3, [r3]
	tst	r3, #4096
	beq	.L1774
	mov	r3, r0
	movw	r2, #1091
	ldr	r1, .L1790+24
	ldr	r0, .L1790+28
	bl	printf
.L1774:
	ldr	fp, .L1790+48
	movs	r7, #0
.L1775:
	uxth	r5, r6
	subs	r3, r5, r7
	lsls	r3, r3, #16
	bmi	.L1780
	ldr	r3, .L1790+32
	subs	r1, r6, r7
	ldr	r2, .L1790+8
	ldrh	r0, [r3]
	ldr	r3, .L1790+36
	ldrb	r3, [r3]	@ zero_extendqisi2
	mla	r1, r8, r0, r1
	mov	r0, r4
	str	r3, [sp]
	ldr	r3, .L1790+16
	bl	flash_read_page_en
	adds	r2, r0, #1
	beq	.L1776
	cmp	r0, #512
	beq	.L1776
	ldr	r3, .L1790+40
	ldr	r3, [r3]
	ldr	r3, [r3]
	cmp	r3, fp
	bne	.L1776
.L1780:
	ldr	r3, [r10]
	ldrh	r2, [r3, #140]
	cmp	r2, r6
	bgt	.L1778
	adds	r5, r5, #1
	strh	r5, [r3, #140]	@ movhi
	bl	ftl_ext_info_flush
.L1778:
	ldr	r3, .L1790+40
	movs	r0, #0
	movw	r2, #65535
	ldr	r3, [r3]
	str	r0, [r3, #520]
	ldr	r3, .L1790+44
	strh	r2, [r3]	@ movhi
	add	sp, sp, #8
	@ sp needed
	pop	{r4, r5, r6, r7, r8, r10, fp, pc}
.L1776:
	adds	r7, r7, #1
	b	.L1775
.L1791:
	.align	2
.L1790:
	.word	.LANCHOR86
	.word	.LANCHOR46
	.word	ftl_ext_info_data_buffer
	.word	.LANCHOR71
	.word	.LANCHOR130
	.word	.LANCHOR22
	.word	.LANCHOR135
	.word	.LC28
	.word	.LANCHOR75
	.word	.LANCHOR45
	.word	.LANCHOR60
	.word	.LANCHOR87
	.word	1162432070
	.size	ftl_ext_info_init, .-ftl_ext_info_init
	.section	.text.ftl_low_format,"ax",%progbits
	.align	1
	.global	ftl_low_format
	.syntax unified
	.thumb
	.thumb_func
	.fpu softvfp
	.type	ftl_low_format, %function
ftl_low_format:
	@ args = 0, pretend = 0, frame = 32
	@ frame_needed = 0, uses_anonymous_args = 0
	push	{r4, r5, r6, r7, r8, r10, fp, lr}
	movs	r4, #8
	ldr	r5, .L1829
	sub	sp, sp, #40
.L1796:
	ldr	r3, [r5]
	add	r3, r3, r4
	ldrb	r3, [r3, #32]	@ zero_extendqisi2
	cmp	r3, #128
	ble	.L1793
	cmp	r3, #255
	beq	.L1794
	movw	r2, #1228
	ldr	r1, .L1829+4
	ldr	r0, .L1829+8
	bl	printf
.L1795:
	b	.L1795
.L1793:
	ldr	r2, .L1829+12
	movs	r0, #0
	ldrh	r1, [r2]
	muls	r1, r3, r1
	bl	flash_erase_block
.L1794:
	adds	r4, r4, #1
	cmp	r4, #16
	bne	.L1796
	ldr	r4, .L1829+16
	mov	r10, #0
	bl	sblk_init
	bl	ftl_info_blk_init
	mov	r2, #16384
	movs	r1, #0
	ldr	r0, .L1829+20
	bl	ftl_memset
	ldr	r3, [r4]
	ldr	r2, .L1829+24
	str	r2, [r3]
.L1797:
	ldr	r3, .L1829+28
	uxth	r0, r10
	ldr	r6, .L1829+32
	ldrh	r3, [r3]
	cmp	r3, r0
	bhi	.L1804
	ldr	r7, .L1829+36
	mov	r2, #16384
	movs	r1, #0
	ldr	r0, .L1829+40
	bl	ftl_memset
	ldr	r3, [r7]
	ldr	r2, .L1829+44
	str	r2, [r3]
	ldr	r3, .L1829+48
	ldrb	r8, [r3]	@ zero_extendqisi2
	ldr	r3, .L1829
	mov	r1, r8
	ldr	r3, [r3]
	ldrb	r0, [r3, #47]	@ zero_extendqisi2
	bl	__aeabi_uidiv
	ldr	ip, [r6]
	uxtb	r0, r0
	cmp	r8, #1
	str	r7, [sp, #8]
	add	r5, r0, #1
	mov	r3, #0
	ite	eq
	moveq	r0, #1
	movne	r0, #3
.L1805:
	add	r1, ip, r3, lsl #2
	adds	r3, r3, #1
	ldrb	r2, [r1, #2]	@ zero_extendqisi2
	strb	r0, [r1, #3]
	orn	r2, r2, #31
	bfc	r2, #3, #2
	strb	r2, [r1, #2]
	uxth	r2, r3
	cmp	r5, r2
	bhi	.L1805
	mov	r1, r8
	movs	r0, #16
	bl	__aeabi_idiv
	ldr	r3, [r4]
	add	r0, r0, r5
	uxth	r0, r0
	strh	r0, [r3, #134]	@ movhi
	ldr	r3, .L1829+52
	ldr	r3, [r3]
	lsls	r3, r3, #19
	bpl	.L1806
	str	r0, [sp]
	mov	r3, r5
	movs	r2, #128
	movw	r1, #1265
	ldr	r0, .L1829+56
	bl	printf
.L1806:
	ldr	r0, [r4]
	movs	r2, #128
	movs	r1, #255
	adds	r0, r0, #160
	bl	ftl_memset
	ldr	r3, [r6]
	ldr	r0, [r4]
	str	r3, [sp, #24]
	ldr	r3, .L1829+60
	ldrh	ip, [r0, #134]
	ldrb	r3, [r3]	@ zero_extendqisi2
	str	r3, [sp, #28]
	ldr	r3, .L1829+48
	ldrb	fp, [r3]	@ zero_extendqisi2
	uxth	r3, fp
	str	r3, [sp, #16]
	ldrh	r3, [sp, #16]
	smulbb	r2, r5, r3
	ldr	r3, .L1829+64
	ldrh	r1, [r3]
	uxth	r2, r2
	str	r3, [sp, #36]
	rsb	r6, r1, #21
	movs	r1, #1
	lsls	r1, r1, r6
	movs	r6, #0
	uxth	r1, r1
	str	r1, [sp, #32]
.L1807:
	cmp	r5, ip
	bcc	.L1813
	ldr	r3, .L1829+28
	mov	r2, ip
	mov	lr, #1
	ldrh	r1, [r3]
	ldr	r3, [sp, #24]
	add	r3, r3, ip, lsl #2
.L1814:
	cmp	r2, r1
	bcc	.L1815
	sub	ip, r1, ip
	movs	r5, #0
	strh	ip, [r0, #116]	@ movhi
	strh	r6, [r0, #112]	@ movhi
	strh	r5, [r0, #114]	@ movhi
	strh	r5, [r0, #118]	@ movhi
	movs	r0, #1
	bl	ftl_alloc_sblk
	mov	r1, r5
	mov	r6, r0
	bl	ftl_erase_sblk
	ldr	r1, [r4]
	mov	r0, r6
	add	r1, r1, #672
	bl	ftl_get_blk_list_in_sblk
	ldr	r0, [r4]
	movw	r2, #65533
	ldrh	r8, [r0, #672]
	strh	r5, [r0, #690]	@ movhi
	add	r3, r8, #-1
	uxth	r3, r3
	cmp	r3, r2
	bls	.L1816
	movw	r2, #1297
	ldr	r1, .L1829+4
	ldr	r0, .L1829+8
	bl	printf
.L1817:
	b	.L1817
.L1804:
	ldr	r3, .L1829+68
	strh	r0, [r3]	@ movhi
	bl	ftl_test_block
	ldr	r3, .L1829+60
	uxth	r1, r10
	ldr	r5, [r6]
	movs	r6, #0
	mov	fp, r6
	mov	r7, r6
	ldrb	r3, [r3]	@ zero_extendqisi2
	add	r5, r5, r1, lsl #2
	str	r3, [sp, #8]
	ldr	r3, .L1829+48
	ldrb	r3, [r3]	@ zero_extendqisi2
	uxth	r2, r3
	str	r2, [sp, #12]
	mul	r2, r3, r1
.L1798:
	ldr	r0, [sp, #8]
	uxth	r1, fp
	cmp	r0, r1
	bhi	.L1818
	cbnz	r7, .L1803
	ldrb	r3, [r5, #2]	@ zero_extendqisi2
	orr	r3, r3, #224
	strb	r3, [r5, #2]
.L1803:
	add	r10, r10, #1
	b	.L1797
.L1801:
	add	r1, r8, r2
	ldr	r0, [sp, #16]
	str	r3, [sp, #24]
	str	r2, [sp, #20]
	bl	flash_check_bad_block
	ldr	r2, [sp, #20]
	ldr	r3, [sp, #24]
	cbz	r0, .L1799
	ldrb	r0, [r5, #3]	@ zero_extendqisi2
	movs	r1, #1
	lsl	r1, r1, r8
	orrs	r1, r1, r0
	strb	r1, [r5, #3]
.L1800:
	add	r8, r8, #1
.L1802:
	sub	r1, r8, r6
	ldr	r0, [sp, #12]
	uxth	r1, r1
	cmp	r0, r1
	bhi	.L1801
	add	fp, fp, #1
	add	r6, r6, r3
	subs	r2, r2, r3
	b	.L1798
.L1799:
	adds	r7, r7, #1
	uxth	r7, r7
	b	.L1800
.L1818:
	uxtb	r1, fp
	mov	r8, r6
	str	r1, [sp, #16]
	b	.L1802
.L1813:
	ldr	r3, [sp, #24]
	add	r3, r3, r5, lsl #2
	str	r3, [sp, #12]
	ldrb	r3, [r3, #2]	@ zero_extendqisi2
	ldr	r1, [sp, #12]
	orn	r3, r3, #31
	bfc	r3, #3, #2
	strb	r3, [r1, #2]
	movs	r1, #0
	mov	r8, r1
	str	r1, [sp, #20]
.L1808:
	ldrh	r3, [sp, #20]
	ldr	r7, [sp, #28]
	cmp	r7, r3
	bhi	.L1820
	ldr	r3, [sp, #16]
	adds	r5, r5, #1
	uxth	r5, r5
	add	r2, r2, r3
	uxth	r2, r2
	b	.L1807
.L1811:
	ldr	r7, [sp, #12]
	ldrb	r10, [r7, #3]	@ zero_extendqisi2
	add	r7, lr, r8
	asr	r10, r10, r7
	tst	r10, #1
	bne	.L1809
	cmp	fp, #1
	add	r10, r6, #80
	it	hi
	andhi	r3, r3, #1
	add	r6, r6, #1
	it	hi
	addhi	r3, r3, r2
	uxth	r6, r6
	ite	hi
	uxthhi	r3, r3
	movls	r3, r2
	add	r3, r3, r1
	strh	r3, [r0, r10, lsl #1]	@ movhi
.L1809:
	add	lr, lr, #1
.L1812:
	ldr	r7, [sp, #16]
	uxth	r3, lr
	cmp	r3, r7
	bcc	.L1811
	ldr	r3, [sp, #20]
	add	r8, r8, fp
	adds	r3, r3, #1
	str	r3, [sp, #20]
	ldr	r3, [sp, #32]
	add	r1, r1, r3
	uxth	r1, r1
	b	.L1808
.L1820:
	mov	lr, #0
	b	.L1812
.L1815:
	ldrb	r5, [r3, #2]	@ zero_extendqisi2
	adds	r2, r2, #1
	uxth	r2, r2
	adds	r3, r3, #4
	and	r5, r5, #31
	bfi	r5, lr, #3, #2
	strb	r5, [r3, #-2]
	b	.L1814
.L1830:
	.align	2
.L1829:
	.word	.LANCHOR5
	.word	.LANCHOR136
	.word	.LC0
	.word	.LANCHOR75
	.word	.LANCHOR46
	.word	ftl_info_data_buffer
	.word	1229739078
	.word	.LANCHOR54
	.word	.LANCHOR57
	.word	.LANCHOR60
	.word	ftl_ext_info_data_buffer
	.word	1162432070
	.word	.LANCHOR70
	.word	.LANCHOR22
	.word	.LC67
	.word	.LANCHOR76
	.word	.LANCHOR71
	.word	.LANCHOR53
.L1816:
	strh	r5, [r0, #696]	@ movhi
	movs	r1, #255
	mov	r2, #256
	add	r0, r0, #416
	bl	ftl_memset
	ldr	r2, [sp, #36]
	ldr	r3, [r4]
	ldrh	r2, [r2]
	strh	r8, [r3, #692]	@ movhi
	strh	r6, [r3, #416]	@ movhi
	rsb	r2, r2, #21
	asr	r2, r8, r2
	strh	r2, [r3, #694]	@ movhi
	movs	r2, #1
	strh	r2, [r3, #688]	@ movhi
	ldr	r2, .L1831
	ldrh	r2, [r2]
	strh	r2, [r3, #698]	@ movhi
	bl	ftl_alloc_sys_blk
	mov	r1, r5
	mov	r6, r0
	bl	ftl_erase_phy_blk
	ldr	r3, [r4]
	movs	r1, #2
	strh	r6, [r3, #130]	@ movhi
	ldr	r3, [sp, #8]
	ldr	r0, [r3]
	adds	r0, r0, #16
	bl	ftl_open_sblk_init
	ldr	r3, [sp, #8]
	movs	r1, #3
	ldr	r0, [r3]
	adds	r0, r0, #48
	bl	ftl_open_sblk_init
	ldr	r3, [sp, #8]
	movs	r1, #255
	ldr	r0, [r3]
	ldr	r3, [r4]
	adds	r0, r0, #136
	ldrh	r2, [r3, #134]
	strh	r5, [r0, #-12]	@ movhi
	strh	r5, [r0, #-16]	@ movhi
	strh	r2, [r0, #-10]	@ movhi
	movw	r2, #65535
	strh	r2, [r0, #-56]	@ movhi
	strh	r2, [r0, #-6]	@ movhi
	mov	r2, #-1
	strh	r5, [r0, #-14]	@ movhi
	str	r2, [r0, #408]
	strh	r2, [r3, #126]	@ movhi
	mov	r2, #256
	bl	ftl_memset
	ldr	r3, [sp, #8]
	movs	r2, #128
	movs	r1, #255
	ldr	r0, [r3]
	add	r0, r0, #392
	bl	ftl_memset
	bl	ftl_ext_info_flush
	mov	r0, r5
	bl	ftl_info_flush
	bl	ftl_info_blk_init
	mov	r0, r5
	add	sp, sp, #40
	@ sp needed
	pop	{r4, r5, r6, r7, r8, r10, fp, pc}
.L1832:
	.align	2
.L1831:
	.word	.LANCHOR137
	.size	ftl_low_format, .-ftl_low_format
	.section	.text.ftl_re_low_format_test,"ax",%progbits
	.align	1
	.global	ftl_re_low_format_test
	.syntax unified
	.thumb
	.thumb_func
	.fpu softvfp
	.type	ftl_re_low_format_test, %function
ftl_re_low_format_test:
	@ args = 0, pretend = 0, frame = 0
	@ frame_needed = 0, uses_anonymous_args = 0
	push	{r4, r5, r6, r7, r8, lr}
	movs	r1, #1
	ldr	r5, .L1841
	ldr	r0, .L1841+4
	bl	printf
	bl	sblk_init
	bl	ftl_info_blk_init
	bl	ftl_ext_info_init
	ldr	r2, .L1841+8
	ldr	r3, [r5]
	ldr	r6, .L1841+12
	ldr	r0, [r2]
	movs	r2, #0
	ldrh	r1, [r3, #134]
	mov	r7, r2
	ldrh	lr, [r6]
	mov	ip, r2
	add	r0, r0, r1, lsl #2
.L1834:
	cmp	r1, lr
	bcc	.L1838
	movs	r4, #0
	strh	r7, [r3, #118]	@ movhi
	strh	r2, [r3, #116]	@ movhi
	movs	r0, #1
	strh	ip, [r3, #114]	@ movhi
	strh	r4, [r3, #122]	@ movhi
	strh	r4, [r3, #120]	@ movhi
	strh	r4, [r3, #124]	@ movhi
	bl	ftl_alloc_sblk
	mov	r1, r4
	mov	r8, r0
	bl	ftl_erase_sblk
	ldr	r1, [r5]
	mov	r0, r8
	add	r1, r1, #672
	bl	ftl_get_blk_list_in_sblk
	ldr	r0, [r5]
	movw	r2, #65533
	ldrh	r7, [r0, #672]
	strh	r4, [r0, #690]	@ movhi
	subs	r3, r7, #1
	uxth	r3, r3
	cmp	r3, r2
	bls	.L1839
	movw	r2, #1366
	ldr	r1, .L1841+16
	ldr	r0, .L1841+20
	bl	printf
.L1840:
	b	.L1840
.L1838:
	ldrb	r4, [r0, #2]	@ zero_extendqisi2
	bfc	r4, #5, #3
	strb	r4, [r0, #2]
	ands	r4, r4, #24
	bne	.L1835
	add	ip, ip, #1
	uxth	ip, ip
.L1836:
	adds	r1, r1, #1
	uxth	r1, r1
	adds	r0, r0, #4
	b	.L1834
.L1835:
	cmp	r4, #16
	itete	eq
	addeq	r7, r7, #1
	addne	r2, r2, #1
	uxtheq	r7, r7
	uxthne	r2, r2
	b	.L1836
.L1839:
	strh	r4, [r0, #696]	@ movhi
	mov	r2, #256
	movs	r1, #255
	add	r0, r0, #416
	bl	ftl_memset
	ldr	r0, [r5]
	mov	r1, r4
	mov	r2, #4096
	add	r0, r0, #704
	bl	ftl_memset
	ldr	r3, [r5]
	lsrs	r2, r7, #14
	ubfx	r7, r7, #0, #14
	mov	r1, r4
	strh	r2, [r3, #694]	@ movhi
	movs	r2, #1
	strh	r2, [r3, #688]	@ movhi
	ldr	r2, .L1841+24
	strh	r7, [r3, #692]	@ movhi
	strh	r8, [r3, #416]	@ movhi
	ldrh	r2, [r2]
	strh	r2, [r3, #698]	@ movhi
	ldrh	r2, [r6]
	ldr	r3, .L1841+28
	ldr	r6, .L1841+32
	lsls	r2, r2, #1
	ldr	r0, [r3]
	bl	ftl_memset
	ldr	r0, [r6]
	movs	r1, #2
	adds	r0, r0, #16
	bl	ftl_open_sblk_init
	ldr	r0, [r6]
	movs	r1, #3
	adds	r0, r0, #48
	bl	ftl_open_sblk_init
	ldr	r3, [r5]
	movs	r1, #255
	ldr	r0, [r6]
	ldrh	r2, [r3, #134]
	adds	r0, r0, #136
	strh	r4, [r0, #-12]	@ movhi
	strh	r4, [r0, #-16]	@ movhi
	strh	r2, [r0, #-10]	@ movhi
	movw	r2, #65535
	strh	r2, [r0, #-56]	@ movhi
	strh	r2, [r0, #-6]	@ movhi
	mov	r2, #-1
	strh	r4, [r0, #-14]	@ movhi
	str	r2, [r0, #408]
	strh	r2, [r3, #126]	@ movhi
	mov	r2, #256
	bl	ftl_memset
	ldr	r0, [r6]
	movs	r2, #128
	movs	r1, #255
	add	r0, r0, #392
	bl	ftl_memset
	ldr	r3, [r6]
	str	r4, [r3, #520]
	str	r4, [r3, #524]
	str	r4, [r3, #528]
	bl	ftl_ext_info_flush
	mov	r0, r4
	bl	ftl_info_flush
	bl	ftl_info_blk_init
	mov	r0, r4
	pop	{r4, r5, r6, r7, r8, pc}
.L1842:
	.align	2
.L1841:
	.word	.LANCHOR46
	.word	.LC68
	.word	.LANCHOR57
	.word	.LANCHOR54
	.word	.LANCHOR138
	.word	.LC0
	.word	.LANCHOR137
	.word	.LANCHOR56
	.word	.LANCHOR60
	.size	ftl_re_low_format_test, .-ftl_re_low_format_test
	.section	.text.ftl_prog_ppa_page,"ax",%progbits
	.align	1
	.global	ftl_prog_ppa_page
	.syntax unified
	.thumb
	.thumb_func
	.fpu softvfp
	.type	ftl_prog_ppa_page, %function
ftl_prog_ppa_page:
	@ args = 0, pretend = 0, frame = 0
	@ frame_needed = 0, uses_anonymous_args = 0
	push	{r0, r1, r2, lr}
	str	r3, [sp]
	mov	r3, r2
	mov	r2, r1
	ubfx	r1, r0, #0, #21
	ubfx	r0, r0, #21, #3
	bl	ftl_prog_page
	add	sp, sp, #12
	@ sp needed
	ldr	pc, [sp], #4
	.size	ftl_prog_ppa_page, .-ftl_prog_ppa_page
	.section	.text.ftl_write_last_log_page,"ax",%progbits
	.align	1
	.global	ftl_write_last_log_page
	.syntax unified
	.thumb
	.thumb_func
	.fpu softvfp
	.type	ftl_write_last_log_page, %function
ftl_write_last_log_page:
	@ args = 0, pretend = 0, frame = 0
	@ frame_needed = 0, uses_anonymous_args = 0
	push	{r3, r4, r5, r6, r7, lr}
	mov	r5, r0
	ldrh	r3, [r0, #6]
	cmp	r3, #1
	bne	.L1846
	ldr	r3, .L1848
	ldrh	r7, [r0, #12]
	ldr	r4, [r3]
	bl	ftl_get_new_free_page
	adds	r3, r0, #1
	mov	r6, r0
	beq	.L1847
	ldrh	r0, [r5]
	add	r4, r4, r7, lsl #2
	ldr	r5, .L1848+4
	bl	ftl_vpn_decrement
	ldr	r3, .L1848+8
	mov	r0, r4
	ldr	r2, .L1848+12
	str	r3, [r5]
	ldr	r3, .L1848+16
	ldrb	r1, [r2]	@ zero_extendqisi2
	ldrh	r3, [r3]
	muls	r1, r3, r1
	lsls	r1, r1, #2
	bl	js_hash
	ldr	r3, .L1848+20
	mov	r2, r5
	str	r0, [r5, #4]
	mov	r1, r4
	mov	r0, r6
	ldrb	r3, [r3]	@ zero_extendqisi2
	bl	ftl_prog_ppa_page
.L1847:
	movs	r0, #0
	pop	{r3, r4, r5, r6, r7, pc}
.L1846:
	mov	r0, #-1
	pop	{r3, r4, r5, r6, r7, pc}
.L1849:
	.align	2
.L1848:
	.word	.LANCHOR82
	.word	.LANCHOR121
	.word	-178307901
	.word	.LANCHOR69
	.word	.LANCHOR79
	.word	.LANCHOR45
	.size	ftl_write_last_log_page, .-ftl_write_last_log_page
	.section	.text.ftl_open_sblk_recovery,"ax",%progbits
	.align	1
	.global	ftl_open_sblk_recovery
	.syntax unified
	.thumb
	.thumb_func
	.fpu softvfp
	.type	ftl_open_sblk_recovery, %function
ftl_open_sblk_recovery:
	@ args = 0, pretend = 0, frame = 16
	@ frame_needed = 0, uses_anonymous_args = 0
	ldr	r3, .L1922
	push	{r4, r5, r6, r7, r8, r10, fp, lr}
	sub	sp, sp, #56
	mov	r4, r0
	str	r1, [sp, #52]
	mov	r10, r3
	ldr	r2, [r3]
	tst	r2, #4096
	beq	.L1851
	ldrh	r1, [r0, #2]
	ldr	r0, .L1922+4
	bl	printf
.L1851:
	ldr	r3, [r10]
	lsls	r0, r3, #19
	bpl	.L1852
	ldrb	r1, [r4, #5]	@ zero_extendqisi2
	ldr	r0, .L1922+8
	bl	printf
.L1852:
	ldr	r3, [r10]
	lsls	r1, r3, #19
	bpl	.L1853
	ldrh	r1, [r4]
	ldr	r0, .L1922+12
	bl	printf
.L1853:
	ldr	r3, [r10]
	lsls	r2, r3, #19
	bpl	.L1854
	ldrh	r2, [r4, #18]
	ldrh	r1, [r4, #16]
	ldr	r0, .L1922+16
	bl	printf
.L1854:
	ldrh	r3, [r4, #10]
	movs	r0, #1
	strh	r3, [r4, #14]	@ movhi
	bl	buf_alloc
	ldrh	r3, [r4, #2]
	mov	r5, r0
	ldrb	fp, [r4, #5]	@ zero_extendqisi2
	str	r3, [sp, #44]
	movs	r3, #0
	str	r3, [sp, #48]
.L1855:
	ldr	r3, .L1922+20
	ldr	r2, [sp, #44]
	ldrh	r3, [r3]
	cmp	r3, r2
	bhi	.L1870
.L1858:
	ldrh	r3, [sp, #44]
	movs	r7, #0
	ldr	r6, .L1922+24
	mov	r2, r7
	ldrh	r0, [r4, #10]
	strh	r3, [r4, #2]	@ movhi
	ldr	r3, [r6]
	strb	fp, [r4, #5]
.L1871:
	cmp	r2, r0
	bcc	.L1873
	ldr	r2, .L1922+20
	ldrb	r3, [r4, #9]	@ zero_extendqisi2
	ldr	r8, .L1922+72
	ldrh	r2, [r2]
	smulbb	r3, r3, r2
	subs	r3, r3, r0
	add	r7, r7, r3
	ldr	r3, [r10]
	uxth	r7, r7
	tst	r3, #4096
	beq	.L1874
	ldrh	r1, [r4]
	mov	r2, r7
	ldr	r3, [r8]
	ldr	r0, .L1922+28
	ldrh	r3, [r3, r1, lsl #1]
	bl	printf
.L1874:
	ldrh	r2, [r4]
	mov	r0, r5
	ldr	r3, [r8]
	ldr	fp, .L1922+76
	strh	r7, [r3, r2, lsl #1]	@ movhi
	movs	r7, #0
	bl	buf_free
.L1875:
	ldr	r3, .L1922+32
	ldrb	r3, [r3]	@ zero_extendqisi2
	cmp	r7, r3, lsl #1
	bcc	.L1878
	ldr	r3, .L1922+20
	ldrh	r2, [r4, #12]
	ldrb	r1, [r4, #9]	@ zero_extendqisi2
	ldrh	r3, [r3]
	mla	r3, r1, r3, r2
	ldr	r2, [r6]
	add	r3, r3, #1073741824
	subs	r3, r3, #1
	ldr	r3, [r2, r3, lsl #2]
	adds	r3, r3, #1
	beq	.L1879
	movw	r2, #811
	ldr	r1, .L1922+36
	ldr	r0, .L1922+40
	bl	printf
.L1880:
	b	.L1880
.L1870:
	ldrb	fp, [r4, #5]	@ zero_extendqisi2
.L1856:
	ldrb	r3, [r4, #9]	@ zero_extendqisi2
	cmp	r3, fp
	bhi	.L1869
	movs	r3, #0
	strb	r3, [r4, #5]
	ldr	r3, [sp, #44]
	adds	r3, r3, #1
	uxth	r3, r3
	str	r3, [sp, #44]
	b	.L1855
.L1869:
	add	r3, fp, #8
	ldrh	r8, [r4, r3, lsl #1]
	movw	r3, #65535
	cmp	r8, r3
	beq	.L1857
	ldr	r3, .L1922+44
	ldr	r2, [r5, #12]
	ldr	r1, [r5, #4]
	ldrh	r6, [r3]
	ldr	r3, [sp, #44]
	mla	r6, r8, r6, r3
	ldr	r3, .L1922+48
	ldrb	r3, [r3]	@ zero_extendqisi2
	mov	r0, r6
	bl	ftl_read_ppa_page
	cmp	r0, #512
	mov	r7, r0
	beq	.L1858
	ldr	r3, [r10]
	lsls	r3, r3, #19
	bpl	.L1859
	ldr	r2, [r5, #12]
	ldr	r3, [r5, #4]
	ldr	r1, [r2, #12]
	str	r1, [sp, #32]
	ldr	r1, [r2, #8]
	str	r1, [sp, #28]
	ldr	r1, [r2, #4]
	str	r1, [sp, #24]
	mov	r1, r8
	ldr	r2, [r2]
	str	r2, [sp, #20]
	ldr	r2, [r3, #12]
	str	r2, [sp, #16]
	ldr	r2, [r3, #8]
	str	r2, [sp, #12]
	ldr	r2, [r3, #4]
	str	r2, [sp, #8]
	ldr	r3, [r3]
	ldr	r2, [sp, #44]
	str	r0, [sp]
	str	r3, [sp, #4]
	mov	r3, r6
	ldr	r0, .L1922+52
	bl	printf
.L1859:
	ldr	r3, .L1922+56
	mov	r8, #1
	ldr	r2, [sp, #44]
	ldrh	r1, [r4, #10]
	strb	r8, [r3]
	ldrb	r3, [r4, #9]	@ zero_extendqisi2
	mla	r2, r3, r2, fp
	cmp	r1, r2
	beq	.L1860
	movw	r2, #707
	ldr	r1, .L1922+36
	ldr	r0, .L1922+40
	bl	printf
.L1861:
	b	.L1861
.L1860:
	ldrh	r2, [r4, #6]
	add	r2, r2, r1
	ldr	r1, .L1922+20
	ldrh	r1, [r1]
	muls	r3, r1, r3
	cmp	r2, r3
	beq	.L1862
	mov	r2, #708
	ldr	r1, .L1922+36
	ldr	r0, .L1922+40
	bl	printf
.L1863:
	b	.L1863
.L1862:
	adds	r7, r7, #1
	beq	.L1865
	ldr	r7, [r5, #12]
	ldr	r0, [r7, #4]
	adds	r6, r0, #1
	beq	.L1865
	bl	lpa_hash_get_ppa
	ldr	r3, [sp, #52]
	mov	r6, r0
	cmp	r3, #0
	beq	.L1867
	ldr	r3, [r7, #8]
	cmp	r0, r3
	beq	.L1867
	adds	r1, r0, #1
	beq	.L1867
	ldr	r3, .L1922+60
	ldrh	r0, [r3]
	rsb	r3, r0, #21
	lsl	r8, r8, r3
	ldr	r3, .L1922+64
	lsr	r0, r6, r0
	add	r8, r8, #-1
	ldrb	r1, [r3]	@ zero_extendqisi2
	and	r0, r8, r0
	bl	__aeabi_uidiv
	ldr	r3, [sp, #52]
	uxth	r0, r0
	ldrh	r3, [r3]
	cmp	r3, r0
	bne	.L1867
	ldr	r8, [r7]
	mov	r0, r6
	ldr	r7, .L1922+68
	ldr	r3, .L1922+48
	ldr	r1, [r5, #4]
	mov	r2, r7
	ldrb	r3, [r3]	@ zero_extendqisi2
	bl	ftl_read_ppa_page
	ldr	r3, [r7]
	cmp	r8, r3
	bhi	.L1867
	ldr	r3, [r5, #12]
	ldr	r0, [r3, #8]
	adds	r2, r0, #1
	beq	.L1865
	ldr	r3, .L1922+60
	ldrh	r2, [r3]
	movs	r3, #1
	rsb	r1, r2, #21
	lsls	r3, r3, r1
	lsrs	r0, r0, r2
	ldr	r2, .L1922+64
	subs	r3, r3, #1
	ands	r0, r0, r3
	ldrb	r1, [r2]	@ zero_extendqisi2
	bl	__aeabi_uidiv
	uxth	r0, r0
	bl	ftl_vpn_decrement
.L1865:
	ldrh	r3, [r4, #6]
	subs	r3, r3, #1
	strh	r3, [r4, #6]	@ movhi
	ldrh	r3, [r4, #10]
	adds	r3, r3, #1
	strh	r3, [r4, #10]	@ movhi
	movs	r3, #1
	str	r3, [sp, #48]
.L1857:
	add	fp, fp, #1
	uxth	fp, fp
	b	.L1856
.L1873:
	ldrh	r1, [r4, #12]
	add	r1, r1, r2
	adds	r2, r2, #1
	ldr	r1, [r3, r1, lsl #2]
	adds	r1, r1, #1
	itt	ne
	addne	r7, r7, #1
	uxthne	r7, r7
	b	.L1871
.L1923:
	.align	2
.L1922:
	.word	.LANCHOR22
	.word	.LC69
	.word	.LC70
	.word	.LC71
	.word	.LC72
	.word	.LANCHOR79
	.word	.LANCHOR82
	.word	.LC74
	.word	.LANCHOR69
	.word	.LANCHOR139
	.word	.LC0
	.word	.LANCHOR75
	.word	.LANCHOR45
	.word	.LC73
	.word	.LANCHOR133
	.word	.LANCHOR71
	.word	.LANCHOR70
	.word	.LANCHOR130
	.word	.LANCHOR56
	.word	.LANCHOR46
.L1878:
	ldr	r3, [sp, #48]
	cbz	r3, .L1876
	ldrh	r3, [r4, #6]
	cmp	r3, #1
	bls	.L1876
	mov	r0, r4
	bl	ftl_get_new_free_page
	ldr	r3, [r10]
	mov	r8, r0
	lsls	r3, r3, #19
	bpl	.L1877
	mov	r1, r0
	ldr	r0, .L1924
	bl	printf
.L1877:
	ldr	r3, [fp]
	mov	r0, r8
	ldr	r2, [r5, #12]
	ldr	r1, [r5, #4]
	ldr	r3, [r3, #8]
	str	r3, [r2]
	mov	r3, #-1
	str	r3, [r2, #4]
	str	r3, [r2, #8]
	movs	r3, #0
	str	r3, [r2, #12]
	str	r3, [r1]
	ldr	r3, .L1924+4
	ldrb	r3, [r3]	@ zero_extendqisi2
	bl	ftl_prog_ppa_page
	ldrh	r0, [r4]
	bl	ftl_vpn_decrement
.L1876:
	adds	r7, r7, #1
	b	.L1875
.L1879:
	ldrh	r3, [r4, #6]
	cmp	r3, #1
	bne	.L1850
	mov	r0, r4
	add	sp, sp, #56
	@ sp needed
	pop	{r4, r5, r6, r7, r8, r10, fp, lr}
	b	ftl_write_last_log_page
.L1867:
	ldr	r0, [r5, #12]
	ldr	r3, .L1924+8
	ldr	r2, [r0, #4]
	ldr	r3, [r3]
	cmp	r2, r3
	bcs	.L1865
	ldr	r3, .L1924+12
	ldrb	r1, [r4, #9]	@ zero_extendqisi2
	ldrh	r2, [r4, #10]
	ldrh	r3, [r3]
	muls	r3, r1, r3
	subs	r3, r3, #1
	cmp	r2, r3
	bge	.L1865
	ldr	r3, .L1924+16
	ldr	r6, [r0]
	ldr	r3, [r3]
	ldr	r1, [r3, #8]
	cmp	r6, r1
	it	hi
	strhi	r6, [r3, #8]
	ldrh	r3, [r4, #12]
	ldr	r1, [r0, #8]
	ldr	r0, [r0, #4]
	add	r2, r2, r3
	uxth	r2, r2
	bl	lpa_hash_update_ppa
	b	.L1865
.L1850:
	add	sp, sp, #56
	@ sp needed
	pop	{r4, r5, r6, r7, r8, r10, fp, pc}
.L1925:
	.align	2
.L1924:
	.word	.LC75
	.word	.LANCHOR45
	.word	.LANCHOR47
	.word	.LANCHOR79
	.word	.LANCHOR46
	.size	ftl_open_sblk_recovery, .-ftl_open_sblk_recovery
	.section	.text.pm_write_page,"ax",%progbits
	.align	1
	.global	pm_write_page
	.syntax unified
	.thumb
	.thumb_func
	.fpu softvfp
	.type	pm_write_page, %function
pm_write_page:
	@ args = 0, pretend = 0, frame = 0
	@ frame_needed = 0, uses_anonymous_args = 0
	push	{r0, r1, r2, r4, r5, r6, r7, r8, r10, lr}
	mov	r4, r0
	ldr	r7, .L1937
	mov	r8, r1
	mov	r6, r7
.L1932:
	ldr	r3, [r7]
	ldr	r2, [r3, #48]
	ldrh	r1, [r3, #696]
	adds	r2, r2, #1
	str	r2, [r3, #48]
	ldr	r2, .L1937+4
	ldrh	r2, [r2]
	cmp	r1, r2
	bcs	.L1928
	ldrh	r2, [r3, #692]
	movw	r3, #65535
	cmp	r2, r3
	bne	.L1929
.L1928:
	bl	pm_alloc_new_blk
	movs	r0, #0
	bl	ftl_info_flush
.L1929:
	ldr	r2, [r6]
	movw	r1, #65535
	ldrh	r3, [r2, #692]
	cmp	r3, r1
	bne	.L1930
	movs	r2, #224
	ldr	r1, .L1937+8
	ldr	r0, .L1937+12
	bl	printf
.L1931:
	b	.L1931
.L1930:
	ldr	r1, .L1937+16
	ldrh	r2, [r2, #696]
	ldr	r10, .L1937+28
	ldrh	r5, [r1]
	movs	r1, #0
	ldr	r0, [r10]
	mla	r5, r3, r5, r2
	movs	r2, #64
	bl	ftl_memset
	ldr	r2, [r6]
	ldr	r3, [r10]
	ldrb	r0, [r2, #694]	@ zero_extendqisi2
	str	r4, [r3]
	ldr	r1, [r2, #48]
	ldr	r2, .L1937+20
	str	r1, [r3, #4]
	mov	r1, r5
	ldrb	r2, [r2]	@ zero_extendqisi2
	str	r2, [sp]
	mov	r2, r8
	bl	ftl_prog_page
	ldr	r2, [r6]
	ldrh	r3, [r2, #696]
	adds	r3, r3, #1
	uxth	r3, r3
	cmp	r3, #1
	strh	r3, [r2, #696]	@ movhi
	beq	.L1932
	adds	r0, r0, #1
	bne	.L1933
.L1927:
	mov	r1, r5
	ldr	r0, .L1937+24
	bl	printf
	b	.L1932
.L1933:
	ldrh	r3, [r2, #698]
	movs	r0, #0
	cmp	r4, r3
	itt	cc
	addcc	r4, r4, #176
	strcc	r5, [r2, r4, lsl #2]
	add	sp, sp, #12
	@ sp needed
	pop	{r4, r5, r6, r7, r8, r10, pc}
.L1938:
	.align	2
.L1937:
	.word	.LANCHOR46
	.word	.LANCHOR79
	.word	.LANCHOR140
	.word	.LC0
	.word	.LANCHOR75
	.word	.LANCHOR45
	.word	.LC76
	.word	.LANCHOR141
	.size	pm_write_page, .-pm_write_page
	.section	.text.flash_info_flush,"ax",%progbits
	.align	1
	.global	flash_info_flush
	.syntax unified
	.thumb
	.thumb_func
	.fpu softvfp
	.type	flash_info_flush, %function
flash_info_flush:
	@ args = 0, pretend = 0, frame = 8
	@ frame_needed = 0, uses_anonymous_args = 0
	push	{r0, r1, r2, r3, r4, r5, r6, r7, r8, r10, fp, lr}
	movs	r2, #64
	ldr	r5, .L1947
	movs	r1, #0
	movs	r7, #0
	ldr	r6, .L1947+4
	ldr	r0, [r5]
	bl	ftl_memset
	movs	r3, #16
	movs	r2, #4
	ldr	r1, [r6]
	ldr	r0, .L1947+8
	bl	rknand_print_hex
	ldr	r4, [r6]
	ldr	r1, [r4, #8]
	add	r0, r4, #16
	bl	js_hash
	str	r5, [sp, #8]
	ldr	r5, .L1947+12
	str	r0, [r4, #12]
	mov	r8, r5
.L1940:
	ldr	fp, .L1947+32
	ldrb	r10, [r5]	@ zero_extendqisi2
	ldrh	r4, [r5, #2]
	ldrh	r3, [fp]
	mov	r1, r10
	ldr	r0, .L1947+16
	mov	r2, r4
	str	r3, [sp, #12]
	bl	printf
	ldr	r2, .L1947+20
	ldrh	r0, [r5, #2]
	ldr	r3, [sp, #12]
	ldrh	r2, [r2]
	subs	r2, r2, #1
	cmp	r0, r2
	blt	.L1941
	ldr	r4, [r6]
	mov	r10, #0
	ldrb	r2, [r5]	@ zero_extendqisi2
	strh	r10, [r5, #2]	@ movhi
	ldr	r3, [r4, #4]
	mov	r0, r4
	ldr	r1, [r4, #8]
	adds	r3, r3, #1
	str	r3, [r4, #4]
	ldrb	r3, [r5, #1]	@ zero_extendqisi2
	strb	r2, [r5, #1]
	ldrh	r2, [r4, #16]
	strb	r3, [r5]
	str	r3, [sp, #12]
	adds	r2, r2, #1
	strh	r2, [r0, #16]!	@ movhi
	bl	js_hash
	ldr	r3, [sp, #12]
	str	r0, [r4, #12]
	mov	r0, r10
	ldrh	r4, [fp]
	muls	r4, r3, r4
	mov	r1, r4
.L1946:
	bl	flash_erase_block
.L1942:
	ldr	r2, [r6]
	mov	r10, #1
	ldr	r3, [sp, #8]
	movs	r0, #0
	ldr	r1, [r2, #4]
	ldr	r3, [r3]
	str	r1, [r3]
	ldr	r1, .L1947+24
	str	r1, [r3, #4]
	movs	r1, #4
	stm	sp, {r1, r10}
	mov	r1, r4
	bl	flash_prog_page_en
	ldrh	r3, [r8, #2]
	adds	r0, r0, #1
	add	r3, r3, r10
	strh	r3, [r8, #2]	@ movhi
	bne	.L1943
	mov	r1, r4
	ldr	r0, .L1947+28
	bl	printf
	b	.L1940
.L1945:
	mov	r7, r10
	b	.L1940
.L1941:
	mla	r4, r10, r3, r4
	cmp	r0, #0
	bne	.L1942
	mov	r1, r4
	b	.L1946
.L1943:
	cmp	r7, #0
	beq	.L1945
	movs	r0, #0
	add	sp, sp, #16
	@ sp needed
	pop	{r4, r5, r6, r7, r8, r10, fp, pc}
.L1948:
	.align	2
.L1947:
	.word	.LANCHOR116
	.word	.LANCHOR5
	.word	.LC77
	.word	.LANCHOR117
	.word	.LC78
	.word	.LANCHOR97
	.word	1398362953
	.word	.LC79
	.word	.LANCHOR13
	.size	flash_info_flush, .-flash_info_flush
	.section	.text.nand_flash_init,"ax",%progbits
	.align	1
	.global	nand_flash_init
	.syntax unified
	.thumb
	.thumb_func
	.fpu softvfp
	.type	nand_flash_init, %function
nand_flash_init:
	@ args = 0, pretend = 0, frame = 0
	@ frame_needed = 0, uses_anonymous_args = 0
	push	{r4, r5, r6, r7, r8, r10, fp, lr}
	movs	r5, #0
	ldr	r8, .L2005+140
	movs	r2, #2
	ldr	r3, .L2005
	ldr	r7, .L2005+4
	mov	r6, r8
	ldr	r4, .L2005+8
	strb	r2, [r3]
	bl	nandc_init
	str	r4, [r7]
.L1955:
	lsl	r10, r5, #3
	uxtb	r0, r5
	add	r1, r8, r10
	bl	flash_read_id
	cbnz	r5, .L1950
	ldrb	r3, [r8]	@ zero_extendqisi2
	subs	r3, r3, #1
	uxtb	r3, r3
	cmp	r3, #253
	bls	.L1951
.L1953:
	mvn	r0, #1
	pop	{r4, r5, r6, r7, r8, r10, fp, pc}
.L1951:
	ldrb	r3, [r8, #1]	@ zero_extendqisi2
	cmp	r3, #255
	beq	.L1953
.L1950:
	ldrb	r3, [r6, r10]	@ zero_extendqisi2
	adds	r5, r5, #1
	cmp	r3, #181
	itt	eq
	moveq	r3, #44
	strbeq	r3, [r6, r10]
	cmp	r5, #4
	bne	.L1955
	ldr	r5, .L2005+12
	mov	r8, #0
	ldr	r10, .L2005+140
.L1958:
	ldrb	r2, [r5, #-1]	@ zero_extendqisi2
	mov	r1, r10
	mov	r0, r5
	lsl	fp, r8, #5
	bl	flash_mem_cmp8
	cmp	r0, #0
	bne	.L1956
	ldr	r5, .L2005+16
	ldr	r3, .L2005+20
	add	r5, r5, fp
	ldrb	r2, [r5, #22]	@ zero_extendqisi2
	mov	r1, r3
.L1957:
	lsl	ip, r0, #5
	ldrb	ip, [ip, r3]	@ zero_extendqisi2
	cmp	ip, r2
	beq	.L1959
	adds	r0, r0, #1
	cmp	r0, #4
	bne	.L1957
.L1959:
	add	r1, r1, r0, lsl #5
	movs	r2, #32
	ldr	r0, .L2005+24
	bl	ftl_memcpy
	movs	r2, #32
	mov	r1, r5
	ldr	r0, .L2005+8
	bl	ftl_memcpy
	ldr	r2, .L2005+28
	ldrb	r3, [r2]	@ zero_extendqisi2
	mov	r8, r2
	cmp	r3, #8
	bhi	.L1960
	ldrb	r2, [r4, #20]	@ zero_extendqisi2
	cmp	r2, #60
	bls	.L1961
	movs	r2, #60
	strb	r2, [r4, #20]
.L1961:
	cmp	r3, #8
	bne	.L1960
	ldrb	r3, [r6]	@ zero_extendqisi2
	cmp	r3, #44
	bne	.L1960
	ldrb	r3, [r4, #28]	@ zero_extendqisi2
	cmp	r3, #2
	itt	eq
	moveq	r3, #0
	strbeq	r3, [r4, #28]
.L1960:
	mov	r0, #16384
	ldr	r6, .L2005+32
	bl	ftl_malloc
	ldr	r3, .L2005+36
	mov	r10, #0
	str	r0, [r3]
	mov	r0, #16384
	bl	ftl_malloc
	ldr	r3, .L2005+40
	str	r0, [r3]
	mov	r0, #2048
	bl	ftl_malloc
	str	r0, [r6]
	movs	r0, #64
	bl	ftl_malloc
	ldr	r3, .L2005+44
	str	r0, [r3]
	movs	r0, #64
	bl	ftl_malloc
	ldr	r3, .L2005+48
	str	r0, [r3]
	movs	r0, #64
	bl	ftl_malloc
	ldr	r3, .L2005+52
	str	r0, [r3]
	ldr	r3, .L2005+56
	strb	r10, [r3]
	bl	flash_die_info_init
	ldrb	r0, [r4, #18]	@ zero_extendqisi2
	bl	flash_lsb_page_tbl_build
	ldrb	r0, [r4, #20]	@ zero_extendqisi2
	bl	nandc_bch_sel
	ldr	r2, [r7]
	ldr	r7, .L2005+60
	ldrh	r3, [r2, #16]
	ubfx	r5, r3, #3, #1
	lsrs	r1, r3, #8
	and	r0, r1, #7
	strb	r0, [r7]
	ldr	r0, .L2005+64
	strb	r5, [r0]
	ubfx	r5, r3, #4, #1
	ldr	r0, .L2005+68
	strb	r5, [r0]
	ubfx	r5, r3, #12, #1
	ldr	r0, .L2005+72
	strb	r5, [r0]
	ubfx	r5, r3, #13, #1
	ldr	r0, .L2005+76
	ubfx	r3, r3, #14, #1
	strb	r5, [r0]
	ldr	r0, .L2005+80
	ldr	r5, .L2005+84
	strb	r3, [r0]
	movs	r0, #60
	ldrb	r3, [r2, #28]	@ zero_extendqisi2
	ldr	r2, .L2005+88
	str	r10, [r5]
	strb	r3, [r2]
	ldr	r2, .L2005+92
	strb	r0, [r2]
	ldrb	r0, [r8]	@ zero_extendqisi2
	cmp	r0, #9
	itt	eq
	moveq	r0, #70
	strbeq	r0, [r2]
	ldr	r2, .L2005+96
	ldrh	r0, [r4, #16]
	strb	r3, [r2]
	ldrb	r3, [r4, #19]	@ zero_extendqisi2
	tst	r0, #64
	ldr	r2, .L2005+100
	strb	r3, [r2]
	mov	r4, r2
	beq	.L1964
	sub	r2, r3, #17
	cmp	r2, #2
	bhi	.L1965
	ldr	r2, .L2005+104
	cmp	r3, #19
	ldr	r3, .L2005+108
	str	r2, [r5]
	ite	ne
	movne	r2, #7
	moveq	r2, #15
.L2003:
	strb	r2, [r3]
.L1964:
	ldr	r3, .L2005+112
	tst	r1, #1
	mov	r2, #0
	mov	r0, #4
	strb	r2, [r3]
	mov	r8, r3
	beq	.L1975
	bl	nandc_set_if_mode
	movs	r0, #1
	bl	flash_set_interface_mode
	movs	r0, #1
.L1975:
	bl	nandc_set_if_mode
	bl	flash_info_blk_init
	adds	r2, r0, #1
	beq	.L1949
	ldrb	r3, [r4]	@ zero_extendqisi2
	subs	r3, r3, #1
	cmp	r3, #6
	itt	ls
	ldrls	r3, .L2005+116
	strls	r3, [r5]
	ldrb	r3, [r7]	@ zero_extendqisi2
	lsls	r3, r3, #29
	bmi	.L1978
.L1979:
	movs	r0, #0
	pop	{r4, r5, r6, r7, r8, r10, fp, pc}
.L1956:
	add	r8, r8, #1
	adds	r5, r5, #32
	cmp	r8, #24
	bne	.L1958
	b	.L1953
.L1965:
	cmp	r3, #33
	beq	.L1968
	sub	r2, r3, #65
	cmp	r2, #1
	bhi	.L1969
.L1968:
	ldr	r3, .L2005+120
	movs	r2, #4
	str	r3, [r5]
	ldr	r3, .L2005+124
	strb	r2, [r3]
.L2004:
	movs	r2, #7
	ldr	r3, .L2005+108
	b	.L2003
.L1969:
	sub	r2, r3, #67
	uxtb	r2, r2
	cmp	r2, #1
	bls	.L1970
	sub	r0, r3, #34
	cmp	r0, #1
	bhi	.L1971
.L1970:
	ldr	r0, .L2005+120
	cmp	r3, #35
	str	r0, [r5]
	ldr	r0, .L2005+108
	beq	.L1972
	cmp	r3, #68
	beq	.L1972
	movs	r3, #7
.L2002:
	cmp	r2, #1
	strb	r3, [r0]
	it	ls
	movls	r2, #4
	ldr	r3, .L2005+124
	it	hi
	movhi	r2, #5
	b	.L2003
.L1972:
	movs	r3, #17
	b	.L2002
.L1971:
	subs	r3, r3, #36
	cmp	r3, #1
	bhi	.L1964
	ldr	r3, .L2005+128
	str	r3, [r5]
	b	.L2004
.L1978:
	ldr	r3, [r6]
	ldrb	r3, [r3, #19]	@ zero_extendqisi2
	cmp	r3, #0
	beq	.L1979
	ldr	r2, .L2005+132
	movs	r0, #0
	ldr	r3, .L2005+136
	ldrh	r1, [r2]
	ldrb	r3, [r3]	@ zero_extendqisi2
	muls	r1, r3, r1
	bl	flash_ddr_para_scan
	ldrb	r4, [r8]	@ zero_extendqisi2
	cmp	r4, #0
	bne	.L1979
	ldr	r3, [r6]
	strb	r4, [r3, #19]
	bl	flash_info_flush
	b	.L1979
.L1949:
	pop	{r4, r5, r6, r7, r8, r10, fp, pc}
.L2006:
	.align	2
.L2005:
	.word	.LANCHOR20
	.word	.LANCHOR34
	.word	.LANCHOR19
	.word	.LANCHOR142+1
	.word	.LANCHOR142
	.word	.LANCHOR143
	.word	.LANCHOR103
	.word	.LANCHOR7
	.word	.LANCHOR5
	.word	.LANCHOR119
	.word	.LANCHOR111
	.word	.LANCHOR118
	.word	.LANCHOR112
	.word	.LANCHOR116
	.word	.LANCHOR123
	.word	.LANCHOR25
	.word	.LANCHOR144
	.word	.LANCHOR23
	.word	.LANCHOR66
	.word	.LANCHOR74
	.word	.LANCHOR12
	.word	.LANCHOR115
	.word	.LANCHOR11
	.word	.LANCHOR145
	.word	.LANCHOR146
	.word	.LANCHOR1
	.word	micron_read_retrial
	.word	.LANCHOR113
	.word	.LANCHOR35
	.word	hynix_read_retrial
	.word	toshiba_read_retrial
	.word	.LANCHOR4
	.word	toshiba_3d_read_retrial
	.word	.LANCHOR13
	.word	.LANCHOR117
	.word	.LANCHOR26
	.size	nand_flash_init, .-nand_flash_init
	.section	.text.ftl_sysblk_dump,"ax",%progbits
	.align	1
	.global	ftl_sysblk_dump
	.syntax unified
	.thumb
	.thumb_func
	.fpu softvfp
	.type	ftl_sysblk_dump, %function
ftl_sysblk_dump:
	@ args = 0, pretend = 0, frame = 8
	@ frame_needed = 0, uses_anonymous_args = 0
	push	{r4, r5, r6, r7, r8, r10, fp, lr}
	mov	fp, r0
	sub	sp, sp, #48
	movs	r0, #1
	movs	r6, #0
	bl	buf_alloc
	ldr	r3, [r0, #4]
	mov	r4, r0
	mov	r5, r6
	str	r3, [sp, #44]
.L2008:
	ldr	r3, .L2015
	ldrh	r2, [r3]
	uxth	r3, r6
	cmp	r2, r3
	bhi	.L2010
	mov	r0, r4
	bl	buf_free
	cmp	r5, #0
	beq	.L2011
	movw	r2, #655
	ldr	r1, .L2015+4
	ldr	r0, .L2015+8
	bl	printf
.L2012:
	b	.L2012
.L2010:
	ldr	r3, .L2015+12
	uxth	r7, r6
	ldr	r2, [r4, #12]
	ldr	r1, [r4, #4]
	ldrh	r8, [r3]
	ldr	r3, .L2015+16
	mla	r8, fp, r8, r7
	ldrb	r3, [r3]	@ zero_extendqisi2
	mov	r0, r8
	bl	ftl_read_ppa_page
	ldr	r2, [r4, #12]
	mov	r10, r0
	ldr	r3, [r4, #4]
	ldr	r1, [r2, #12]
	str	r1, [sp, #32]
	ldr	r1, [r2, #8]
	str	r1, [sp, #28]
	ldr	r1, [r2, #4]
	str	r1, [sp, #24]
	mov	r1, fp
	ldr	r2, [r2]
	str	r2, [sp, #20]
	ldr	r2, [r3, #12]
	str	r2, [sp, #16]
	ldr	r2, [r3, #8]
	str	r2, [sp, #12]
	ldr	r2, [r3, #4]
	str	r2, [sp, #8]
	mov	r2, r7
	ldr	r3, [r3]
	str	r0, [sp]
	ldr	r0, .L2015+20
	str	r3, [sp, #4]
	mov	r3, r8
	bl	printf
	ldr	r1, [sp, #44]
	movs	r3, #32
	movs	r2, #4
	ldr	r0, .L2015+24
	add	r1, r1, #704
	bl	rknand_print_hex
	cmp	r10, #-1
	beq	.L2013
	cmp	r10, #512
	it	eq
	moveq	r5, #1
.L2009:
	adds	r6, r6, #1
	b	.L2008
.L2013:
	movs	r5, #1
	b	.L2009
.L2011:
	mov	r0, r5
	add	sp, sp, #48
	@ sp needed
	pop	{r4, r5, r6, r7, r8, r10, fp, pc}
.L2016:
	.align	2
.L2015:
	.word	.LANCHOR79
	.word	.LANCHOR147
	.word	.LC0
	.word	.LANCHOR75
	.word	.LANCHOR45
	.word	.LC73
	.word	.LC80
	.size	ftl_sysblk_dump, .-ftl_sysblk_dump
	.section	.text.dump_ftl_info,"ax",%progbits
	.align	1
	.global	dump_ftl_info
	.syntax unified
	.thumb
	.thumb_func
	.fpu softvfp
	.type	dump_ftl_info, %function
dump_ftl_info:
	@ args = 0, pretend = 0, frame = 0
	@ frame_needed = 0, uses_anonymous_args = 0
	push	{r0, r1, r2, r4, r5, r6, r7, lr}
	ldr	r1, .L2018
	ldr	r5, .L2018+4
	ldrh	r3, [r1, #2]
	ldrb	r2, [r1, #1]	@ zero_extendqisi2
	ldr	r0, .L2018+8
	ldrb	r1, [r1]	@ zero_extendqisi2
	bl	printf
	ldr	r3, [r5]
	ldr	r4, .L2018+12
	ldr	r0, .L2018+16
	ldrh	r2, [r3, #140]
	ldrh	r1, [r3, #130]
	bl	printf
	ldr	r0, [r4]
	ldr	r7, .L2018+20
	ldrh	r6, [r0, #26]
	ldrb	r3, [r0, #21]	@ zero_extendqisi2
	ldrh	r2, [r0, #18]
	ldrh	r1, [r0, #16]
	str	r6, [sp, #4]
	ldrh	r0, [r0, #22]
	str	r0, [sp]
	ldr	r0, .L2018+24
	bl	printf
	ldr	r0, [r4]
	ldrh	r6, [r0, #58]
	ldrb	r3, [r0, #53]	@ zero_extendqisi2
	ldrh	r2, [r0, #50]
	ldrh	r1, [r0, #48]
	str	r6, [sp, #4]
	ldrh	r0, [r0, #54]
	ldr	r6, .L2018+28
	str	r0, [sp]
	ldr	r0, .L2018+32
	bl	printf
	ldr	r0, [r4]
	ldrh	r4, [r0, #90]
	ldrb	r3, [r0, #85]	@ zero_extendqisi2
	ldrh	r2, [r0, #82]
	ldrh	r1, [r0, #80]
	str	r4, [sp, #4]
	ldrh	r0, [r0, #86]
	ldr	r4, .L2018+36
	str	r0, [sp]
	ldr	r0, .L2018+40
	bl	printf
	ldrh	r2, [r6]
	ldrb	r3, [r4]	@ zero_extendqisi2
	ldr	r1, .L2018+44
	ldr	r0, .L2018+48
	muls	r3, r2, r3
	ldr	r1, [r1]
	movs	r2, #4
	lsls	r3, r3, #1
	bl	rknand_print_hex
	ldr	r1, .L2018+52
	movs	r2, #2
	ldrh	r3, [r7]
	ldr	r0, .L2018+56
	ldr	r1, [r1]
	bl	rknand_print_hex
	ldr	r1, [r5]
	movs	r3, #32
	movs	r2, #4
	ldr	r0, .L2018+60
	add	r1, r1, #704
	bl	rknand_print_hex
	ldr	r1, .L2018+64
	movs	r2, #4
	ldrh	r3, [r7]
	ldr	r0, .L2018+68
	ldr	r1, [r1]
	bl	rknand_print_hex
	mov	r3, #256
	movs	r2, #2
	ldr	r1, .L2018+72
	ldr	r0, .L2018+76
	bl	rknand_print_hex
	ldrh	r2, [r6]
	ldrb	r3, [r4]	@ zero_extendqisi2
	ldr	r1, .L2018+80
	ldr	r0, .L2018+84
	muls	r3, r2, r3
	ldr	r1, [r1]
	movs	r2, #2
	lsls	r3, r3, #1
	add	sp, sp, #12
	@ sp needed
	pop	{r4, r5, r6, r7, lr}
	b	rknand_print_hex
.L2019:
	.align	2
.L2018:
	.word	.LANCHOR131
	.word	.LANCHOR46
	.word	.LC81
	.word	.LANCHOR60
	.word	.LC82
	.word	.LANCHOR54
	.word	.LC83
	.word	.LANCHOR79
	.word	.LC84
	.word	.LANCHOR69
	.word	.LC85
	.word	.LANCHOR82
	.word	.LC86
	.word	.LANCHOR56
	.word	.LC87
	.word	.LC80
	.word	.LANCHOR57
	.word	.LC88
	.word	.LANCHOR81
	.word	.LC89
	.word	.LANCHOR83
	.word	.LC90
	.size	dump_ftl_info, .-dump_ftl_info
	.section	.text.pm_ppa_update_check,"ax",%progbits
	.align	1
	.global	pm_ppa_update_check
	.syntax unified
	.thumb
	.thumb_func
	.fpu softvfp
	.type	pm_ppa_update_check, %function
pm_ppa_update_check:
	@ args = 0, pretend = 0, frame = 0
	@ frame_needed = 0, uses_anonymous_args = 0
	push	{r3, r4, r5, r6, r7, lr}
	mov	r5, r0
	ldr	r3, .L2027
	movs	r4, #1
	mov	r6, r1
	mov	r7, r2
	ldrh	r0, [r3]
	rsb	r3, r0, #21
	lsls	r4, r4, r3
	ldr	r3, .L2027+4
	lsr	r0, r2, r0
	subs	r4, r4, #1
	ldrb	r1, [r3]	@ zero_extendqisi2
	ands	r0, r0, r4
	bl	__aeabi_uidiv
	ldr	r3, .L2027+8
	uxth	r0, r0
	ldr	r3, [r3]
	add	r0, r3, r0, lsl #2
	ldrb	r1, [r0, #2]	@ zero_extendqisi2
	lsrs	r1, r1, #5
	cmp	r1, #1
	beq	.L2021
	cmp	r1, #7
	bne	.L2023
.L2021:
	mov	r3, r7
	mov	r2, r6
	mov	r1, r5
	ldr	r0, .L2027+12
	bl	printf
	bl	dump_ftl_info
	mov	r0, #-1
	pop	{r3, r4, r5, r6, r7, pc}
.L2023:
	movs	r0, #0
	pop	{r3, r4, r5, r6, r7, pc}
.L2028:
	.align	2
.L2027:
	.word	.LANCHOR71
	.word	.LANCHOR70
	.word	.LANCHOR57
	.word	.LC91
	.size	pm_ppa_update_check, .-pm_ppa_update_check
	.section	.text.load_l2p_region,"ax",%progbits
	.align	1
	.global	load_l2p_region
	.syntax unified
	.thumb
	.thumb_func
	.fpu softvfp
	.type	load_l2p_region, %function
load_l2p_region:
	@ args = 0, pretend = 0, frame = 0
	@ frame_needed = 0, uses_anonymous_args = 0
	cmp	r1, #31
	push	{r0, r1, r2, r4, r5, r6, r7, r8, r10, lr}
	mov	r4, r0
	bls	.L2030
	movs	r2, #30
	ldr	r1, .L2039
	ldr	r0, .L2039+4
	bl	printf
.L2031:
	b	.L2031
.L2030:
	ldr	r10, .L2039+52
	ldr	r3, [r10]
	ldrh	r2, [r3, #698]
	cmp	r2, r0
	bcs	.L2032
	mov	r1, r0
	ldr	r0, .L2039+8
	bl	printf
	ldr	r3, .L2039+12
	movs	r1, #255
	ldrh	r2, [r3]
	movs	r3, #0
	ldr	r0, [r3, #4]
	bl	ftl_memset
	ldr	r3, [r10]
	ldrh	r3, [r3, #698]
	cmp	r3, r4
	bcs	.L2036
	movs	r2, #34
	ldr	r1, .L2039
	ldr	r0, .L2039+4
	bl	printf
.L2034:
	b	.L2034
.L2032:
	ldr	r5, .L2039+16
	add	r2, r0, #176
	ldr	r7, [r3, r2, lsl #2]
	mov	r8, #0
	strh	r0, [r5, r1, lsl #3]	@ movhi
	add	r5, r5, r1, lsl #3
	strh	r8, [r5, #2]	@ movhi
	cbnz	r7, .L2035
	ldr	r3, .L2039+12
	movs	r1, #255
	ldr	r0, [r5, #4]
	ldrh	r2, [r3]
	bl	ftl_memset
.L2036:
	movs	r0, #0
	add	sp, sp, #12
	@ sp needed
	pop	{r4, r5, r6, r7, r8, r10, pc}
.L2035:
	ldr	r6, .L2039+20
	mov	r0, r7
	ldr	r3, .L2039+24
	ldr	r1, [r5, #4]
	ldr	r2, [r6]
	ldrb	r3, [r3]	@ zero_extendqisi2
	bl	ftl_read_ppa_page
	ldr	r2, [r6]
	mov	r3, r0
	ldr	r2, [r2]
	cmp	r2, r4
	beq	.L2037
	str	r7, [sp]
	mov	r1, r4
	ldr	r0, .L2039+28
	bl	printf
	ldr	r1, [r10]
	movs	r2, #4
	ldr	r0, .L2039+32
	ldrh	r3, [r1, #698]
	add	r1, r1, #704
	bl	rknand_print_hex
	movs	r3, #16
	movs	r2, #4
	ldr	r1, [r5, #4]
	ldr	r0, .L2039+36
	bl	rknand_print_hex
	movs	r3, #16
	movs	r2, #4
	ldr	r1, [r6]
	ldr	r0, .L2039+40
	bl	rknand_print_hex
	ldr	r3, .L2039+44
	movs	r0, #1
	ldrh	r3, [r3]
	rsb	r2, r3, #21
	lsls	r0, r0, r2
	lsrs	r7, r7, r3
	ldr	r3, .L2039+48
	subs	r0, r0, #1
	ands	r0, r0, r7
	ldrb	r1, [r3]	@ zero_extendqisi2
	bl	__aeabi_uidiv
	mov	r1, r8
	uxth	r0, r0
	bl	ftl_sblk_dump
.L2037:
	ldr	r3, [r6]
	ldr	r3, [r3]
	cmp	r4, r3
	beq	.L2036
	movs	r2, #55
	ldr	r1, .L2039
	ldr	r0, .L2039+4
	bl	printf
.L2038:
	b	.L2038
.L2040:
	.align	2
.L2039:
	.word	.LANCHOR148
	.word	.LC0
	.word	.LC92
	.word	.LANCHOR149
	.word	.LANCHOR93
	.word	.LANCHOR141
	.word	.LANCHOR45
	.word	.LC93
	.word	.LC94
	.word	.LC95
	.word	.LC96
	.word	.LANCHOR71
	.word	.LANCHOR70
	.word	.LANCHOR46
	.size	load_l2p_region, .-load_l2p_region
	.section	.text.pm_gc,"ax",%progbits
	.align	1
	.global	pm_gc
	.syntax unified
	.thumb
	.thumb_func
	.fpu softvfp
	.type	pm_gc, %function
pm_gc:
	@ args = 0, pretend = 0, frame = 0
	@ frame_needed = 0, uses_anonymous_args = 0
	push	{r4, r5, r6, r7, r8, r10, fp, lr}
	ldr	r4, .L2054
	ldr	r5, .L2054+4
	ldr	r3, [r4]
	mov	r8, r4
	ldrh	r2, [r3, #688]
	ldrh	r3, [r5]
	subs	r3, r3, #1
	cmp	r2, r3
	blt	.L2043
	bl	pm_free_sblk
	ldr	r2, [r4]
	ldrh	r3, [r5]
	ldrh	r1, [r2, #688]
	subs	r3, r3, #1
	cmp	r1, r3
	blt	.L2043
	uxth	r0, r0
	movw	r7, #65535
	adds	r0, r0, #208
	ldrh	r6, [r2, r0, lsl #1]
	cmp	r6, r7
	bne	.L2045
	movs	r2, #127
	ldr	r1, .L2054+8
	ldr	r0, .L2054+12
	bl	printf
.L2046:
	b	.L2046
.L2045:
	ldr	r4, .L2054+16
	bl	pm_select_ram_region
	mov	r5, r0
	ldrh	r0, [r4, r0, lsl #3]
	cmp	r0, r7
	beq	.L2047
	add	r7, r4, r5, lsl #3
	ldr	r1, [r7, #4]
	cbz	r1, .L2047
	ldrsh	r3, [r7, #2]
	cmp	r3, #0
	bge	.L2047
	bl	pm_write_page
	ldrh	r3, [r7, #2]
	ubfx	r3, r3, #0, #15
	strh	r3, [r7, #2]	@ movhi
.L2047:
	mov	fp, #0
.L2048:
	ldr	r1, [r8]
	uxth	r10, fp
	ldrh	r0, [r1, #698]
	cmp	r0, r10
	bhi	.L2050
	bl	pm_free_sblk
.L2043:
	movs	r0, #0
	pop	{r4, r5, r6, r7, r8, r10, fp, pc}
.L2050:
	ldr	r3, .L2054+20
	uxth	r7, fp
	add	ip, r7, #176
	ldrh	r0, [r3]
	ldr	r1, [r1, ip, lsl #2]
	ldr	r3, .L2054+24
	lsr	ip, r1, r0
	rsb	r1, r0, #21
	movs	r0, #1
	lsls	r0, r0, r1
	ldrb	r1, [r3]	@ zero_extendqisi2
	subs	r0, r0, #1
	and	r0, ip, r0
	bl	__aeabi_uidiv
	uxth	r0, r0
	cmp	r6, r0
	bne	.L2049
	mov	r1, r5
	mov	r0, r10
	bl	load_l2p_region
	add	r2, r4, r5, lsl #3
	mov	r0, r7
	ldr	r1, [r2, #4]
	bl	pm_write_page
.L2049:
	add	fp, fp, #1
	b	.L2048
.L2055:
	.align	2
.L2054:
	.word	.LANCHOR46
	.word	.LANCHOR101
	.word	.LANCHOR150
	.word	.LC0
	.word	.LANCHOR93
	.word	.LANCHOR71
	.word	.LANCHOR70
	.size	pm_gc, .-pm_gc
	.section	.text.pm_flush_id,"ax",%progbits
	.align	1
	.global	pm_flush_id
	.syntax unified
	.thumb
	.thumb_func
	.fpu softvfp
	.type	pm_flush_id, %function
pm_flush_id:
	@ args = 0, pretend = 0, frame = 0
	@ frame_needed = 0, uses_anonymous_args = 0
	ldr	r3, .L2061
	push	{r4, lr}
	add	r4, r3, r0, lsl #3
	ldrh	r0, [r3, r0, lsl #3]
	ldr	r1, [r4, #4]
	bl	pm_write_page
	ldrh	r3, [r4, #2]
	ubfx	r3, r3, #0, #15
	strh	r3, [r4, #2]	@ movhi
	ldr	r4, .L2061+4
	ldr	r3, [r4]
	cbz	r3, .L2057
	bl	pm_gc
	movs	r3, #0
	str	r3, [r4]
.L2057:
	movs	r0, #0
	pop	{r4, pc}
.L2062:
	.align	2
.L2061:
	.word	.LANCHOR93
	.word	.LANCHOR91
	.size	pm_flush_id, .-pm_flush_id
	.section	.text.pm_flush,"ax",%progbits
	.align	1
	.global	pm_flush
	.syntax unified
	.thumb
	.thumb_func
	.fpu softvfp
	.type	pm_flush, %function
pm_flush:
	@ args = 0, pretend = 0, frame = 0
	@ frame_needed = 0, uses_anonymous_args = 0
	push	{r3, r4, r5, lr}
	movs	r4, #0
	ldr	r5, .L2067
.L2065:
	add	r3, r5, r4, lsl #3
	uxth	r0, r4
	ldrsh	r3, [r3, #2]
	cmp	r3, #0
	bge	.L2064
	bl	pm_flush_id
.L2064:
	adds	r4, r4, #1
	cmp	r4, #32
	bne	.L2065
	movs	r0, #0
	pop	{r3, r4, r5, pc}
.L2068:
	.align	2
.L2067:
	.word	.LANCHOR93
	.size	pm_flush, .-pm_flush
	.section	.text.flt_sys_flush,"ax",%progbits
	.align	1
	.global	flt_sys_flush
	.syntax unified
	.thumb
	.thumb_func
	.fpu softvfp
	.type	flt_sys_flush, %function
flt_sys_flush:
	@ args = 0, pretend = 0, frame = 0
	@ frame_needed = 0, uses_anonymous_args = 0
	push	{r3, lr}
	bl	ftl_flush
	bl	pm_flush
	bl	ftl_ext_info_flush
	movs	r0, #0
	pop	{r3, lr}
	b	ftl_info_flush
	.size	flt_sys_flush, .-flt_sys_flush
	.section	.text.rk_ftl_de_init,"ax",%progbits
	.align	1
	.global	rk_ftl_de_init
	.syntax unified
	.thumb
	.thumb_func
	.fpu softvfp
	.type	rk_ftl_de_init, %function
rk_ftl_de_init:
	@ args = 0, pretend = 0, frame = 0
	@ frame_needed = 0, uses_anonymous_args = 0
	push	{r3, lr}
	bl	FlashDeInit
	bl	flt_sys_flush
	pop	{r3, lr}
	b	FlashDeInit
	.size	rk_ftl_de_init, .-rk_ftl_de_init
	.section	.text.pm_init,"ax",%progbits
	.align	1
	.global	pm_init
	.syntax unified
	.thumb
	.thumb_func
	.fpu softvfp
	.type	pm_init, %function
pm_init:
	@ args = 0, pretend = 0, frame = 8
	@ frame_needed = 0, uses_anonymous_args = 0
	push	{r0, r1, r2, r3, r4, r5, r6, r7, r8, r10, fp, lr}
	mov	r8, r0
	ldr	r5, .L2088
	movs	r4, #0
	movs	r0, #64
	ldr	r3, .L2088+4
	ldr	r7, .L2088+8
	mov	r10, r5
	str	r4, [r3]
	bl	ftl_malloc
	str	r0, [r7]
.L2073:
	movw	r3, #65535
	adds	r6, r5, r4
	strh	r3, [r4, r5]	@ movhi
	movs	r3, #0
	strh	r3, [r6, #2]	@ movhi
	cmp	r8, #0
	beq	.L2072
	ldr	r3, .L2088+12
	ldrb	r0, [r3]	@ zero_extendqisi2
	lsls	r0, r0, #9
	bl	ftl_malloc
	str	r0, [r6, #4]
.L2072:
	adds	r4, r4, #8
	cmp	r4, #256
	bne	.L2073
	ldr	r3, [r10, #4]
	ldr	r4, .L2088+16
	ldr	r8, [r7]
	str	r3, [sp, #12]
	ldr	r3, [r4]
	ldr	r2, [sp, #12]
	ldrh	r1, [r3, #692]
	ldrb	r0, [r3, #694]	@ zero_extendqisi2
	movs	r3, #4
	str	r3, [sp]
	mov	r3, r8
	bl	flash_get_last_written_page
	ldr	r1, [r4]
	mov	r5, r0
	ldrh	r2, [r1, #696]
	cmp	r2, r0
	bgt	.L2074
	mov	r3, r0
	ldrh	r1, [r1, #692]
	ldr	r0, .L2088+20
	bl	printf
	ldr	r3, [r4]
	ldrsh	r6, [r3, #696]
.L2075:
	cmp	r6, r5
	ble	.L2077
	ldr	r3, .L2088+24
	movs	r2, #1
	add	r5, r5, r2
	strb	r2, [r3]
	ldr	r3, [r4]
	strh	r5, [r3, #696]	@ movhi
	bl	pm_free_sblk
	ldr	r1, [r10, #4]
	mov	r0, #-1
	bl	pm_write_page
	ldr	r1, [r10, #4]
	mov	r0, #-1
	bl	pm_write_page
.L2074:
	bl	pm_free_sblk
	bl	pm_gc
	movs	r0, #0
	add	sp, sp, #16
	@ sp needed
	pop	{r4, r5, r6, r7, r8, r10, fp, pc}
.L2077:
	ldr	r3, [r4]
	ldr	r2, .L2088+28
	ldrh	r7, [r3, #692]
	ldrh	r2, [r2]
	ldrb	r0, [r3, #694]	@ zero_extendqisi2
	ldr	r3, .L2088+12
	mla	r7, r2, r7, r6
	ldr	r2, [sp, #12]
	ldrb	r3, [r3]	@ zero_extendqisi2
	mov	r1, r7
	str	r3, [sp]
	mov	r3, r8
	bl	flash_read_page_en
	ldr	r3, [r4]
	mov	fp, r0
	ldr	r0, .L2088+32
	ldr	r2, [r3, #48]
	adds	r2, r2, #1
	str	r2, [r3, #48]
	mov	r2, r7
	ldrh	r3, [r3, #694]
