	.arch armv8-a+nosimd
	.file	"rockchip-secure-otp.c"
	.text
.Ltext0:
	.cfi_sections	.debug_frame
	.section	.text.px30_spl_rockchip_otp_start,"ax",@progbits
	.align	2
	.type	px30_spl_rockchip_otp_start, %function
px30_spl_rockchip_otp_start:
.LFB264:
	.file 1 "drivers/misc/rockchip-secure-otp.c"
	.loc 1 45 0
	.cfi_startproc
.LVL0:
.LBB34:
	.loc 1 46 0
#APP
// 46 "drivers/misc/rockchip-secure-otp.c" 1
	dmb sy
// 0 "" 2
#NO_APP
	mov	w1, 16
.LVL1:
	sdiv	w3, w3, w1
.LVL2:
	mov	w1, -65536
	lsl	w3, w3, 2
	sxtw	x3, w3
	str	w1, [x3, x2]
.LVL3:
.LBE34:
.LBB35:
	.loc 1 47 0
#APP
// 47 "drivers/misc/rockchip-secure-otp.c" 1
	dmb sy
// 0 "" 2
#NO_APP
	mov	w1, 536879104
	str	w1, [x0]
	ret
.LBE35:
	.cfi_endproc
.LFE264:
	.size	px30_spl_rockchip_otp_start, .-px30_spl_rockchip_otp_start
	.section	.text.px30_spl_rockchip_otp_stop,"ax",@progbits
	.align	2
	.type	px30_spl_rockchip_otp_stop, %function
px30_spl_rockchip_otp_stop:
.LFB265:
	.loc 1 53 0
	.cfi_startproc
.LVL4:
.LBB36:
	.loc 1 54 0
#APP
// 54 "drivers/misc/rockchip-secure-otp.c" 1
	dmb sy
// 0 "" 2
#NO_APP
	mov	w1, 536870912
.LVL5:
	str	w1, [x0]
.LVL6:
.LBE36:
.LBB37:
	.loc 1 55 0
#APP
// 55 "drivers/misc/rockchip-secure-otp.c" 1
	dmb sy
// 0 "" 2
#NO_APP
	mov	w0, 16
.LVL7:
	sdiv	w3, w3, w0
.LVL8:
	mov	w0, -1
	lsl	w3, w3, 2
	sxtw	x3, w3
	str	w0, [x3, x2]
	ret
.LBE37:
	.cfi_endproc
.LFE265:
	.size	px30_spl_rockchip_otp_stop, .-px30_spl_rockchip_otp_stop
	.section	.text.rk3308_spl_rockchip_otp_start,"ax",@progbits
	.align	2
	.type	rk3308_spl_rockchip_otp_start, %function
rk3308_spl_rockchip_otp_start:
.LFB266:
	.loc 1 61 0
	.cfi_startproc
.LVL9:
.LBB38:
	.loc 1 62 0
#APP
// 62 "drivers/misc/rockchip-secure-otp.c" 1
	dmb sy
// 0 "" 2
#NO_APP
	mov	w1, 16
.LVL10:
	sdiv	w3, w3, w1
.LVL11:
	mov	w1, -65536
	lsl	w3, w3, 2
	sxtw	x3, w3
	str	w1, [x3, x2]
.LVL12:
.LBE38:
.LBB39:
	.loc 1 63 0
#APP
// 63 "drivers/misc/rockchip-secure-otp.c" 1
	dmb sy
// 0 "" 2
#NO_APP
	mov	w1, 262148
	str	w1, [x0]
	ret
.LBE39:
	.cfi_endproc
.LFE266:
	.size	rk3308_spl_rockchip_otp_start, .-rk3308_spl_rockchip_otp_start
	.section	.text.rk3308_spl_rockchip_otp_stop,"ax",@progbits
	.align	2
	.type	rk3308_spl_rockchip_otp_stop, %function
rk3308_spl_rockchip_otp_stop:
.LFB267:
	.loc 1 69 0
	.cfi_startproc
.LVL13:
.LBB40:
	.loc 1 70 0
#APP
// 70 "drivers/misc/rockchip-secure-otp.c" 1
	dmb sy
// 0 "" 2
#NO_APP
	mov	w1, 262144
.LVL14:
	str	w1, [x0]
.LVL15:
.LBE40:
.LBB41:
	.loc 1 71 0
#APP
// 71 "drivers/misc/rockchip-secure-otp.c" 1
	dmb sy
// 0 "" 2
#NO_APP
	mov	w0, 16
.LVL16:
	sdiv	w3, w3, w0
.LVL17:
	mov	w0, -1
	lsl	w3, w3, 2
	sxtw	x3, w3
	str	w0, [x3, x2]
	ret
.LBE41:
	.cfi_endproc
.LFE267:
	.size	rk3308_spl_rockchip_otp_stop, .-rk3308_spl_rockchip_otp_stop
	.section	.text.rk3328_spl_rockchip_otp_start,"ax",@progbits
	.align	2
	.type	rk3328_spl_rockchip_otp_start, %function
rk3328_spl_rockchip_otp_start:
.LFB268:
	.loc 1 77 0
	.cfi_startproc
.LVL18:
.LBB42:
	.loc 1 78 0
#APP
// 78 "drivers/misc/rockchip-secure-otp.c" 1
	dmb sy
// 0 "" 2
#NO_APP
	mov	w1, 134219776
.LVL19:
	str	w1, [x0]
.LVL20:
.LBE42:
.LBB43:
	.loc 1 79 0
#APP
// 79 "drivers/misc/rockchip-secure-otp.c" 1
	dmb sy
// 0 "" 2
#NO_APP
	mov	w0, 1024
.LVL21:
	movk	w0, 0x600, lsl 16
	str	w0, [x2]
	ret
.LBE43:
	.cfi_endproc
.LFE268:
	.size	rk3328_spl_rockchip_otp_start, .-rk3328_spl_rockchip_otp_start
	.section	.text.rk3328_spl_rockchip_otp_stop,"ax",@progbits
	.align	2
	.type	rk3328_spl_rockchip_otp_stop, %function
rk3328_spl_rockchip_otp_stop:
.LFB269:
	.loc 1 85 0
	.cfi_startproc
.LVL22:
.LBB44:
	.loc 1 86 0
#APP
// 86 "drivers/misc/rockchip-secure-otp.c" 1
	dmb sy
// 0 "" 2
#NO_APP
	mov	w1, 134217728
.LVL23:
	str	w1, [x0]
.LVL24:
.LBE44:
.LBB45:
	.loc 1 87 0
#APP
// 87 "drivers/misc/rockchip-secure-otp.c" 1
	dmb sy
// 0 "" 2
#NO_APP
	mov	w0, 100663296
.LVL25:
	str	w0, [x2]
	ret
.LBE45:
	.cfi_endproc
.LFE269:
	.size	rk3328_spl_rockchip_otp_stop, .-rk3328_spl_rockchip_otp_stop
	.section	.text.rk3568_spl_rockchip_otp_stop,"ax",@progbits
	.align	2
	.type	rk3568_spl_rockchip_otp_stop, %function
rk3568_spl_rockchip_otp_stop:
.LFB271:
	.loc 1 105 0
	.cfi_startproc
.LVL26:
.LBB46:
	.loc 1 106 0
#APP
// 106 "drivers/misc/rockchip-secure-otp.c" 1
	dmb sy
// 0 "" 2
#NO_APP
	mov	w1, 131072
.LVL27:
	str	w1, [x0]
.LVL28:
.LBE46:
.LBB47:
	.loc 1 107 0
#APP
// 107 "drivers/misc/rockchip-secure-otp.c" 1
	dmb sy
// 0 "" 2
#NO_APP
	mov	w0, 16
.LVL29:
	sdiv	w3, w3, w0
.LVL30:
	mov	w0, -1
	lsl	w3, w3, 2
	sxtw	x3, w3
	str	w0, [x3, x2]
	ret
.LBE47:
	.cfi_endproc
.LFE271:
	.size	rk3568_spl_rockchip_otp_stop, .-rk3568_spl_rockchip_otp_stop
	.section	.text.secure_otp_ioctl,"ax",@progbits
	.align	2
	.type	secure_otp_ioctl, %function
secure_otp_ioctl:
.LFB285:
	.loc 1 737 0
	.cfi_startproc
.LVL31:
	.loc 1 740 0
	mov	x0, 27908
.LVL32:
	cmp	x1, x0
	bne	.L12
.LVL33:
.LBB48:
.LBB49:
	.loc 1 729 0
	mov	w0, 8
	str	w0, [x2]
.LVL34:
.LBE49:
.LBE48:
	.loc 1 742 0
	mov	w0, 0
	.loc 1 743 0
	ret
.LVL35:
.L12:
	.loc 1 738 0
	mov	w0, -22
	.loc 1 749 0
	ret
	.cfi_endproc
.LFE285:
	.size	secure_otp_ioctl, .-secure_otp_ioctl
	.section	.text.secure_otp_write,"ax",@progbits
	.align	2
	.type	secure_otp_write, %function
secure_otp_write:
.LFB283:
	.loc 1 721 0
	.cfi_startproc
.LVL36:
	stp	x29, x30, [sp, -48]!
	.cfi_def_cfa_offset 48
	.cfi_offset 29, -48
	.cfi_offset 30, -40
	add	x29, sp, 0
	.cfi_def_cfa_register 29
	stp	x19, x20, [sp, 16]
	.cfi_offset 19, -32
	.cfi_offset 20, -24
	mov	x19, x0
	stp	x21, x22, [sp, 32]
	.cfi_offset 21, -16
	.cfi_offset 22, -8
	.loc 1 721 0
	mov	w20, w1
	mov	x21, x2
	mov	w22, w3
	.loc 1 722 0
	bl	dev_get_driver_data
.LVL37:
	.loc 1 724 0
	ldr	x4, [x0, 8]
	mov	w3, w22
	mov	x2, x21
	mov	w1, w20
	mov	x0, x19
.LVL38:
	.loc 1 725 0
	ldp	x21, x22, [sp, 32]
.LVL39:
	ldp	x19, x20, [sp, 16]
.LVL40:
	ldp	x29, x30, [sp], 48
	.cfi_restore 30
	.cfi_restore 29
	.cfi_restore 21
	.cfi_restore 22
	.cfi_restore 19
	.cfi_restore 20
	.cfi_def_cfa 31, 0
	.loc 1 724 0
	br	x4
.LVL41:
	.cfi_endproc
.LFE283:
	.size	secure_otp_write, .-secure_otp_write
	.section	.text.secure_otp_read,"ax",@progbits
	.align	2
	.type	secure_otp_read, %function
secure_otp_read:
.LFB282:
	.loc 1 713 0
	.cfi_startproc
.LVL42:
	stp	x29, x30, [sp, -48]!
	.cfi_def_cfa_offset 48
	.cfi_offset 29, -48
	.cfi_offset 30, -40
	add	x29, sp, 0
	.cfi_def_cfa_register 29
	stp	x19, x20, [sp, 16]
	.cfi_offset 19, -32
	.cfi_offset 20, -24
	mov	x19, x0
	stp	x21, x22, [sp, 32]
	.cfi_offset 21, -16
	.cfi_offset 22, -8
	.loc 1 713 0
	mov	w20, w1
	mov	x21, x2
	mov	w22, w3
	.loc 1 714 0
	bl	dev_get_driver_data
.LVL43:
	.loc 1 716 0
	ldr	x4, [x0]
	mov	w3, w22
	mov	x2, x21
	mov	w1, w20
	mov	x0, x19
.LVL44:
	.loc 1 717 0
	ldp	x21, x22, [sp, 32]
.LVL45:
	ldp	x19, x20, [sp, 16]
.LVL46:
	ldp	x29, x30, [sp], 48
	.cfi_restore 30
	.cfi_restore 29
	.cfi_restore 21
	.cfi_restore 22
	.cfi_restore 19
	.cfi_restore 20
	.cfi_def_cfa 31, 0
	.loc 1 716 0
	br	x4
.LVL47:
	.cfi_endproc
.LFE282:
	.size	secure_otp_read, .-secure_otp_read
	.section	.text.rockchip_secure_otp_ofdata_to_platdata,"ax",@progbits
	.align	2
	.type	rockchip_secure_otp_ofdata_to_platdata, %function
rockchip_secure_otp_ofdata_to_platdata:
.LFB286:
	.loc 1 758 0
	.cfi_startproc
.LVL48:
	stp	x29, x30, [sp, -32]!
	.cfi_def_cfa_offset 32
	.cfi_offset 29, -32
	.cfi_offset 30, -24
	add	x29, sp, 0
	.cfi_def_cfa_register 29
	stp	x19, x20, [sp, 16]
	.cfi_offset 19, -16
	.cfi_offset 20, -8
	.loc 1 758 0
	mov	x20, x0
	.loc 1 759 0
	bl	dev_get_platdata
.LVL49:
	mov	x19, x0
.LVL50:
	.loc 1 761 0
	mov	x0, x20
.LVL51:
	bl	dev_read_addr_ptr
.LVL52:
	.loc 1 762 0
	mov	w2, 0
	adrp	x1, .LC0
	.loc 1 761 0
	str	x0, [x19]
	.loc 1 762 0
	add	x1, x1, :lo12:.LC0
	mov	x0, x20
	bl	dev_read_u32_default
.LVL53:
	.loc 1 763 0
	uxtw	x0, w0
	str	x0, [x19, 8]
	.loc 1 764 0
	mov	w2, 0
	mov	x0, x20
	adrp	x1, .LC1
	add	x1, x1, :lo12:.LC1
	bl	dev_read_u32_default
.LVL54:
	.loc 1 765 0
	uxtw	x0, w0
	str	x0, [x19, 16]
	.loc 1 766 0
	mov	w2, 0
	mov	x0, x20
	adrp	x1, .LC2
	add	x1, x1, :lo12:.LC2
	bl	dev_read_u32_default
.LVL55:
	.loc 1 767 0
	uxtw	x0, w0
	str	x0, [x19, 24]
	.loc 1 770 0
	mov	w0, 0
	ldp	x19, x20, [sp, 16]
.LVL56:
	ldp	x29, x30, [sp], 32
	.cfi_restore 30
	.cfi_restore 29
	.cfi_restore 19
	.cfi_restore 20
	.cfi_def_cfa 31, 0
	ret
	.cfi_endproc
.LFE286:
	.size	rockchip_secure_otp_ofdata_to_platdata, .-rockchip_secure_otp_ofdata_to_platdata
	.section	.text.rk3568_spl_rockchip_otp_start,"ax",@progbits
	.align	2
	.type	rk3568_spl_rockchip_otp_start, %function
rk3568_spl_rockchip_otp_start:
.LFB270:
	.loc 1 93 0
	.cfi_startproc
.LVL57:
	stp	x29, x30, [sp, -32]!
	.cfi_def_cfa_offset 32
	.cfi_offset 29, -32
	.cfi_offset 30, -24
	add	x29, sp, 0
	.cfi_def_cfa_register 29
	str	x19, [sp, 16]
	.cfi_offset 19, -16
	.loc 1 93 0
	mov	x19, x1
.LBB50:
	.loc 1 94 0
#APP
// 94 "drivers/misc/rockchip-secure-otp.c" 1
	dmb sy
// 0 "" 2
#NO_APP
	mov	w1, 16
.LVL58:
	sdiv	w3, w3, w1
.LVL59:
	mov	w1, -65536
	lsl	w3, w3, 2
	sxtw	x3, w3
	str	w1, [x3, x2]
.LVL60:
.LBE50:
.LBB51:
	.loc 1 95 0
#APP
// 95 "drivers/misc/rockchip-secure-otp.c" 1
	dmb sy
// 0 "" 2
#NO_APP
	mov	w1, 131074
	str	w1, [x0]
.LVL61:
.LBE51:
.LBB52:
	.loc 1 96 0
#APP
// 96 "drivers/misc/rockchip-secure-otp.c" 1
	dmb sy
// 0 "" 2
#NO_APP
	mov	w0, -2147450880
.LVL62:
	str	w0, [x19]
.LBE52:
	.loc 1 97 0
	mov	x0, 2
	bl	udelay
.LVL63:
.LBB53:
	.loc 1 98 0
#APP
// 98 "drivers/misc/rockchip-secure-otp.c" 1
	dmb sy
// 0 "" 2
#NO_APP
	mov	w0, -2147483648
	str	w0, [x19]
.LBE53:
	.loc 1 100 0
	ldr	x19, [sp, 16]
.LVL64:
	.loc 1 99 0
	mov	x0, 1
	.loc 1 100 0
	ldp	x29, x30, [sp], 32
	.cfi_restore 30
	.cfi_restore 29
	.cfi_restore 19
	.cfi_def_cfa 31, 0
	.loc 1 99 0
	b	udelay
.LVL65:
	.cfi_endproc
.LFE270:
	.size	rk3568_spl_rockchip_otp_start, .-rk3568_spl_rockchip_otp_start
	.section	.text.rockchip_secure_otp_check_flag.isra.0,"ax",@progbits
	.align	2
	.type	rockchip_secure_otp_check_flag.isra.0, %function
rockchip_secure_otp_check_flag.isra.0:
.LFB287:
	.loc 1 176 0
	.cfi_startproc
	stp	x29, x30, [sp, -32]!
	.cfi_def_cfa_offset 32
	.cfi_offset 29, -32
	.cfi_offset 30, -24
	add	x29, sp, 0
	.cfi_def_cfa_register 29
	stp	x19, x20, [sp, 16]
	.cfi_offset 19, -16
	.cfi_offset 20, -8
	.loc 1 176 0
	mov	w19, 34465
	mov	x20, x0
	movk	w19, 0x1, lsl 16
.L23:
.LVL66:
.LBB54:
	.loc 1 182 0
	ldr	x0, [x20]
	ldr	w1, [x0, 44]
.LVL67:
#APP
// 182 "drivers/misc/rockchip-secure-otp.c" 1
	dmb sy
// 0 "" 2
.LVL68:
#NO_APP
.LBE54:
	.loc 1 183 0
	and	w0, w1, 16
	tbz	x1, 4, .L21
	.loc 1 186 0
	subs	w19, w19, #1
.LVL69:
	beq	.L24
.LVL70:
	.loc 1 192 0
	mov	x0, 1
	bl	udelay
.LVL71:
	b	.L23
.LVL72:
.L24:
	.loc 1 187 0
	mov	w0, -1
.LVL73:
.L21:
	.loc 1 196 0
	ldp	x19, x20, [sp, 16]
	ldp	x29, x30, [sp], 32
	.cfi_restore 30
	.cfi_restore 29
	.cfi_restore 19
	.cfi_restore 20
	.cfi_def_cfa 31, 0
	ret
	.cfi_endproc
.LFE287:
	.size	rockchip_secure_otp_check_flag.isra.0, .-rockchip_secure_otp_check_flag.isra.0
	.section	.text.rockchip_secure_otp_wait_flag.isra.1,"ax",@progbits
	.align	2
	.type	rockchip_secure_otp_wait_flag.isra.1, %function
rockchip_secure_otp_wait_flag.isra.1:
.LFB288:
	.loc 1 154 0
	.cfi_startproc
	stp	x29, x30, [sp, -32]!
	.cfi_def_cfa_offset 32
	.cfi_offset 29, -32
	.cfi_offset 30, -24
	add	x29, sp, 0
	.cfi_def_cfa_register 29
	stp	x19, x20, [sp, 16]
	.cfi_offset 19, -16
	.cfi_offset 20, -8
	.loc 1 154 0
	mov	x20, x0
	mov	w19, 20001
.L31:
.LVL74:
.LBB55:
	.loc 1 160 0
	ldr	x0, [x20]
	ldr	w0, [x0, 44]
.LVL75:
#APP
// 160 "drivers/misc/rockchip-secure-otp.c" 1
	dmb sy
// 0 "" 2
.LVL76:
#NO_APP
.LBE55:
	.loc 1 161 0
	tbnz	x0, 4, .L32
	.loc 1 164 0
	subs	w19, w19, #1
.LVL77:
	beq	.L33
	.loc 1 169 0
	mov	x0, 1
.LVL78:
	bl	udelay
.LVL79:
	b	.L31
.LVL80:
.L32:
	.loc 1 157 0
	mov	w0, 0
.LVL81:
.L29:
	.loc 1 174 0
	ldp	x19, x20, [sp, 16]
	ldp	x29, x30, [sp], 32
	.cfi_remember_state
	.cfi_restore 30
	.cfi_restore 29
	.cfi_restore 19
	.cfi_restore 20
	.cfi_def_cfa 31, 0
	ret
.LVL82:
.L33:
	.cfi_restore_state
	.loc 1 165 0
	mov	w0, -1
.LVL83:
	b	.L29
	.cfi_endproc
.LFE288:
	.size	rockchip_secure_otp_wait_flag.isra.1, .-rockchip_secure_otp_wait_flag.isra.1
	.section	.text.rockchip_secure_otp_wait_status.isra.2,"ax",@progbits
	.align	2
	.type	rockchip_secure_otp_wait_status.isra.2, %function
rockchip_secure_otp_wait_status.isra.2:
.LFB289:
	.loc 1 134 0
	.cfi_startproc
.LVL84:
	stp	x29, x30, [sp, -48]!
	.cfi_def_cfa_offset 48
	.cfi_offset 29, -48
	.cfi_offset 30, -40
	add	x29, sp, 0
	.cfi_def_cfa_register 29
	stp	x19, x20, [sp, 16]
	.cfi_offset 19, -32
	.cfi_offset 20, -24
	mov	w19, w1
	str	x21, [sp, 32]
	.cfi_offset 21, -16
	.loc 1 134 0
	mov	x21, x0
	mov	w20, 10000
.LVL85:
.L36:
.LBB62:
	.loc 1 139 0
	ldr	x0, [x21]
	ldr	w0, [x0, 772]
.LVL86:
#APP
// 139 "drivers/misc/rockchip-secure-otp.c" 1
	dmb sy
// 0 "" 2
#NO_APP
.LBE62:
	tst	w0, w19
	beq	.L38
.LBB63:
	.loc 1 149 0
	orr	w19, w19, -65536
.LVL87:
#APP
// 149 "drivers/misc/rockchip-secure-otp.c" 1
	dmb sy
// 0 "" 2
#NO_APP
	ldr	x0, [x21]
.LVL88:
	str	w19, [x0, 772]
.LBE63:
	.loc 1 151 0
	mov	w0, 0
	b	.L35
.LVL89:
.L38:
	.loc 1 140 0
	mov	x0, 1
.LVL90:
	bl	udelay
.LVL91:
	.loc 1 142 0
	subs	w20, w20, #1
.LVL92:
	bne	.L36
.LVL93:
.LBB64:
.LBB65:
	.loc 1 143 0
	adrp	x1, .LANCHOR0
	adrp	x0, .LC3
	add	x1, x1, :lo12:.LANCHOR0
	add	x0, x0, :lo12:.LC3
	bl	printf
.LVL94:
	mov	w0, -110
.LVL95:
.L35:
.LBE65:
.LBE64:
	.loc 1 152 0
	ldp	x19, x20, [sp, 16]
.LVL96:
	ldr	x21, [sp, 32]
	ldp	x29, x30, [sp], 48
	.cfi_restore 30
	.cfi_restore 29
	.cfi_restore 21
	.cfi_restore 19
	.cfi_restore 20
	.cfi_def_cfa 31, 0
	ret
	.cfi_endproc
.LFE289:
	.size	rockchip_secure_otp_wait_status.isra.2, .-rockchip_secure_otp_wait_status.isra.2
	.section	.text.rockchip_secure_otp_ecc_enable.constprop.5,"ax",@progbits
	.align	2
	.type	rockchip_secure_otp_ecc_enable.constprop.5, %function
rockchip_secure_otp_ecc_enable.constprop.5:
.LFB292:
	.loc 1 198 0
	.cfi_startproc
.LVL97:
	stp	x29, x30, [sp, -32]!
	.cfi_def_cfa_offset 32
	.cfi_offset 29, -32
	.cfi_offset 30, -24
	add	x29, sp, 0
	.cfi_def_cfa_register 29
	str	x19, [sp, 16]
	.cfi_offset 19, -16
.LBB80:
	.loc 1 203 0
#APP
// 203 "drivers/misc/rockchip-secure-otp.c" 1
	dmb sy
// 0 "" 2
#NO_APP
	ldr	x2, [x0]
	mov	w3, 512
	movk	w3, 0xff00, lsl 16
	str	w3, [x2, 32]
.LVL98:
.LBE80:
.LBB81:
	.loc 1 204 0
#APP
// 204 "drivers/misc/rockchip-secure-otp.c" 1
	dmb sy
// 0 "" 2
#NO_APP
	ldr	x2, [x0]
	mov	w3, -65535
	str	w3, [x2, 36]
.LVL99:
.LBE81:
.LBB82:
	.loc 1 205 0
#APP
// 205 "drivers/misc/rockchip-secure-otp.c" 1
	dmb sy
// 0 "" 2
#NO_APP
	ldr	x2, [x0]
	mov	w3, 250
	str	w3, [x2, 4096]
.LVL100:
.LBE82:
.LBB83:
	.loc 1 207 0
#APP
// 207 "drivers/misc/rockchip-secure-otp.c" 1
	dmb sy
// 0 "" 2
#NO_APP
	ldr	x2, [x0]
	str	wzr, [x2, 4100]
.LVL101:
.LBE83:
.LBB84:
	.loc 1 211 0
#APP
// 211 "drivers/misc/rockchip-secure-otp.c" 1
	dmb sy
// 0 "" 2
#NO_APP
	ldr	x1, [x0]
	mov	w2, 65537
	str	w2, [x1, 32]
.LBE84:
	.loc 1 213 0
	mov	w1, 2
	bl	rockchip_secure_otp_wait_status.isra.2
.LVL102:
	mov	w19, w0
.LVL103:
	.loc 1 214 0
	tbz	w0, #31, .L41
.LVL104:
.LBB85:
.LBB86:
	.loc 1 215 0
	adrp	x1, .LANCHOR1
	adrp	x0, .LC4
.LVL105:
	add	x1, x1, :lo12:.LANCHOR1
	add	x0, x0, :lo12:.LC4
	bl	printf
.LVL106:
.L41:
.LBE86:
.LBE85:
	.loc 1 218 0
	mov	w0, w19
	ldr	x19, [sp, 16]
.LVL107:
	ldp	x29, x30, [sp], 32
	.cfi_restore 30
	.cfi_restore 29
	.cfi_restore 19
	.cfi_def_cfa 31, 0
	ret
	.cfi_endproc
.LFE292:
	.size	rockchip_secure_otp_ecc_enable.constprop.5, .-rockchip_secure_otp_ecc_enable.constprop.5
	.section	.text.rk3568_secure_otp_read,"ax",@progbits
	.align	2
	.type	rk3568_secure_otp_read, %function
rk3568_secure_otp_read:
.LFB279:
	.loc 1 465 0
	.cfi_startproc
.LVL108:
	stp	x29, x30, [sp, -80]!
	.cfi_def_cfa_offset 80
	.cfi_offset 29, -80
	.cfi_offset 30, -72
	add	x29, sp, 0
	.cfi_def_cfa_register 29
	stp	x19, x20, [sp, 16]
	.cfi_offset 19, -64
	.cfi_offset 20, -56
	mov	w20, w1
	stp	x21, x22, [sp, 32]
	.cfi_offset 21, -48
	.cfi_offset 22, -40
	mov	x21, x2
	stp	x23, x24, [sp, 48]
	mov	x22, x0
	.cfi_offset 23, -32
	.cfi_offset 24, -24
	mov	w23, w3
	stp	x25, x26, [sp, 64]
	.cfi_offset 25, -16
	.cfi_offset 26, -8
	.loc 1 466 0
	bl	dev_get_platdata
.LVL109:
	mov	x19, x0
.LVL110:
	.loc 1 467 0
	mov	x0, x22
.LVL111:
	bl	dev_get_driver_data
.LVL112:
	.loc 1 472 0
	ldr	x4, [x0, 16]
	.loc 1 467 0
	mov	x24, x0
.LVL113:
	.loc 1 472 0
	ldr	x1, [x19, 24]
	mov	w3, w20
	ldp	x0, x2, [x19, 8]
.LVL114:
	blr	x4
.LVL115:
	.loc 1 475 0
	mov	x0, x19
	bl	rockchip_secure_otp_ecc_enable.constprop.5
.LVL116:
.LBB87:
	.loc 1 476 0
#APP
// 476 "drivers/misc/rockchip-secure-otp.c" 1
	dmb sy
// 0 "" 2
#NO_APP
	ldr	x0, [x19]
	mov	w25, 65537
.LBE87:
	.loc 1 470 0
	mov	w22, 0
.LVL117:
	.loc 1 483 0
	mov	w26, 136
.LBB88:
	.loc 1 476 0
	str	w25, [x0, 256]
.LBE88:
	.loc 1 477 0
	mov	x0, 50
	bl	udelay
.LVL118:
.L45:
	.loc 1 478 0
	cbz	w23, .L49
	.loc 1 480 0
	cmp	w20, 896
	bgt	.L53
	.loc 1 483 0
	sub	w0, w20, #144
	cmp	w0, 60
	ccmp	w20, w26, 4, hi
	beq	.L47
	.loc 1 483 0 is_stmt 0 discriminator 1
	sub	w0, w20, #457
	cmp	w0, 438
	bls	.L47
	.loc 1 486 0 is_stmt 1
	adrp	x0, .LC5
	add	x0, x0, :lo12:.LC5
	bl	printf
.LVL119:
.L53:
	.loc 1 481 0
	mov	w22, -1
.LVL120:
	b	.L44
.LVL121:
.L47:
.LBB89:
	.loc 1 490 0
	orr	w1, w20, -65536
.LVL122:
#APP
// 490 "drivers/misc/rockchip-secure-otp.c" 1
	dmb sy
// 0 "" 2
#NO_APP
	ldr	x0, [x19]
.LBE89:
	.loc 1 492 0
	add	w20, w20, 2
.LVL123:
.LBB90:
	.loc 1 490 0
	str	w1, [x0, 260]
.LBE90:
.LBB91:
	.loc 1 493 0
#APP
// 493 "drivers/misc/rockchip-secure-otp.c" 1
	dmb sy
// 0 "" 2
#NO_APP
	ldr	x0, [x19]
.LBE91:
	.loc 1 495 0
	mov	w1, 4
.LVL124:
.LBB92:
	.loc 1 493 0
	str	w25, [x0, 264]
.LVL125:
.LBE92:
	.loc 1 495 0
	mov	x0, x19
	bl	rockchip_secure_otp_wait_status.isra.2
.LVL126:
	mov	w22, w0
.LVL127:
	.loc 1 496 0
	tbz	w0, #31, .L48
	.loc 1 497 0
	adrp	x1, .LANCHOR2
	adrp	x0, .LC6
.LVL128:
	add	x1, x1, :lo12:.LANCHOR2
	add	x0, x0, :lo12:.LC6
	bl	printf
.LVL129:
.L49:
.LBB93:
	.loc 1 511 0
#APP
// 511 "drivers/misc/rockchip-secure-otp.c" 1
	dmb sy
// 0 "" 2
#NO_APP
	ldr	x0, [x19]
	mov	w1, 65536
.LBE93:
	.loc 1 513 0
	ldr	x2, [x19, 16]
	mov	w3, w20
	ldr	x4, [x24, 24]
.LBB94:
	.loc 1 511 0
	str	w1, [x0, 256]
.LBE94:
	.loc 1 513 0
	ldr	x0, [x19, 8]
	ldr	x1, [x19, 24]
	blr	x4
.LVL130:
.L44:
	.loc 1 518 0
	mov	w0, w22
	ldp	x19, x20, [sp, 16]
.LVL131:
	ldp	x21, x22, [sp, 32]
	ldp	x23, x24, [sp, 48]
.LVL132:
	ldp	x25, x26, [sp, 64]
	ldp	x29, x30, [sp], 80
	.cfi_remember_state
	.cfi_restore 30
	.cfi_restore 29
	.cfi_restore 25
	.cfi_restore 26
	.cfi_restore 23
	.cfi_restore 24
	.cfi_restore 21
	.cfi_restore 22
	.cfi_restore 19
	.cfi_restore 20
	.cfi_def_cfa 31, 0
	ret
.LVL133:
.L48:
	.cfi_restore_state
.LBB95:
	.loc 1 501 0
	ldr	x0, [x19]
.LVL134:
	ldrh	w0, [x0, 292]
	and	w0, w0, 65535
.LVL135:
#APP
// 501 "drivers/misc/rockchip-secure-otp.c" 1
	dmb sy
// 0 "" 2
.LVL136:
#NO_APP
.LBE95:
	.loc 1 503 0
	strb	w0, [x21]
	.loc 1 504 0
	cmp	w23, 1
	beq	.L49
.LVL137:
	.loc 1 505 0
	lsr	w0, w0, 8
.LVL138:
	.loc 1 506 0
	sub	w23, w23, #2
.LVL139:
	.loc 1 505 0
	strb	w0, [x21, 1]
	add	x21, x21, 2
.LVL140:
	b	.L45
	.cfi_endproc
.LFE279:
	.size	rk3568_secure_otp_read, .-rk3568_secure_otp_read
	.section	.text.rockchip_secure_otp_read,"ax",@progbits
	.align	2
	.type	rockchip_secure_otp_read, %function
rockchip_secure_otp_read:
.LFB276:
	.loc 1 222 0
	.cfi_startproc
.LVL141:
	stp	x29, x30, [sp, -80]!
	.cfi_def_cfa_offset 80
	.cfi_offset 29, -80
	.cfi_offset 30, -72
	add	x29, sp, 0
	.cfi_def_cfa_register 29
	stp	x19, x20, [sp, 16]
	.cfi_offset 19, -64
	.cfi_offset 20, -56
	mov	w20, w1
	stp	x23, x24, [sp, 48]
	.cfi_offset 23, -32
	.cfi_offset 24, -24
	mov	w24, w3
	stp	x21, x22, [sp, 32]
	mov	x23, x0
	.cfi_offset 21, -48
	.cfi_offset 22, -40
	mov	x22, x2
	str	x25, [sp, 64]
	.cfi_offset 25, -16
	.loc 1 223 0
	bl	dev_get_platdata
.LVL142:
	mov	x19, x0
.LVL143:
	.loc 1 224 0
	mov	x0, x23
.LVL144:
	bl	dev_get_driver_data
.LVL145:
	.loc 1 230 0
	ldr	x4, [x0, 16]
	.loc 1 224 0
	mov	x25, x0
.LVL146:
	.loc 1 230 0
	ldr	x1, [x19, 24]
	mov	w3, w20
	ldp	x0, x2, [x19, 8]
.LVL147:
	blr	x4
.LVL148:
	.loc 1 233 0
	mov	x0, x19
	bl	rockchip_secure_otp_ecc_enable.constprop.5
.LVL149:
.LBB96:
	.loc 1 234 0
#APP
// 234 "drivers/misc/rockchip-secure-otp.c" 1
	dmb sy
// 0 "" 2
#NO_APP
	ldr	x0, [x19]
	mov	w23, 65537
.LVL150:
	add	w24, w24, w20
.LVL151:
.LBE96:
	.loc 1 227 0
	mov	w21, 0
.LBB97:
	.loc 1 234 0
	str	w23, [x0, 256]
.LBE97:
	.loc 1 235 0
	mov	x0, 50
	bl	udelay
.LVL152:
.L56:
	.loc 1 236 0
	cmp	w20, w24
	beq	.L60
	.loc 1 238 0
	cmp	w20, 448
	bgt	.L62
	.loc 1 241 0
	sub	w1, w20, #16
	cmp	w20, 0
	mov	w0, w20
	ccmp	w1, 31, 0, ne
	bls	.L58
	.loc 1 241 0 is_stmt 0 discriminator 1
	sub	w1, w20, #128
	cmp	w1, 263
	bls	.L58
	.loc 1 244 0 is_stmt 1
	adrp	x0, .LC5
	add	x0, x0, :lo12:.LC5
	bl	printf
.LVL153:
.L62:
	.loc 1 239 0
	mov	w21, -1
.LVL154:
	b	.L55
.LVL155:
.L58:
.LBB98:
	.loc 1 248 0
	add	w20, w20, 1
.LVL156:
	orr	w0, w0, -65536
.LVL157:
#APP
// 248 "drivers/misc/rockchip-secure-otp.c" 1
	dmb sy
// 0 "" 2
#NO_APP
	ldr	x1, [x19]
	str	w0, [x1, 260]
.LVL158:
.LBE98:
.LBB99:
	.loc 1 250 0
#APP
// 250 "drivers/misc/rockchip-secure-otp.c" 1
	dmb sy
// 0 "" 2
#NO_APP
	ldr	x0, [x19]
.LVL159:
.LBE99:
	.loc 1 252 0
	mov	w1, 4
.LVL160:
.LBB100:
	.loc 1 250 0
	str	w23, [x0, 264]
.LVL161:
.LBE100:
	.loc 1 252 0
	mov	x0, x19
	bl	rockchip_secure_otp_wait_status.isra.2
.LVL162:
	mov	w21, w0
.LVL163:
	.loc 1 253 0
	tbz	w0, #31, .L59
	.loc 1 254 0
	adrp	x1, .LANCHOR3
	adrp	x0, .LC6
.LVL164:
	add	x1, x1, :lo12:.LANCHOR3
	add	x0, x0, :lo12:.LC6
	bl	printf
.LVL165:
.L60:
.LBB101:
	.loc 1 271 0
#APP
// 271 "drivers/misc/rockchip-secure-otp.c" 1
	dmb sy
// 0 "" 2
#NO_APP
	ldr	x0, [x19]
	mov	w1, 65536
.LBE101:
	.loc 1 273 0
	ldr	x2, [x19, 16]
	mov	w3, w20
	ldr	x4, [x25, 24]
.LBB102:
	.loc 1 271 0
	str	w1, [x0, 256]
.LBE102:
	.loc 1 273 0
	ldr	x0, [x19, 8]
	ldr	x1, [x19, 24]
	blr	x4
.LVL166:
.L55:
	.loc 1 278 0
	mov	w0, w21
	ldr	x25, [sp, 64]
.LVL167:
	ldp	x19, x20, [sp, 16]
.LVL168:
	ldp	x21, x22, [sp, 32]
.LVL169:
	ldp	x23, x24, [sp, 48]
	ldp	x29, x30, [sp], 80
	.cfi_remember_state
	.cfi_restore 30
	.cfi_restore 29
	.cfi_restore 25
	.cfi_restore 23
	.cfi_restore 24
	.cfi_restore 21
	.cfi_restore 22
	.cfi_restore 19
	.cfi_restore 20
	.cfi_def_cfa 31, 0
	ret
.LVL170:
.L59:
	.cfi_restore_state
.LBB103:
	.loc 1 258 0
	ldr	x0, [x19]
.LVL171:
	ldrb	w0, [x0, 292]
	and	w0, w0, 255
.LVL172:
#APP
// 258 "drivers/misc/rockchip-secure-otp.c" 1
	dmb sy
// 0 "" 2
.LVL173:
#NO_APP
.LBE103:
	.loc 1 267 0
	strb	w0, [x22], 1
.LVL174:
	b	.L56
	.cfi_endproc
.LFE276:
	.size	rockchip_secure_otp_read, .-rockchip_secure_otp_read
	.section	.text.rk3568_secure_otp_write,"ax",@progbits
	.align	2
	.type	rk3568_secure_otp_write, %function
rk3568_secure_otp_write:
.LFB281:
	.loc 1 671 0
	.cfi_startproc
.LVL175:
	stp	x29, x30, [sp, -128]!
	.cfi_def_cfa_offset 128
	.cfi_offset 29, -128
	.cfi_offset 30, -120
	add	x29, sp, 0
	.cfi_def_cfa_register 29
	stp	x19, x20, [sp, 16]
	.cfi_offset 19, -112
	.cfi_offset 20, -104
	mov	w20, w3
	stp	x25, x26, [sp, 64]
	mov	w19, w1
	stp	x21, x22, [sp, 32]
	stp	x23, x24, [sp, 48]
	stp	x27, x28, [sp, 80]
	.cfi_offset 25, -64
	.cfi_offset 26, -56
	.cfi_offset 21, -96
	.cfi_offset 22, -88
	.cfi_offset 23, -80
	.cfi_offset 24, -72
	.cfi_offset 27, -48
	.cfi_offset 28, -40
	.loc 1 671 0
	str	x2, [x29, 104]
	str	x0, [x29, 120]
	.loc 1 672 0
	bl	dev_get_platdata
.LVL176:
	mov	x26, x0
.LVL177:
	.loc 1 674 0
	sxtw	x0, w20
.LVL178:
	bl	malloc_simple
.LVL179:
	.loc 1 677 0
	tbz	x20, 0, .L65
	.loc 1 678 0
	adrp	x0, .LC7
.LVL180:
	add	x0, x0, :lo12:.LC7
.LVL181:
.L90:
.LBB169:
.LBB170:
	.loc 1 534 0
	bl	printf
.LVL182:
	b	.L91
.LVL183:
.L65:
	mov	x21, x0
.LBE170:
.LBE169:
	.loc 1 682 0
	cbnz	x0, .L67
.LVL184:
.L91:
.LBB248:
.LBB244:
	.loc 1 534 0
	mov	w28, -1
.L64:
.LBE244:
.LBE248:
	.loc 1 709 0
	mov	w0, w28
	ldp	x19, x20, [sp, 16]
	ldp	x21, x22, [sp, 32]
	ldp	x23, x24, [sp, 48]
	ldp	x25, x26, [sp, 64]
.LVL185:
	ldp	x27, x28, [sp, 80]
	ldp	x29, x30, [sp], 128
	.cfi_remember_state
	.cfi_restore 30
	.cfi_restore 29
	.cfi_restore 27
	.cfi_restore 28
	.cfi_restore 25
	.cfi_restore 26
	.cfi_restore 23
	.cfi_restore 24
	.cfi_restore 21
	.cfi_restore 22
	.cfi_restore 19
	.cfi_restore 20
	.cfi_def_cfa 31, 0
.LVL186:
	ret
.LVL187:
.L67:
	.cfi_restore_state
	.loc 1 685 0
	mov	x2, x0
	ldr	x0, [x29, 120]
.LVL188:
	mov	w3, w20
	mov	w1, w19
	bl	rockchip_secure_otp_read
.LVL189:
	.loc 1 686 0
	cbnz	w0, .L91
	mov	x0, 0
.LVL190:
.L70:
	.loc 1 691 0 discriminator 1
	cmp	w20, w0
	bgt	.L71
	.loc 1 701 0
	mov	w0, 2
.LVL191:
	mov	x24, 0
	sdiv	w0, w20, w0
.LBB249:
.LBB245:
	.loc 1 656 0
	adrp	x20, .LANCHOR4
.LVL192:
	add	x20, x20, :lo12:.LANCHOR4
.LBE245:
.LBE249:
	.loc 1 701 0
	str	w0, [x29, 116]
.LVL193:
.L72:
	.loc 1 701 0 is_stmt 0 discriminator 1
	ldr	w0, [x29, 116]
	cmp	w0, w24
	bgt	.L85
	mov	w28, 0
	b	.L64
.LVL194:
.L71:
	add	x0, x0, 1
.LVL195:
	.loc 1 692 0 is_stmt 1
	add	x1, x21, x0
	ldrb	w1, [x1, -1]
	cbz	w1, .L70
	.loc 1 693 0
	adrp	x0, .LC8
	add	x0, x0, :lo12:.LC8
	b	.L90
.LVL196:
.L85:
	.loc 1 702 0
	ldr	x0, [x29, 104]
	ldrh	w23, [x0, x24, lsl 1]
.LVL197:
.LBB250:
.LBB246:
	.loc 1 525 0
	ldr	x0, [x29, 120]
	bl	dev_get_driver_data
.LVL198:
	mov	x27, x0
.LVL199:
	.loc 1 527 0
	cmp	w19, 896
	bgt	.L91
	.loc 1 531 0
	sub	w0, w19, #144
.LVL200:
	cmp	w0, 60
	mov	w0, 136
	ccmp	w19, w0, 4, hi
	beq	.L73
	sub	w0, w19, #457
	cmp	w0, 438
	bls	.L73
	.loc 1 534 0
	adrp	x0, .LC5
	add	x0, x0, :lo12:.LC5
	b	.L90
.L73:
	.loc 1 538 0
	cbnz	w23, .L74
.LVL201:
.L84:
	add	x24, x24, 1
.LVL202:
	add	w19, w19, 2
	b	.L72
.LVL203:
.L74:
	.loc 1 541 0
	ldp	x0, x2, [x26, 8]
	mov	w3, w19
	ldr	x1, [x26, 24]
	ldr	x5, [x27, 16]
	blr	x5
.LVL204:
.LBB171:
	.loc 1 544 0
#APP
// 544 "drivers/misc/rockchip-secure-otp.c" 1
	dmb sy
// 0 "" 2
#NO_APP
	ldr	x0, [x26]
	mov	w1, 65536
	str	w1, [x0, 256]
.LVL205:
.LBE171:
.LBB172:
	.loc 1 545 0
#APP
// 545 "drivers/misc/rockchip-secure-otp.c" 1
	dmb sy
// 0 "" 2
#NO_APP
	ldr	x0, [x26]
	mov	w1, 262148
	str	w1, [x0, 32]
.LVL206:
.LBE172:
.LBB173:
	.loc 1 546 0
#APP
// 546 "drivers/misc/rockchip-secure-otp.c" 1
	dmb sy
// 0 "" 2
#NO_APP
	ldr	x0, [x26]
	mov	w1, -65536
	str	w1, [x0, 40]
.LVL207:
.LBE173:
.LBB174:
	.loc 1 547 0
#APP
// 547 "drivers/misc/rockchip-secure-otp.c" 1
	dmb sy
// 0 "" 2
#NO_APP
	ldr	x0, [x26]
	mov	w1, 512
	movk	w1, 0xff00, lsl 16
	str	w1, [x0, 32]
.LVL208:
.LBE174:
.LBB175:
	.loc 1 548 0
#APP
// 548 "drivers/misc/rockchip-secure-otp.c" 1
	dmb sy
// 0 "" 2
#NO_APP
	ldr	x0, [x26]
	mov	w1, -65522
	str	w1, [x0, 36]
.LVL209:
.LBE175:
.LBB176:
	.loc 1 549 0
#APP
// 549 "drivers/misc/rockchip-secure-otp.c" 1
	dmb sy
// 0 "" 2
#NO_APP
	ldr	x0, [x26]
	mov	w25, 240
	str	w25, [x0, 4096]
.LVL210:
.LBE176:
.LBB177:
	.loc 1 550 0
#APP
// 550 "drivers/misc/rockchip-secure-otp.c" 1
	dmb sy
// 0 "" 2
#NO_APP
	ldr	x0, [x26]
	mov	w1, 1
	str	w1, [x0, 4100]
.LVL211:
.LBE177:
.LBB178:
	.loc 1 551 0
#APP
// 551 "drivers/misc/rockchip-secure-otp.c" 1
	dmb sy
// 0 "" 2
#NO_APP
	ldr	x0, [x26]
	mov	w21, 122
	str	w21, [x0, 4104]
.LVL212:
.LBE178:
.LBB179:
	.loc 1 552 0
#APP
// 552 "drivers/misc/rockchip-secure-otp.c" 1
	dmb sy
// 0 "" 2
#NO_APP
	ldr	x0, [x26]
	mov	w1, 37
	str	w1, [x0, 4108]
.LVL213:
.LBE179:
.LBB180:
	.loc 1 553 0
#APP
// 553 "drivers/misc/rockchip-secure-otp.c" 1
	dmb sy
// 0 "" 2
#NO_APP
	ldr	x0, [x26]
	str	wzr, [x0, 4112]
.LVL214:
.LBE180:
.LBB181:
	.loc 1 554 0
#APP
// 554 "drivers/misc/rockchip-secure-otp.c" 1
	dmb sy
// 0 "" 2
#NO_APP
	ldr	x0, [x26]
	str	wzr, [x0, 4116]
.LVL215:
.LBE181:
.LBB182:
	.loc 1 555 0
#APP
// 555 "drivers/misc/rockchip-secure-otp.c" 1
	dmb sy
// 0 "" 2
#NO_APP
	ldr	x0, [x26]
	str	wzr, [x0, 4120]
.LVL216:
.LBE182:
.LBB183:
	.loc 1 556 0
#APP
// 556 "drivers/misc/rockchip-secure-otp.c" 1
	dmb sy
// 0 "" 2
#NO_APP
	ldr	x0, [x26]
	mov	w1, 31
	str	w1, [x0, 4124]
.LVL217:
.LBE183:
.LBB184:
	.loc 1 557 0
#APP
// 557 "drivers/misc/rockchip-secure-otp.c" 1
	dmb sy
// 0 "" 2
#NO_APP
	ldr	x0, [x26]
	mov	w1, 11
	str	w1, [x0, 4128]
.LVL218:
.LBE184:
.LBB185:
	.loc 1 558 0
#APP
// 558 "drivers/misc/rockchip-secure-otp.c" 1
	dmb sy
// 0 "" 2
#NO_APP
	ldr	x0, [x26]
	mov	w1, 8
	str	w1, [x0, 4132]
.LVL219:
.LBE185:
.LBB186:
	.loc 1 559 0
#APP
// 559 "drivers/misc/rockchip-secure-otp.c" 1
	dmb sy
// 0 "" 2
#NO_APP
	ldr	x0, [x26]
	str	wzr, [x0, 4136]
.LVL220:
.LBE186:
.LBB187:
	.loc 1 560 0
#APP
// 560 "drivers/misc/rockchip-secure-otp.c" 1
	dmb sy
// 0 "" 2
#NO_APP
	ldr	x0, [x26]
	str	wzr, [x0, 4140]
.LVL221:
.LBE187:
.LBB188:
	.loc 1 561 0
#APP
// 561 "drivers/misc/rockchip-secure-otp.c" 1
	dmb sy
// 0 "" 2
#NO_APP
	ldr	x0, [x26]
	str	wzr, [x0, 4144]
.LBE188:
.LBB189:
	.loc 1 562 0
	and	w0, w19, 255
#APP
// 562 "drivers/misc/rockchip-secure-otp.c" 1
	dmb sy
// 0 "" 2
#NO_APP
	ldr	x1, [x26]
	str	w0, [x1, 4148]
.LBE189:
.LBB190:
	.loc 1 563 0
	ubfx	x1, x19, 8, 8
.LVL222:
#APP
// 563 "drivers/misc/rockchip-secure-otp.c" 1
	dmb sy
// 0 "" 2
#NO_APP
	ldr	x0, [x26]
	str	w1, [x0, 4152]
.LVL223:
.LBE190:
.LBB191:
	.loc 1 564 0
#APP
// 564 "drivers/misc/rockchip-secure-otp.c" 1
	dmb sy
// 0 "" 2
#NO_APP
	ldr	x0, [x26]
	mov	w22, 65537
.LBE191:
	.loc 1 565 0
	mov	w1, 2
.LVL224:
.LBB192:
	.loc 1 564 0
	str	w22, [x0, 32]
.LVL225:
.LBE192:
	.loc 1 565 0
	mov	x0, x26
	bl	rockchip_secure_otp_wait_status.isra.2
.LVL226:
	mov	w28, w0
.LVL227:
	.loc 1 566 0
	tbz	w0, #31, .L75
	.loc 1 567 0
	adrp	x0, .LC9
.LVL228:
	mov	x1, x20
	add	x0, x0, :lo12:.LC9
.LVL229:
.L89:
	.loc 1 656 0
	bl	printf
.LVL230:
.L76:
.LBB193:
	.loc 1 661 0
#APP
// 661 "drivers/misc/rockchip-secure-otp.c" 1
	dmb sy
// 0 "" 2
#NO_APP
	ldr	x0, [x26]
	mov	w1, -65533
.LBE193:
	.loc 1 662 0
	ldr	x2, [x26, 16]
	mov	w3, w19
	ldr	x6, [x27, 24]
.LBB194:
	.loc 1 661 0
	str	w1, [x0, 772]
.LBE194:
	.loc 1 662 0
	ldr	x0, [x26, 8]
	ldr	x1, [x26, 24]
	blr	x6
.LVL231:
.LBE246:
.LBE250:
	.loc 1 703 0
	cbz	w28, .L84
	b	.L64
.LVL232:
.L75:
.LBB251:
.LBB247:
.LBB195:
	.loc 1 571 0
#APP
// 571 "drivers/misc/rockchip-secure-otp.c" 1
	dmb sy
// 0 "" 2
#NO_APP
	ldr	x0, [x26]
.LVL233:
	mov	w1, 14848
	movk	w1, 0xff00, lsl 16
	str	w1, [x0, 32]
.LVL234:
.LBE195:
.LBB196:
	.loc 1 572 0
#APP
// 572 "drivers/misc/rockchip-secure-otp.c" 1
	dmb sy
// 0 "" 2
#NO_APP
	ldr	x0, [x26]
	str	w25, [x0, 4096]
.LVL235:
.LBE196:
.LBB197:
	.loc 1 573 0
#APP
// 573 "drivers/misc/rockchip-secure-otp.c" 1
	dmb sy
// 0 "" 2
#NO_APP
	ldr	x0, [x26]
	mov	w1, 1
	str	w1, [x0, 4100]
.LVL236:
.LBE197:
.LBB198:
	.loc 1 574 0
#APP
// 574 "drivers/misc/rockchip-secure-otp.c" 1
	dmb sy
// 0 "" 2
#NO_APP
	ldr	x0, [x26]
	str	w21, [x0, 4104]
.LVL237:
.LBE198:
.LBB199:
	.loc 1 575 0
#APP
// 575 "drivers/misc/rockchip-secure-otp.c" 1
	dmb sy
// 0 "" 2
#NO_APP
	ldr	x0, [x26]
	mov	w1, 21
	str	w1, [x0, 4108]
.LVL238:
.LBE199:
.LBB200:
	.loc 1 576 0
#APP
// 576 "drivers/misc/rockchip-secure-otp.c" 1
	dmb sy
// 0 "" 2
#NO_APP
	ldr	x0, [x26]
	mov	w1, 220
	str	w1, [x0, 4112]
.LVL239:
.LBE200:
.LBB201:
	.loc 1 577 0
#APP
// 577 "drivers/misc/rockchip-secure-otp.c" 1
	dmb sy
// 0 "" 2
#NO_APP
	ldr	x0, [x26]
	mov	w1, 146
	str	w1, [x0, 4116]
.LVL240:
.LBE201:
.LBB202:
	.loc 1 578 0
#APP
// 578 "drivers/misc/rockchip-secure-otp.c" 1
	dmb sy
// 0 "" 2
#NO_APP
	ldr	x0, [x26]
	mov	w1, 121
	str	w1, [x0, 4120]
.LVL241:
.LBE202:
.LBB203:
	.loc 1 579 0
#APP
// 579 "drivers/misc/rockchip-secure-otp.c" 1
	dmb sy
// 0 "" 2
#NO_APP
	ldr	x0, [x26]
	mov	w1, 129
	str	w1, [x0, 4124]
.LVL242:
.LBE203:
.LBB204:
	.loc 1 580 0
#APP
// 580 "drivers/misc/rockchip-secure-otp.c" 1
	dmb sy
// 0 "" 2
#NO_APP
	ldr	x0, [x26]
	mov	w1, 126
	str	w1, [x0, 4128]
.LVL243:
.LBE204:
.LBB205:
	.loc 1 581 0
#APP
// 581 "drivers/misc/rockchip-secure-otp.c" 1
	dmb sy
// 0 "" 2
#NO_APP
	ldr	x0, [x26]
	mov	w1, 33
	str	w1, [x0, 4132]
.LVL244:
.LBE205:
.LBB206:
	.loc 1 582 0
#APP
// 582 "drivers/misc/rockchip-secure-otp.c" 1
	dmb sy
// 0 "" 2
#NO_APP
	ldr	x0, [x26]
	mov	w1, 17
	str	w1, [x0, 4136]
.LVL245:
.LBE206:
.LBB207:
	.loc 1 583 0
#APP
// 583 "drivers/misc/rockchip-secure-otp.c" 1
	dmb sy
// 0 "" 2
#NO_APP
	ldr	x0, [x26]
	mov	w1, 157
	str	w1, [x0, 4140]
.LVL246:
.LBE207:
.LBB208:
	.loc 1 584 0
#APP
// 584 "drivers/misc/rockchip-secure-otp.c" 1
	dmb sy
// 0 "" 2
#NO_APP
	ldr	x0, [x26]
	mov	w21, 2
	str	w21, [x0, 4144]
.LVL247:
.LBE208:
.LBB209:
	.loc 1 585 0
#APP
// 585 "drivers/misc/rockchip-secure-otp.c" 1
	dmb sy
// 0 "" 2
#NO_APP
	ldr	x0, [x26]
	str	wzr, [x0, 4148]
.LVL248:
.LBE209:
.LBB210:
	.loc 1 586 0
#APP
// 586 "drivers/misc/rockchip-secure-otp.c" 1
	dmb sy
// 0 "" 2
#NO_APP
	ldr	x0, [x26]
	str	wzr, [x0, 4152]
.LVL249:
.LBE210:
.LBB211:
	.loc 1 587 0
#APP
// 587 "drivers/misc/rockchip-secure-otp.c" 1
	dmb sy
// 0 "" 2
#NO_APP
	ldr	x0, [x26]
.LBE211:
	.loc 1 588 0
	mov	w1, w21
.LBB212:
	.loc 1 587 0
	str	w22, [x0, 32]
.LBE212:
	.loc 1 588 0
	mov	x0, x26
	bl	rockchip_secure_otp_wait_status.isra.2
.LVL250:
	mov	w28, w0
.LVL251:
	.loc 1 589 0
	tbz	w0, #31, .L77
	.loc 1 590 0
	adrp	x0, .LC10
.LVL252:
	mov	x1, x20
	add	x0, x0, :lo12:.LC10
	b	.L89
.LVL253:
.L77:
.LBB213:
	.loc 1 594 0
#APP
// 594 "drivers/misc/rockchip-secure-otp.c" 1
	dmb sy
// 0 "" 2
#NO_APP
	ldr	x0, [x26]
.LVL254:
	mov	w1, 512
	movk	w1, 0xff00, lsl 16
	str	w1, [x0, 32]
.LVL255:
.LBE213:
.LBB214:
	.loc 1 595 0
#APP
// 595 "drivers/misc/rockchip-secure-otp.c" 1
	dmb sy
// 0 "" 2
#NO_APP
	ldr	x0, [x26]
	mov	w25, -65535
	str	w25, [x0, 36]
.LVL256:
.LBE214:
.LBB215:
	.loc 1 596 0
#APP
// 596 "drivers/misc/rockchip-secure-otp.c" 1
	dmb sy
// 0 "" 2
#NO_APP
	ldr	x0, [x26]
	mov	w1, 251
	str	w1, [x0, 4096]
.LVL257:
.LBE215:
.LBB216:
	.loc 1 597 0
#APP
// 597 "drivers/misc/rockchip-secure-otp.c" 1
	dmb sy
// 0 "" 2
#NO_APP
	ldr	x0, [x26]
	str	wzr, [x0, 4100]
.LVL258:
.LBE216:
.LBB217:
	.loc 1 598 0
#APP
// 598 "drivers/misc/rockchip-secure-otp.c" 1
	dmb sy
// 0 "" 2
#NO_APP
	ldr	x0, [x26]
.LBE217:
	.loc 1 599 0
	mov	w1, w21
.LBB218:
	.loc 1 598 0
	str	w22, [x0, 32]
.LBE218:
	.loc 1 599 0
	mov	x0, x26
	bl	rockchip_secure_otp_wait_status.isra.2
.LVL259:
	mov	w28, w0
.LVL260:
	.loc 1 600 0
	tbz	w0, #31, .L78
	.loc 1 601 0
	adrp	x0, .LC11
.LVL261:
	mov	x1, x20
	add	x0, x0, :lo12:.LC11
	b	.L89
.LVL262:
.L78:
.LBB219:
	.loc 1 605 0
#APP
// 605 "drivers/misc/rockchip-secure-otp.c" 1
	dmb sy
// 0 "" 2
#NO_APP
	ldr	x0, [x26]
.LVL263:
	mov	w1, -65534
	str	w1, [x0, 36]
.LVL264:
.LBE219:
.LBB220:
	.loc 1 606 0
#APP
// 606 "drivers/misc/rockchip-secure-otp.c" 1
	dmb sy
// 0 "" 2
#NO_APP
	ldr	x0, [x26]
	mov	w1, 192
	str	w1, [x0, 4096]
.LBE220:
.LBB221:
	.loc 1 607 0
	and	w1, w23, 255
.LVL265:
#APP
// 607 "drivers/misc/rockchip-secure-otp.c" 1
	dmb sy
// 0 "" 2
#NO_APP
	ldr	x0, [x26]
.LBE221:
.LBB222:
	.loc 1 608 0
	lsr	w23, w23, 8
.LVL266:
.LBE222:
.LBB223:
	.loc 1 607 0
	str	w1, [x0, 4100]
.LBE223:
.LBB224:
	.loc 1 608 0
#APP
// 608 "drivers/misc/rockchip-secure-otp.c" 1
	dmb sy
// 0 "" 2
#NO_APP
	ldr	x0, [x26]
	str	w23, [x0, 4104]
.LVL267:
.LBE224:
.LBB225:
	.loc 1 609 0
#APP
// 609 "drivers/misc/rockchip-secure-otp.c" 1
	dmb sy
// 0 "" 2
#NO_APP
	ldr	x0, [x26]
.LBE225:
	.loc 1 610 0
	mov	w1, w21
.LVL268:
.LBB226:
	.loc 1 609 0
	str	w22, [x0, 32]
.LBE226:
	.loc 1 610 0
	mov	x0, x26
	bl	rockchip_secure_otp_wait_status.isra.2
.LVL269:
	mov	w28, w0
.LVL270:
	.loc 1 611 0
	tbz	w0, #31, .L79
	.loc 1 612 0
	adrp	x0, .LC12
.LVL271:
	mov	x1, x20
	add	x0, x0, :lo12:.LC12
	b	.L89
.LVL272:
.L79:
.LBB227:
	.loc 1 616 0
#APP
// 616 "drivers/misc/rockchip-secure-otp.c" 1
	dmb sy
// 0 "" 2
#NO_APP
	ldr	x0, [x26]
.LVL273:
	mov	w1, 14848
	movk	w1, 0xff00, lsl 16
	str	w1, [x0, 32]
.LVL274:
.LBE227:
.LBB228:
	.loc 1 617 0
#APP
// 617 "drivers/misc/rockchip-secure-otp.c" 1
	dmb sy
// 0 "" 2
#NO_APP
	ldr	x0, [x26]
	str	w25, [x0, 36]
.LVL275:
.LBE228:
.LBB229:
	.loc 1 618 0
#APP
// 618 "drivers/misc/rockchip-secure-otp.c" 1
	dmb sy
// 0 "" 2
#NO_APP
	ldr	x0, [x26]
	mov	w1, 255
	str	w1, [x0, 4096]
.LVL276:
.LBE229:
.LBB230:
	.loc 1 619 0
#APP
// 619 "drivers/misc/rockchip-secure-otp.c" 1
	dmb sy
// 0 "" 2
#NO_APP
	ldr	x0, [x26]
	mov	w1, 10
	str	w1, [x0, 4100]
.LVL277:
.LBE230:
.LBB231:
	.loc 1 620 0
#APP
// 620 "drivers/misc/rockchip-secure-otp.c" 1
	dmb sy
// 0 "" 2
#NO_APP
	ldr	x0, [x26]
.LBE231:
	.loc 1 621 0
	mov	w1, w21
.LBB232:
	.loc 1 620 0
	str	w22, [x0, 32]
.LBE232:
	.loc 1 621 0
	mov	x0, x26
	bl	rockchip_secure_otp_wait_status.isra.2
.LVL278:
	mov	w28, w0
.LVL279:
	.loc 1 622 0
	tbz	w0, #31, .L80
	.loc 1 623 0
	adrp	x0, .LC13
.LVL280:
	mov	x1, x20
	add	x0, x0, :lo12:.LC13
	b	.L89
.LVL281:
.L80:
.LBB233:
	.loc 1 627 0
#APP
// 627 "drivers/misc/rockchip-secure-otp.c" 1
	dmb sy
// 0 "" 2
#NO_APP
	ldr	x0, [x26]
.LVL282:
	mov	w1, -65534
	str	w1, [x0, 36]
.LVL283:
.LBE233:
.LBB234:
	.loc 1 628 0
#APP
// 628 "drivers/misc/rockchip-secure-otp.c" 1
	dmb sy
// 0 "" 2
#NO_APP
	ldr	x0, [x26]
	mov	w1, 1
	str	w1, [x0, 4096]
.LVL284:
.LBE234:
.LBB235:
	.loc 1 629 0
#APP
// 629 "drivers/misc/rockchip-secure-otp.c" 1
	dmb sy
// 0 "" 2
#NO_APP
	ldr	x0, [x26]
	mov	w23, 191
.LVL285:
	str	w23, [x0, 4100]
.LVL286:
.LBE235:
.LBB236:
	.loc 1 630 0
#APP
// 630 "drivers/misc/rockchip-secure-otp.c" 1
	dmb sy
// 0 "" 2
#NO_APP
	ldr	x0, [x26]
	str	wzr, [x0, 4104]
.LVL287:
.LBE236:
.LBB237:
	.loc 1 631 0
#APP
// 631 "drivers/misc/rockchip-secure-otp.c" 1
	dmb sy
// 0 "" 2
#NO_APP
	ldr	x0, [x26]
.LBE237:
	.loc 1 632 0
	mov	w1, w21
.LBB238:
	.loc 1 631 0
	str	w22, [x0, 32]
.LBE238:
	.loc 1 632 0
	mov	x0, x26
	bl	rockchip_secure_otp_wait_status.isra.2
.LVL288:
	mov	w28, w0
.LVL289:
	.loc 1 633 0
	tbz	w0, #31, .L81
	.loc 1 634 0
	adrp	x0, .LC14
.LVL290:
	mov	x1, x20
	add	x0, x0, :lo12:.LC14
	b	.L89
.LVL291:
.L81:
	.loc 1 638 0
	mov	x0, x26
.LVL292:
	bl	rockchip_secure_otp_check_flag.isra.0
.LVL293:
	mov	w28, w0
.LVL294:
	.loc 1 639 0
	tbz	w0, #31, .L82
	.loc 1 640 0
	adrp	x0, .LC15
.LVL295:
	mov	x1, x20
	add	x0, x0, :lo12:.LC15
	b	.L89
.LVL296:
.L82:
.LBB239:
	.loc 1 644 0
#APP
// 644 "drivers/misc/rockchip-secure-otp.c" 1
	dmb sy
// 0 "" 2
#NO_APP
	ldr	x0, [x26]
.LVL297:
	str	w25, [x0, 36]
.LVL298:
.LBE239:
.LBB240:
	.loc 1 645 0
#APP
// 645 "drivers/misc/rockchip-secure-otp.c" 1
	dmb sy
// 0 "" 2
#NO_APP
	ldr	x0, [x26]
	str	w21, [x0, 4096]
.LVL299:
.LBE240:
.LBB241:
	.loc 1 646 0
#APP
// 646 "drivers/misc/rockchip-secure-otp.c" 1
	dmb sy
// 0 "" 2
#NO_APP
	ldr	x0, [x26]
	str	w23, [x0, 4100]
.LVL300:
.LBE241:
.LBB242:
	.loc 1 647 0
#APP
// 647 "drivers/misc/rockchip-secure-otp.c" 1
	dmb sy
// 0 "" 2
#NO_APP
	ldr	x0, [x26]
.LBE242:
	.loc 1 648 0
	mov	w1, w21
.LBB243:
	.loc 1 647 0
	str	w22, [x0, 32]
.LBE243:
	.loc 1 648 0
	mov	x0, x26
	bl	rockchip_secure_otp_wait_status.isra.2
.LVL301:
	mov	w28, w0
.LVL302:
	.loc 1 649 0
	tbz	w0, #31, .L83
	.loc 1 650 0
	adrp	x0, .LC16
.LVL303:
	mov	x1, x20
	add	x0, x0, :lo12:.LC16
	b	.L89
.LVL304:
.L83:
	.loc 1 654 0
	mov	x0, x26
.LVL305:
	bl	rockchip_secure_otp_wait_flag.isra.1
.LVL306:
	mov	w28, w0
.LVL307:
	.loc 1 655 0
	tbz	w0, #31, .L76
	.loc 1 656 0
	adrp	x0, .LC17
.LVL308:
	mov	x1, x20
	add	x0, x0, :lo12:.LC17
	b	.L89
.LBE247:
.LBE251:
	.cfi_endproc
.LFE281:
	.size	rk3568_secure_otp_write, .-rk3568_secure_otp_write
	.section	.text.rockchip_secure_otp_write,"ax",@progbits
	.align	2
	.type	rockchip_secure_otp_write, %function
rockchip_secure_otp_write:
.LFB278:
	.loc 1 428 0
	.cfi_startproc
.LVL309:
	stp	x29, x30, [sp, -128]!
	.cfi_def_cfa_offset 128
	.cfi_offset 29, -128
	.cfi_offset 30, -120
	add	x29, sp, 0
	.cfi_def_cfa_register 29
	stp	x19, x20, [sp, 16]
	.cfi_offset 19, -112
	.cfi_offset 20, -104
	mov	w19, w1
	stp	x23, x24, [sp, 48]
	.cfi_offset 23, -80
	.cfi_offset 24, -72
	mov	w24, w3
	stp	x27, x28, [sp, 80]
	stp	x21, x22, [sp, 32]
	stp	x25, x26, [sp, 64]
	.cfi_offset 27, -48
	.cfi_offset 28, -40
	.cfi_offset 21, -96
	.cfi_offset 22, -88
	.cfi_offset 25, -64
	.cfi_offset 26, -56
	.loc 1 428 0
	stp	x2, x0, [x29, 104]
	.loc 1 429 0
	bl	dev_get_platdata
.LVL310:
	mov	x27, x0
.LVL311:
	.loc 1 431 0
	sxtw	x0, w24
.LVL312:
	bl	malloc_simple
.LVL313:
	.loc 1 434 0
	cbnz	x0, .L93
.LVL314:
.L117:
.LBB313:
.LBB314:
	.loc 1 295 0
	mov	w26, -1
.L92:
.LBE314:
.LBE313:
	.loc 1 461 0
	mov	w0, w26
	ldp	x19, x20, [sp, 16]
	ldp	x21, x22, [sp, 32]
	ldp	x23, x24, [sp, 48]
.LVL315:
	ldp	x25, x26, [sp, 64]
	ldp	x27, x28, [sp, 80]
.LVL316:
	ldp	x29, x30, [sp], 128
	.cfi_remember_state
	.cfi_restore 30
	.cfi_restore 29
	.cfi_restore 27
	.cfi_restore 28
	.cfi_restore 25
	.cfi_restore 26
	.cfi_restore 23
	.cfi_restore 24
	.cfi_restore 21
	.cfi_restore 22
	.cfi_restore 19
	.cfi_restore 20
	.cfi_def_cfa 31, 0
.LVL317:
	ret
.LVL318:
.L93:
	.cfi_restore_state
	mov	x20, x0
	.loc 1 437 0
	mov	x2, x0
	ldr	x0, [x29, 112]
.LVL319:
	mov	w3, w24
	mov	w1, w19
	bl	rockchip_secure_otp_read
.LVL320:
	.loc 1 438 0
	cbnz	w0, .L117
	mov	x0, 0
.LVL321:
.L97:
	.loc 1 443 0 discriminator 1
	cmp	w24, w0
	bgt	.L98
.LBB386:
.LBB382:
	.loc 1 413 0
	adrp	x20, .LANCHOR5
.LVL322:
	add	x20, x20, :lo12:.LANCHOR5
.LBE382:
.LBE386:
	.loc 1 443 0
	mov	x23, 0
.LVL323:
.L99:
	.loc 1 453 0 discriminator 1
	cmp	w24, w23
	bgt	.L112
	mov	w26, 0
	b	.L92
.LVL324:
.L98:
	add	x0, x0, 1
.LVL325:
	.loc 1 444 0
	add	x1, x20, x0
	ldrb	w1, [x1, -1]
	cbz	w1, .L97
	.loc 1 445 0
	adrp	x0, .LC8
	add	x0, x0, :lo12:.LC8
.LVL326:
.L118:
.LBB387:
.LBB383:
	.loc 1 295 0
	bl	printf
.LVL327:
	b	.L117
.LVL328:
.L112:
.LBE383:
.LBE387:
	.loc 1 454 0
	ldr	x0, [x29, 104]
	ldrb	w28, [x0, x23]
.LVL329:
.LBB388:
.LBB384:
	.loc 1 285 0
	ldr	x0, [x29, 112]
	bl	dev_get_driver_data
.LVL330:
	str	x0, [x29, 120]
.LVL331:
	.loc 1 288 0
	cmp	w19, 448
	bgt	.L117
	.loc 1 292 0
	sub	w0, w19, #16
.LVL332:
	cmp	w19, 0
	ccmp	w0, 31, 0, ne
	bls	.L100
	sub	w0, w19, #128
	cmp	w0, 263
	bls	.L100
	.loc 1 295 0
	adrp	x0, .LC5
	add	x0, x0, :lo12:.LC5
	b	.L118
.L100:
	.loc 1 299 0
	cbnz	w28, .L101
.LVL333:
.L111:
	add	x23, x23, 1
	add	w19, w19, 1
	b	.L99
.LVL334:
.L101:
	.loc 1 302 0
	ldr	x0, [x29, 120]
	mov	w3, w19
	ldp	x2, x1, [x27, 16]
	ldr	x5, [x0, 16]
	ldr	x0, [x27, 8]
	blr	x5
.LVL335:
.LBB315:
	.loc 1 305 0
#APP
// 305 "drivers/misc/rockchip-secure-otp.c" 1
	dmb sy
// 0 "" 2
#NO_APP
	ldr	x0, [x27]
	mov	w1, 262148
	str	w1, [x0, 32]
.LVL336:
.LBE315:
.LBB316:
	.loc 1 306 0
#APP
// 306 "drivers/misc/rockchip-secure-otp.c" 1
	dmb sy
// 0 "" 2
#NO_APP
	ldr	x0, [x27]
	mov	w1, -65536
	str	w1, [x0, 40]
.LVL337:
.LBE316:
.LBB317:
	.loc 1 307 0
#APP
// 307 "drivers/misc/rockchip-secure-otp.c" 1
	dmb sy
// 0 "" 2
#NO_APP
	ldr	x0, [x27]
	mov	w1, 512
	movk	w1, 0xff00, lsl 16
	str	w1, [x0, 32]
.LVL338:
.LBE317:
.LBB318:
	.loc 1 308 0
#APP
// 308 "drivers/misc/rockchip-secure-otp.c" 1
	dmb sy
// 0 "" 2
#NO_APP
	ldr	x0, [x27]
	mov	w1, -65522
	str	w1, [x0, 36]
.LVL339:
.LBE318:
.LBB319:
	.loc 1 309 0
#APP
// 309 "drivers/misc/rockchip-secure-otp.c" 1
	dmb sy
// 0 "" 2
#NO_APP
	ldr	x0, [x27]
	mov	w2, 240
	str	w2, [x29, 100]
.LVL340:
	str	w2, [x0, 4096]
.LBE319:
.LBB320:
	.loc 1 310 0
#APP
// 310 "drivers/misc/rockchip-secure-otp.c" 1
	dmb sy
// 0 "" 2
#NO_APP
	ldr	x0, [x27]
	mov	w25, 1
	str	w25, [x0, 4100]
.LVL341:
.LBE320:
.LBB321:
	.loc 1 311 0
#APP
// 311 "drivers/misc/rockchip-secure-otp.c" 1
	dmb sy
// 0 "" 2
#NO_APP
	ldr	x0, [x27]
	mov	w21, 122
	str	w21, [x0, 4104]
.LVL342:
.LBE321:
.LBB322:
	.loc 1 312 0
#APP
// 312 "drivers/misc/rockchip-secure-otp.c" 1
	dmb sy
// 0 "" 2
#NO_APP
	ldr	x0, [x27]
	mov	w1, 37
	str	w1, [x0, 4108]
.LVL343:
.LBE322:
.LBB323:
	.loc 1 313 0
#APP
// 313 "drivers/misc/rockchip-secure-otp.c" 1
	dmb sy
// 0 "" 2
#NO_APP
	ldr	x0, [x27]
	mov	w1, 4
	str	w1, [x0, 4112]
.LVL344:
.LBE323:
.LBB324:
	.loc 1 314 0
#APP
// 314 "drivers/misc/rockchip-secure-otp.c" 1
	dmb sy
// 0 "" 2
#NO_APP
	ldr	x0, [x27]
	str	wzr, [x0, 4116]
.LVL345:
.LBE324:
.LBB325:
	.loc 1 315 0
#APP
// 315 "drivers/misc/rockchip-secure-otp.c" 1
	dmb sy
// 0 "" 2
#NO_APP
	ldr	x0, [x27]
	str	wzr, [x0, 4120]
.LVL346:
.LBE325:
.LBB326:
	.loc 1 316 0
#APP
// 316 "drivers/misc/rockchip-secure-otp.c" 1
	dmb sy
// 0 "" 2
#NO_APP
	ldr	x0, [x27]
	str	wzr, [x0, 4124]
.LVL347:
.LBE326:
.LBB327:
	.loc 1 317 0
#APP
// 317 "drivers/misc/rockchip-secure-otp.c" 1
	dmb sy
// 0 "" 2
#NO_APP
	ldr	x0, [x27]
	mov	w1, 11
	str	w1, [x0, 4128]
.LVL348:
.LBE327:
.LBB328:
	.loc 1 318 0
#APP
// 318 "drivers/misc/rockchip-secure-otp.c" 1
	dmb sy
// 0 "" 2
#NO_APP
	ldr	x0, [x27]
	mov	w1, 8
	str	w1, [x0, 4132]
.LVL349:
.LBE328:
.LBB329:
	.loc 1 319 0
#APP
// 319 "drivers/misc/rockchip-secure-otp.c" 1
	dmb sy
// 0 "" 2
#NO_APP
	ldr	x0, [x27]
	str	wzr, [x0, 4136]
.LVL350:
.LBE329:
.LBB330:
	.loc 1 320 0
#APP
// 320 "drivers/misc/rockchip-secure-otp.c" 1
	dmb sy
// 0 "" 2
#NO_APP
	ldr	x0, [x27]
	str	wzr, [x0, 4140]
.LVL351:
.LBE330:
.LBB331:
	.loc 1 321 0
#APP
// 321 "drivers/misc/rockchip-secure-otp.c" 1
	dmb sy
// 0 "" 2
#NO_APP
	ldr	x0, [x27]
	str	wzr, [x0, 4144]
.LBE331:
.LBB332:
	.loc 1 322 0
	and	w0, w19, 255
#APP
// 322 "drivers/misc/rockchip-secure-otp.c" 1
	dmb sy
// 0 "" 2
#NO_APP
	ldr	x1, [x27]
	str	w0, [x1, 4148]
.LBE332:
.LBB333:
	.loc 1 323 0
	ubfx	x1, x19, 8, 8
.LVL352:
#APP
// 323 "drivers/misc/rockchip-secure-otp.c" 1
	dmb sy
// 0 "" 2
#NO_APP
	ldr	x0, [x27]
	str	w1, [x0, 4152]
.LVL353:
.LBE333:
.LBB334:
	.loc 1 324 0
#APP
// 324 "drivers/misc/rockchip-secure-otp.c" 1
	dmb sy
// 0 "" 2
#NO_APP
	ldr	x0, [x27]
	mov	w22, 65537
.LBE334:
	.loc 1 325 0
	mov	w1, 2
.LVL354:
.LBB335:
	.loc 1 324 0
	str	w22, [x0, 32]
.LVL355:
.LBE335:
	.loc 1 325 0
	mov	x0, x27
	bl	rockchip_secure_otp_wait_status.isra.2
.LVL356:
	mov	w26, w0
.LVL357:
	.loc 1 326 0
	ldr	w2, [x29, 100]
	tbz	w0, #31, .L102
	.loc 1 327 0
	adrp	x0, .LC9
.LVL358:
	mov	x1, x20
	add	x0, x0, :lo12:.LC9
.LVL359:
.L116:
	.loc 1 413 0
	bl	printf
.LVL360:
.L103:
.LBB336:
	.loc 1 418 0
#APP
// 418 "drivers/misc/rockchip-secure-otp.c" 1
	dmb sy
// 0 "" 2
#NO_APP
	ldr	x0, [x27]
	mov	w1, -65533
.LBE336:
	.loc 1 419 0
	ldr	x2, [x27, 16]
	mov	w3, w19
.LBB337:
	.loc 1 418 0
	str	w1, [x0, 772]
.LBE337:
	.loc 1 419 0
	ldr	x0, [x29, 120]
	ldr	x1, [x27, 24]
	ldr	x6, [x0, 24]
	ldr	x0, [x27, 8]
	blr	x6
.LVL361:
.LBE384:
.LBE388:
	.loc 1 455 0
	cbz	w26, .L111
	b	.L92
.LVL362:
.L102:
.LBB389:
.LBB385:
.LBB338:
	.loc 1 331 0
#APP
// 331 "drivers/misc/rockchip-secure-otp.c" 1
	dmb sy
// 0 "" 2
#NO_APP
	ldr	x0, [x27]
.LVL363:
	mov	w1, 14848
	movk	w1, 0xff00, lsl 16
	str	w1, [x0, 32]
.LVL364:
.LBE338:
.LBB339:
	.loc 1 332 0
#APP
// 332 "drivers/misc/rockchip-secure-otp.c" 1
	dmb sy
// 0 "" 2
#NO_APP
	ldr	x0, [x27]
	str	w2, [x0, 4096]
.LVL365:
.LBE339:
.LBB340:
	.loc 1 333 0
#APP
// 333 "drivers/misc/rockchip-secure-otp.c" 1
	dmb sy
// 0 "" 2
#NO_APP
	ldr	x0, [x27]
	str	w25, [x0, 4100]
.LVL366:
.LBE340:
.LBB341:
	.loc 1 334 0
#APP
// 334 "drivers/misc/rockchip-secure-otp.c" 1
	dmb sy
// 0 "" 2
#NO_APP
	ldr	x0, [x27]
	str	w21, [x0, 4104]
.LVL367:
.LBE341:
.LBB342:
	.loc 1 335 0
#APP
// 335 "drivers/misc/rockchip-secure-otp.c" 1
	dmb sy
// 0 "" 2
#NO_APP
	ldr	x0, [x27]
	mov	w1, 21
	str	w1, [x0, 4108]
.LVL368:
.LBE342:
.LBB343:
	.loc 1 336 0
#APP
// 336 "drivers/misc/rockchip-secure-otp.c" 1
	dmb sy
// 0 "" 2
#NO_APP
	ldr	x0, [x27]
	mov	w1, 220
	str	w1, [x0, 4112]
.LVL369:
.LBE343:
.LBB344:
	.loc 1 337 0
#APP
// 337 "drivers/misc/rockchip-secure-otp.c" 1
	dmb sy
// 0 "" 2
#NO_APP
	ldr	x0, [x27]
	mov	w1, 146
	str	w1, [x0, 4116]
.LVL370:
.LBE344:
.LBB345:
	.loc 1 338 0
#APP
// 338 "drivers/misc/rockchip-secure-otp.c" 1
	dmb sy
// 0 "" 2
#NO_APP
	ldr	x0, [x27]
	mov	w1, 121
	str	w1, [x0, 4120]
.LVL371:
.LBE345:
.LBB346:
	.loc 1 339 0
#APP
// 339 "drivers/misc/rockchip-secure-otp.c" 1
	dmb sy
// 0 "" 2
#NO_APP
	ldr	x0, [x27]
	mov	w1, 129
	str	w1, [x0, 4124]
.LVL372:
.LBE346:
.LBB347:
	.loc 1 340 0
#APP
// 340 "drivers/misc/rockchip-secure-otp.c" 1
	dmb sy
// 0 "" 2
#NO_APP
	ldr	x0, [x27]
	mov	w1, 126
	str	w1, [x0, 4128]
.LVL373:
.LBE347:
.LBB348:
	.loc 1 341 0
#APP
// 341 "drivers/misc/rockchip-secure-otp.c" 1
	dmb sy
// 0 "" 2
#NO_APP
	ldr	x0, [x27]
	mov	w1, 33
	str	w1, [x0, 4132]
.LVL374:
.LBE348:
.LBB349:
	.loc 1 342 0
#APP
// 342 "drivers/misc/rockchip-secure-otp.c" 1
	dmb sy
// 0 "" 2
#NO_APP
	ldr	x0, [x27]
	mov	w1, 17
	str	w1, [x0, 4136]
.LVL375:
.LBE349:
.LBB350:
	.loc 1 343 0
#APP
// 343 "drivers/misc/rockchip-secure-otp.c" 1
	dmb sy
// 0 "" 2
#NO_APP
	ldr	x0, [x27]
	mov	w1, 157
	str	w1, [x0, 4140]
.LVL376:
.LBE350:
.LBB351:
	.loc 1 344 0
#APP
// 344 "drivers/misc/rockchip-secure-otp.c" 1
	dmb sy
// 0 "" 2
#NO_APP
	ldr	x0, [x27]
	mov	w21, 2
	str	w21, [x0, 4144]
.LVL377:
.LBE351:
.LBB352:
	.loc 1 345 0
#APP
// 345 "drivers/misc/rockchip-secure-otp.c" 1
	dmb sy
// 0 "" 2
#NO_APP
	ldr	x0, [x27]
	str	wzr, [x0, 4148]
.LVL378:
.LBE352:
.LBB353:
	.loc 1 346 0
#APP
// 346 "drivers/misc/rockchip-secure-otp.c" 1
	dmb sy
// 0 "" 2
#NO_APP
	ldr	x0, [x27]
	str	wzr, [x0, 4152]
.LVL379:
.LBE353:
.LBB354:
	.loc 1 347 0
#APP
// 347 "drivers/misc/rockchip-secure-otp.c" 1
	dmb sy
// 0 "" 2
#NO_APP
	ldr	x0, [x27]
.LBE354:
	.loc 1 348 0
	mov	w1, w21
.LBB355:
	.loc 1 347 0
	str	w22, [x0, 32]
.LBE355:
	.loc 1 348 0
	mov	x0, x27
	bl	rockchip_secure_otp_wait_status.isra.2
.LVL380:
	mov	w26, w0
.LVL381:
	.loc 1 349 0
	tbz	w0, #31, .L104
	.loc 1 350 0
	adrp	x0, .LC10
.LVL382:
	mov	x1, x20
	add	x0, x0, :lo12:.LC10
	b	.L116
.LVL383:
.L104:
.LBB356:
	.loc 1 354 0
#APP
// 354 "drivers/misc/rockchip-secure-otp.c" 1
	dmb sy
// 0 "" 2
#NO_APP
	ldr	x0, [x27]
.LVL384:
	mov	w1, 512
	movk	w1, 0xff00, lsl 16
	str	w1, [x0, 32]
.LVL385:
.LBE356:
.LBB357:
	.loc 1 355 0
#APP
// 355 "drivers/misc/rockchip-secure-otp.c" 1
	dmb sy
// 0 "" 2
#NO_APP
	ldr	x0, [x27]
	mov	w1, -65535
	str	w1, [x0, 36]
.LVL386:
.LBE357:
.LBB358:
	.loc 1 356 0
#APP
// 356 "drivers/misc/rockchip-secure-otp.c" 1
	dmb sy
// 0 "" 2
#NO_APP
	ldr	x0, [x27]
	mov	w1, 251
	str	w1, [x0, 4096]
.LVL387:
.LBE358:
.LBB359:
	.loc 1 357 0
#APP
// 357 "drivers/misc/rockchip-secure-otp.c" 1
	dmb sy
// 0 "" 2
#NO_APP
	ldr	x0, [x27]
	str	wzr, [x0, 4100]
.LVL388:
.LBE359:
.LBB360:
	.loc 1 358 0
#APP
// 358 "drivers/misc/rockchip-secure-otp.c" 1
	dmb sy
// 0 "" 2
#NO_APP
	ldr	x0, [x27]
.LBE360:
	.loc 1 359 0
	mov	w1, w21
.LBB361:
	.loc 1 358 0
	str	w22, [x0, 32]
.LBE361:
	.loc 1 359 0
	mov	x0, x27
	bl	rockchip_secure_otp_wait_status.isra.2
.LVL389:
	mov	w26, w0
.LVL390:
	.loc 1 360 0
	tbz	w0, #31, .L105
	.loc 1 361 0
	adrp	x0, .LC11
.LVL391:
	mov	x1, x20
	add	x0, x0, :lo12:.LC11
	b	.L116
.LVL392:
.L105:
.LBB362:
	.loc 1 365 0
#APP
// 365 "drivers/misc/rockchip-secure-otp.c" 1
	dmb sy
// 0 "" 2
#NO_APP
	ldr	x0, [x27]
.LVL393:
	mov	w1, 192
	str	w1, [x0, 4096]
.LVL394:
.LBE362:
.LBB363:
	.loc 1 366 0
#APP
// 366 "drivers/misc/rockchip-secure-otp.c" 1
	dmb sy
// 0 "" 2
#NO_APP
	ldr	x0, [x27]
	str	w28, [x0, 4100]
.LVL395:
.LBE363:
.LBB364:
	.loc 1 367 0
#APP
// 367 "drivers/misc/rockchip-secure-otp.c" 1
	dmb sy
// 0 "" 2
#NO_APP
	ldr	x0, [x27]
.LBE364:
	.loc 1 368 0
	mov	w1, w21
.LBB365:
	.loc 1 367 0
	str	w22, [x0, 32]
.LBE365:
	.loc 1 368 0
	mov	x0, x27
	bl	rockchip_secure_otp_wait_status.isra.2
.LVL396:
	mov	w26, w0
.LVL397:
	.loc 1 369 0
	tbz	w0, #31, .L106
	.loc 1 370 0
	adrp	x0, .LC12
.LVL398:
	mov	x1, x20
	add	x0, x0, :lo12:.LC12
	b	.L116
.LVL399:
.L106:
.LBB366:
	.loc 1 374 0
#APP
// 374 "drivers/misc/rockchip-secure-otp.c" 1
	dmb sy
// 0 "" 2
#NO_APP
	ldr	x0, [x27]
.LVL400:
	mov	w1, 14848
	movk	w1, 0xff00, lsl 16
	str	w1, [x0, 32]
.LVL401:
.LBE366:
.LBB367:
	.loc 1 375 0
#APP
// 375 "drivers/misc/rockchip-secure-otp.c" 1
	dmb sy
// 0 "" 2
#NO_APP
	ldr	x0, [x27]
	mov	w1, 255
	str	w1, [x0, 4096]
.LVL402:
.LBE367:
.LBB368:
	.loc 1 376 0
#APP
// 376 "drivers/misc/rockchip-secure-otp.c" 1
	dmb sy
// 0 "" 2
#NO_APP
	ldr	x0, [x27]
	mov	w1, 10
	str	w1, [x0, 4100]
.LVL403:
.LBE368:
.LBB369:
	.loc 1 377 0
#APP
// 377 "drivers/misc/rockchip-secure-otp.c" 1
	dmb sy
// 0 "" 2
#NO_APP
	ldr	x0, [x27]
.LBE369:
	.loc 1 378 0
	mov	w1, w21
.LBB370:
	.loc 1 377 0
	str	w22, [x0, 32]
.LBE370:
	.loc 1 378 0
	mov	x0, x27
	bl	rockchip_secure_otp_wait_status.isra.2
.LVL404:
	mov	w26, w0
.LVL405:
	.loc 1 379 0
	tbz	w0, #31, .L107
	.loc 1 380 0
	adrp	x0, .LC13
.LVL406:
	mov	x1, x20
	add	x0, x0, :lo12:.LC13
	b	.L116
.LVL407:
.L107:
.LBB371:
	.loc 1 384 0
#APP
// 384 "drivers/misc/rockchip-secure-otp.c" 1
	dmb sy
// 0 "" 2
#NO_APP
	ldr	x0, [x27]
.LVL408:
	mov	w28, -65534
.LVL409:
	str	w28, [x0, 36]
.LVL410:
.LBE371:
.LBB372:
	.loc 1 385 0
#APP
// 385 "drivers/misc/rockchip-secure-otp.c" 1
	dmb sy
// 0 "" 2
#NO_APP
	ldr	x0, [x27]
	str	w25, [x0, 4096]
.LVL411:
.LBE372:
.LBB373:
	.loc 1 386 0
#APP
// 386 "drivers/misc/rockchip-secure-otp.c" 1
	dmb sy
// 0 "" 2
#NO_APP
	ldr	x0, [x27]
	mov	w25, 191
	str	w25, [x0, 4100]
.LVL412:
.LBE373:
.LBB374:
	.loc 1 387 0
#APP
// 387 "drivers/misc/rockchip-secure-otp.c" 1
	dmb sy
// 0 "" 2
#NO_APP
	ldr	x0, [x27]
	str	wzr, [x0, 4104]
.LVL413:
.LBE374:
.LBB375:
	.loc 1 388 0
#APP
// 388 "drivers/misc/rockchip-secure-otp.c" 1
	dmb sy
// 0 "" 2
#NO_APP
	ldr	x0, [x27]
.LBE375:
	.loc 1 389 0
	mov	w1, w21
.LBB376:
	.loc 1 388 0
	str	w22, [x0, 32]
.LBE376:
	.loc 1 389 0
	mov	x0, x27
	bl	rockchip_secure_otp_wait_status.isra.2
.LVL414:
	mov	w26, w0
.LVL415:
	.loc 1 390 0
	tbz	w0, #31, .L108
	.loc 1 391 0
	adrp	x0, .LC14
.LVL416:
	mov	x1, x20
	add	x0, x0, :lo12:.LC14
	b	.L116
.LVL417:
.L108:
	.loc 1 395 0
	mov	x0, x27
.LVL418:
	bl	rockchip_secure_otp_check_flag.isra.0
.LVL419:
	mov	w26, w0
.LVL420:
	.loc 1 396 0
	tbz	w0, #31, .L109
	.loc 1 397 0
	adrp	x0, .LC15
.LVL421:
	mov	x1, x20
	add	x0, x0, :lo12:.LC15
	b	.L116
.LVL422:
.L109:
.LBB377:
	.loc 1 401 0
#APP
// 401 "drivers/misc/rockchip-secure-otp.c" 1
	dmb sy
// 0 "" 2
#NO_APP
	ldr	x0, [x27]
.LVL423:
	str	w28, [x0, 36]
.LVL424:
.LBE377:
.LBB378:
	.loc 1 402 0
#APP
// 402 "drivers/misc/rockchip-secure-otp.c" 1
	dmb sy
// 0 "" 2
#NO_APP
	ldr	x0, [x27]
	str	w21, [x0, 4096]
.LVL425:
.LBE378:
.LBB379:
	.loc 1 403 0
#APP
// 403 "drivers/misc/rockchip-secure-otp.c" 1
	dmb sy
// 0 "" 2
#NO_APP
	ldr	x0, [x27]
	str	w25, [x0, 4100]
.LVL426:
.LBE379:
.LBB380:
	.loc 1 404 0
#APP
// 404 "drivers/misc/rockchip-secure-otp.c" 1
	dmb sy
// 0 "" 2
#NO_APP
	ldr	x0, [x27]
.LBE380:
	.loc 1 405 0
	mov	w1, w21
.LBB381:
	.loc 1 404 0
	str	w22, [x0, 32]
.LBE381:
	.loc 1 405 0
	mov	x0, x27
	bl	rockchip_secure_otp_wait_status.isra.2
.LVL427:
	mov	w26, w0
.LVL428:
	.loc 1 406 0
	tbz	w0, #31, .L110
	.loc 1 407 0
	adrp	x0, .LC16
.LVL429:
	mov	x1, x20
	add	x0, x0, :lo12:.LC16
	b	.L116
.LVL430:
.L110:
	.loc 1 411 0
	mov	x0, x27
.LVL431:
	bl	rockchip_secure_otp_wait_flag.isra.1
.LVL432:
	mov	w26, w0
.LVL433:
	.loc 1 412 0
	tbz	w0, #31, .L103
	.loc 1 413 0
	adrp	x0, .LC17
.LVL434:
	mov	x1, x20
	add	x0, x0, :lo12:.LC17
	b	.L116
.LBE385:
.LBE389:
	.cfi_endproc
.LFE278:
	.size	rockchip_secure_otp_write, .-rockchip_secure_otp_write
	.global	_u_boot_list_2_driver_2_rockchip_secure_otp
	.section	.rodata.__func__.7452,"a",@progbits
	.align	3
	.set	.LANCHOR0,. + 0
	.type	__func__.7452, %object
	.size	__func__.7452, 32
__func__.7452:
	.string	"rockchip_secure_otp_wait_status"
	.section	.rodata.__func__.7495,"a",@progbits
	.align	3
	.set	.LANCHOR1,. + 0
	.type	__func__.7495, %object
	.size	__func__.7495, 31
__func__.7495:
	.string	"rockchip_secure_otp_ecc_enable"
	.section	.rodata.__func__.7513,"a",@progbits
	.align	3
	.set	.LANCHOR3,. + 0
	.type	__func__.7513, %object
	.size	__func__.7513, 25
__func__.7513:
	.string	"rockchip_secure_otp_read"
	.section	.rodata.__func__.7570,"a",@progbits
	.align	3
	.set	.LANCHOR5,. + 0
	.type	__func__.7570, %object
	.size	__func__.7570, 31
__func__.7570:
	.string	"rockchip_secure_otp_write_byte"
	.section	.rodata.__func__.7684,"a",@progbits
	.align	3
	.set	.LANCHOR2,. + 0
	.type	__func__.7684, %object
	.size	__func__.7684, 23
__func__.7684:
	.string	"rk3568_secure_otp_read"
	.section	.rodata.__func__.7743,"a",@progbits
	.align	3
	.set	.LANCHOR4,. + 0
	.type	__func__.7743, %object
	.size	__func__.7743, 32
__func__.7743:
	.string	"rk3568_secure_otp_write_2_bytes"
	.section	.rodata.px30_data,"a",@progbits
	.align	3
	.type	px30_data, %object
	.size	px30_data, 32
px30_data:
	.xword	rockchip_secure_otp_read
	.xword	rockchip_secure_otp_write
	.xword	px30_spl_rockchip_otp_start
	.xword	px30_spl_rockchip_otp_stop
	.section	.rodata.rk3308_data,"a",@progbits
	.align	3
	.type	rk3308_data, %object
	.size	rk3308_data, 32
rk3308_data:
	.xword	rockchip_secure_otp_read
	.xword	rockchip_secure_otp_write
	.xword	rk3308_spl_rockchip_otp_start
	.xword	rk3308_spl_rockchip_otp_stop
	.section	.rodata.rk3328_data,"a",@progbits
	.align	3
	.type	rk3328_data, %object
	.size	rk3328_data, 32
rk3328_data:
	.xword	rockchip_secure_otp_read
	.xword	rockchip_secure_otp_write
	.xword	rk3328_spl_rockchip_otp_start
	.xword	rk3328_spl_rockchip_otp_stop
	.section	.rodata.rk3568_data,"a",@progbits
	.align	3
	.type	rk3568_data, %object
	.size	rk3568_data, 32
rk3568_data:
	.xword	rk3568_secure_otp_read
	.xword	rk3568_secure_otp_write
	.xword	rk3568_spl_rockchip_otp_start
	.xword	rk3568_spl_rockchip_otp_stop
	.section	.rodata.rk3568_secure_otp_read.str1.1,"aMS",@progbits,1
.LC5:
	.string	"Please input correct addr\n"
.LC6:
	.string	"%s timeout during read setup\n"
	.section	.rodata.rk3568_secure_otp_write.str1.1,"aMS",@progbits,1
.LC7:
	.string	"Please enter the size of multiple of 2\n"
.LC8:
	.string	"The zone is written.\n"
.LC9:
	.string	"%s timeout during write setup 1\n"
.LC10:
	.string	"%s timeout during write setup 2\n"
.LC11:
	.string	"%s timeout during write setup 3\n"
.LC12:
	.string	"%s timeout during write setup 4\n"
.LC13:
	.string	"%s timeout during write setup 5\n"
.LC14:
	.string	"%s timeout during write setup 6\n"
.LC15:
	.string	"%s timeout during write setup 7\n"
.LC16:
	.string	"%s timeout during write setup 8\n"
.LC17:
	.string	"%s timeout during write setup 9\n"
	.section	.rodata.rockchip_otp_ids,"a",@progbits
	.align	3
	.type	rockchip_otp_ids, %object
	.size	rockchip_otp_ids, 96
rockchip_otp_ids:
	.xword	.LC19
	.xword	rk3308_data
	.xword	.LC20
	.xword	rk3328_data
	.xword	.LC21
	.xword	px30_data
	.xword	.LC22
	.xword	px30_data
	.xword	.LC23
	.xword	rk3568_data
	.zero	16
	.section	.rodata.rockchip_secure_otp_ecc_enable.constprop.5.str1.1,"aMS",@progbits,1
.LC4:
	.string	"%s timeout during ecc_enable\n"
	.section	.rodata.rockchip_secure_otp_ofdata_to_platdata.str1.1,"aMS",@progbits,1
.LC0:
	.string	"secure_conf"
.LC1:
	.string	"mask_addr"
.LC2:
	.string	"cru_rst_addr"
	.section	.rodata.rockchip_secure_otp_ops,"a",@progbits
	.align	3
	.type	rockchip_secure_otp_ops, %object
	.size	rockchip_secure_otp_ops, 32
rockchip_secure_otp_ops:
	.xword	secure_otp_read
	.xword	secure_otp_write
	.xword	secure_otp_ioctl
	.zero	8
	.section	.rodata.rockchip_secure_otp_wait_status.isra.2.str1.1,"aMS",@progbits,1
.LC3:
	.string	"%s: wait init status timeout\n"
	.section	.rodata.str1.1,"aMS",@progbits,1
.LC18:
	.string	"rockchip_secure_otp"
.LC19:
	.string	"rockchip,rk3308-secure-otp"
.LC20:
	.string	"rockchip,rk3328-secure-otp"
.LC21:
	.string	"rockchip,rk3326-secure-otp"
.LC22:
	.string	"rockchip,px30-secure-otp"
.LC23:
	.string	"rockchip,rk3568-secure-otp"
	.section	.u_boot_list_2_driver_2_rockchip_secure_otp,"aw",@progbits
	.align	2
	.type	_u_boot_list_2_driver_2_rockchip_secure_otp, %object
	.size	_u_boot_list_2_driver_2_rockchip_secure_otp, 120
_u_boot_list_2_driver_2_rockchip_secure_otp:
	.8byte	.LC18
	.word	36
	.zero	4
	.8byte	rockchip_otp_ids
	.zero	32
	.8byte	rockchip_secure_otp_ofdata_to_platdata
	.zero	28
	.word	32
	.zero	8
	.8byte	rockchip_secure_otp_ops
	.zero	8
	.text
.Letext0:
	.file 2 "include/common.h"
	.file 3 "./arch/arm/include/asm/types.h"
	.file 4 "include/linux/types.h"
	.file 5 "include/errno.h"
	.file 6 "include/linux/string.h"
	.file 7 "include/efi.h"
	.file 8 "include/dm/device.h"
	.file 9 "include/ide.h"
	.file 10 "include/linux/list.h"
	.file 11 "include/part.h"
	.file 12 "include/flash.h"
	.file 13 "include/lmb.h"
	.file 14 "include/asm-generic/u-boot.h"
	.file 15 "./arch/arm/include/asm/u-boot-arm.h"
	.file 16 "include/linux/libfdt_env.h"
	.file 17 "include/linux/../../scripts/dtc/libfdt/fdt.h"
	.file 18 "include/linux/libfdt.h"
	.file 19 "include/image.h"
	.file 20 "./arch/arm/include/asm/global_data.h"
	.file 21 "include/asm-generic/global_data.h"
	.file 22 "include/dm/of.h"
	.file 23 "include/net.h"
	.file 24 "include/dm/uclass-id.h"
	.file 25 "include/dm/ofnode.h"
	.file 26 "include/malloc.h"
	.file 27 "include/linux/compat.h"
	.file 28 "include/dm/uclass.h"
	.file 29 "include/asm-generic/ioctl.h"
	.file 30 "include/misc.h"
	.file 31 "include/rockchip-otp.h"
	.file 32 "include/dm/read.h"
	.file 33 "include/stdio.h"
	.file 34 "include/linux/delay.h"
	.file 35 "include/log.h"
	.section	.note.GNU-stack,"",@progbits
