	.arch armv8-a+nosimd
	.file	"ddr_test_code.c"
	.text
.Ltext0:
	.cfi_sections	.debug_frame
	.section	.text.set_vdd_logic,"ax",@progbits
	.align	2
	.type	set_vdd_logic, %function
set_vdd_logic:
.LFB258:
	.file 1 "cmd/ddr_tool/ddr_tool.c"
	.loc 1 165 0
	.cfi_startproc
.LVL0:
	stp	x29, x30, [sp, -48]!
	.cfi_def_cfa_offset 48
	.cfi_offset 29, -48
	.cfi_offset 30, -40
	add	x29, sp, 0
	.cfi_def_cfa_register 29
	stp	x19, x20, [sp, 16]
	.cfi_offset 19, -32
	.cfi_offset 20, -24
	.loc 1 169 0
	add	x1, x29, 40
	.loc 1 165 0
	mov	w20, w0
	.loc 1 169 0
	adrp	x0, .LC1
.LVL1:
	add	x0, x0, :lo12:.LC1
	bl	regulator_get_by_platname
.LVL2:
	.loc 1 170 0
	cbz	w0, .L2
	mov	w19, w0
	.loc 1 171 0
	adrp	x0, .LC2
.LVL3:
	add	x0, x0, :lo12:.LC2
.LVL4:
.L8:
	.loc 1 179 0
	bl	printf
.LVL5:
.L1:
	.loc 1 181 0
	mov	w0, w19
	ldp	x19, x20, [sp, 16]
.LVL6:
	ldp	x29, x30, [sp], 48
	.cfi_remember_state
	.cfi_restore 30
	.cfi_restore 29
	.cfi_restore 19
	.cfi_restore 20
	.cfi_def_cfa 31, 0
	ret
.LVL7:
.L2:
	.cfi_restore_state
	.loc 1 176 0
	ldr	x0, [x29, 40]
.LVL8:
	mov	w1, w20
	bl	regulator_set_value
.LVL9:
	mov	w19, w0
.LVL10:
	.loc 1 177 0
	mov	x0, 100
.LVL11:
	bl	udelay
.LVL12:
	.loc 1 178 0
	cbz	w19, .L1
	.loc 1 179 0
	adrp	x0, .LC3
	add	x0, x0, :lo12:.LC3
	b	.L8
	.cfi_endproc
.LFE258:
	.size	set_vdd_logic, .-set_vdd_logic
	.section	.text.random_test,"ax",@progbits
	.align	2
	.global	random_test
	.type	random_test, %function
random_test:
.LFB275:
	.file 2 "cmd/ddr_tool/random_test.c"
	.loc 2 88 0
	.cfi_startproc
.LVL13:
	stp	x29, x30, [sp, -112]!
	.cfi_def_cfa_offset 112
	.cfi_offset 29, -112
	.cfi_offset 30, -104
.LBB18:
.LBB19:
	.loc 2 18 0
	mov	x2, x1
.LBE19:
.LBE18:
	.loc 2 88 0
	add	x29, sp, 0
	.cfi_def_cfa_register 29
	stp	x21, x22, [sp, 32]
	.cfi_offset 21, -80
	.cfi_offset 22, -72
	mov	x22, x0
.LVL14:
	stp	x23, x24, [sp, 48]
.LBB24:
.LBB20:
	.loc 2 37 0
	adrp	x21, .LC5
.LBE20:
.LBE24:
	.loc 2 88 0
	stp	x27, x28, [sp, 80]
	.cfi_offset 23, -64
	.cfi_offset 24, -56
	.cfi_offset 27, -32
	.cfi_offset 28, -24
	mov	x23, x1
.LVL15:
	stp	x19, x20, [sp, 16]
.LBB25:
.LBB21:
	.loc 2 18 0
	mov	w1, -2139062144
.LVL16:
.LBE21:
.LBE25:
	.loc 2 88 0
	stp	x25, x26, [sp, 64]
	.cfi_offset 19, -96
	.cfi_offset 20, -88
	.cfi_offset 25, -48
	.cfi_offset 26, -40
.LBB26:
.LBB22:
	.loc 2 23 0
	adrp	x24, .LC4
	.loc 2 18 0
	bl	memset
.LVL17:
	.loc 2 23 0
	add	x24, x24, :lo12:.LC4
	.loc 2 37 0
	add	x21, x21, :lo12:.LC5
	.loc 2 24 0
	lsr	x0, x23, 2
	.loc 2 14 0
	mov	w27, 0
	.loc 2 20 0
	mov	w25, 1077952576
	.loc 2 19 0
	mov	w20, -2139062144
	.loc 2 22 0
	mov	w28, 0
	.loc 2 24 0
	str	x0, [x29, 96]
.LVL18:
.L15:
	.loc 2 23 0
	mov	w1, w28
	mov	x0, x24
	bl	printf
.LVL19:
	.loc 2 24 0
	mov	w1, 0
.LVL20:
.L10:
	ldr	x2, [x29, 96]
	uxtw	x0, w1
	cmp	x0, x2
	bcc	.L14
.LVL21:
.L13:
	.loc 2 37 0
	mov	x0, x21
	.loc 2 22 0
	add	w28, w28, 1
.LVL22:
	.loc 2 37 0
	bl	printf
.LVL23:
	.loc 2 35 0
	lsr	w25, w25, 1
.LVL24:
	.loc 2 36 0
	lsr	w20, w20, 1
.LVL25:
	.loc 2 22 0
	cmp	w28, 8
	bne	.L15
	mov	x19, -1
	b	.L12
.LVL26:
.L14:
	.loc 2 25 0
	lsl	x0, x0, 2
	add	x19, x22, x0
	ldr	w2, [x22, x0]
	str	w2, [x29, 108]
	.loc 2 26 0
	uxtw	x2, w2
	cmp	w2, w20
	beq	.L11
.LVL27:
	.loc 2 28 0
	ldr	w27, [x19]
	.loc 2 33 0
	cmn	x19, #1
	beq	.L13
.LVL28:
.L12:
	.loc 2 39 0
	adrp	x0, .LC6
	add	x0, x0, :lo12:.LC6
	bl	printf
.LVL29:
	.loc 2 40 0
	cmn	x19, #1
	beq	.L16
	.loc 2 41 0
	ldr	w2, [x29, 108]
	adrp	x0, .LC7
	mov	w4, w20
	mov	w3, w27
	mov	x1, x19
	add	x0, x0, :lo12:.LC7
	bl	printf
.LVL30:
.L29:
.LBE22:
.LBE26:
.LBB27:
.LBB28:
	.loc 2 82 0
	mov	w0, -1
.L9:
.LBE28:
.LBE27:
	.loc 2 96 0
	ldp	x19, x20, [sp, 16]
	ldp	x21, x22, [sp, 32]
.LVL31:
	ldp	x23, x24, [sp, 48]
.LVL32:
	ldp	x25, x26, [sp, 64]
	ldp	x27, x28, [sp, 80]
	ldp	x29, x30, [sp], 112
	.cfi_remember_state
	.cfi_restore 30
	.cfi_restore 29
	.cfi_restore 27
	.cfi_restore 28
	.cfi_restore 25
	.cfi_restore 26
	.cfi_restore 23
	.cfi_restore 24
	.cfi_restore 21
	.cfi_restore 22
	.cfi_restore 19
	.cfi_restore 20
	.cfi_def_cfa 31, 0
	ret
.LVL33:
.L11:
	.cfi_restore_state
.LBB30:
.LBB23:
	.loc 2 31 0
	str	w25, [x22, x0]
	.loc 2 24 0
	add	w1, w1, 1
.LVL34:
	b	.L10
.LVL35:
.L16:
.LBE23:
.LBE30:
.LBB31:
.LBB29:
	.loc 2 58 0
	adrp	x25, .LC8
.LVL36:
	.loc 2 76 0
	adrp	x24, .LC9
	.loc 2 66 0
	lsr	x28, x23, 3
.LVL37:
	.loc 2 58 0
	add	x25, x25, :lo12:.LC8
	.loc 2 76 0
	add	x24, x24, :lo12:.LC9
	.loc 2 66 0
	mov	x27, 0
	mov	x19, 0
.LVL38:
.L23:
	.loc 2 58 0
	mov	x1, x19
	mov	x0, x25
	bl	printf
.LVL39:
	.loc 2 60 0
	lsl	x20, x19, 8
	lsl	x0, x19, 24
	orr	x20, x20, x19, lsl 16
	orr	x0, x0, x19, lsl 32
	.loc 2 64 0
	mov	x2, x23
	.loc 2 60 0
	orr	x20, x20, x0
	lsl	x0, x19, 40
	orr	x0, x0, x19, lsl 48
	orr	x20, x20, x0
	orr	x0, x19, x19, lsl 56
	orr	x20, x20, x0
.LVL40:
	.loc 2 64 0
	mov	x0, x22
	mov	w1, w20
	bl	memset
.LVL41:
	.loc 2 66 0
	mov	x0, 0
.LVL42:
.L18:
	cmp	x0, x28
	bne	.L22
.LVL43:
.L21:
	.loc 2 76 0
	mov	x0, x24
.LVL44:
	.loc 2 57 0
	add	x19, x19, 1
.LVL45:
	.loc 2 76 0
	bl	printf
.LVL46:
	.loc 2 57 0
	cmp	x19, 256
	bne	.L23
	mov	x21, -1
	b	.L20
.LVL47:
.L22:
	lsl	x1, x0, 3
	add	x21, x1, x22
	.loc 2 67 0
	ldr	x26, [x1, x22]
.LVL48:
	.loc 2 68 0
	cmp	x20, x26
	beq	.L19
.LVL49:
	.loc 2 70 0
	ldr	x27, [x21]
.LVL50:
	.loc 2 74 0
	cmn	x21, #1
	beq	.L21
.LVL51:
.L20:
	.loc 2 78 0
	adrp	x0, .LC10
	add	x0, x0, :lo12:.LC10
	bl	printf
.LVL52:
	.loc 2 84 0
	mov	w0, 0
	.loc 2 79 0
	cmn	x21, #1
	beq	.L9
	.loc 2 80 0
	mov	x4, x20
	mov	x3, x27
	mov	x2, x26
	mov	x1, x21
	adrp	x0, .LC11
	add	x0, x0, :lo12:.LC11
	bl	printf
.LVL53:
	b	.L29
.LVL54:
.L19:
	.loc 2 66 0
	add	x0, x0, 1
.LVL55:
	b	.L18
.LBE29:
.LBE31:
	.cfi_endproc
.LFE275:
	.size	random_test, .-random_test
	.section	.text.cpu_2_io,"ax",@progbits
	.align	2
	.global	cpu_2_io
	.type	cpu_2_io, %function
cpu_2_io:
.LFB276:
	.file 3 "cmd/ddr_tool/tool_common.c"
	.loc 3 11 0
	.cfi_startproc
.LVL56:
	stp	x29, x30, [sp, -32]!
	.cfi_def_cfa_offset 32
	.cfi_offset 29, -32
	.cfi_offset 30, -24
	.loc 3 19 0
	mov	x2, 0
	.loc 3 11 0
	add	x29, sp, 0
	.cfi_def_cfa_register 29
	add	x1, x29, 16
.LVL57:
.L31:
	.loc 3 19 0 discriminator 1
	cmp	x2, 16
	bne	.L32
	.loc 3 22 0
	bl	memcpy
.LVL58:
	.loc 3 26 0
	ldp	x29, x30, [sp], 32
	.cfi_remember_state
	.cfi_restore 30
	.cfi_restore 29
	.cfi_def_cfa 31, 0
	ret
.LVL59:
.L32:
	.cfi_restore_state
	.loc 3 20 0 discriminator 3
	ubfiz	w3, w2, 2, 2
	add	w3, w3, w2, asr 2
	ldrb	w3, [x0, w3, sxtw]
	strb	w3, [x1, x2]
.LVL60:
	add	x2, x2, 1
.LVL61:
	b	.L31
	.cfi_endproc
.LFE276:
	.size	cpu_2_io, .-cpu_2_io
	.section	.text.write_buf_to_ddr,"ax",@progbits
	.align	2
	.global	write_buf_to_ddr
	.type	write_buf_to_ddr, %function
write_buf_to_ddr:
.LFB277:
	.loc 3 29 0
	.cfi_startproc
.LVL62:
	.loc 3 37 0
	lsr	w1, w1, 3
.LVL63:
	.loc 3 39 0
	lsr	x3, x3, 3
.LVL64:
	.loc 3 37 0
	sub	w1, w1, #1
.LVL65:
	.loc 3 39 0
	mov	w4, 0
	mov	w5, 0
.LVL66:
.L35:
	.loc 3 39 0 is_stmt 0 discriminator 1
	uxtw	x6, w5
	cmp	x6, x3
	bcc	.L36
	.loc 3 44 0 is_stmt 1
	ret
.L36:
	.loc 3 40 0 discriminator 3
	ldr	x7, [x0, w4, uxtw 3]
	.loc 3 41 0 discriminator 3
	add	w4, w4, 1
.LVL67:
	.loc 3 40 0 discriminator 3
	str	x7, [x2, x6, lsl 3]
	.loc 3 42 0 discriminator 3
	and	w4, w1, w4
.LVL68:
	.loc 3 39 0 discriminator 3
	add	w5, w5, 1
.LVL69:
	b	.L35
	.cfi_endproc
.LFE277:
	.size	write_buf_to_ddr, .-write_buf_to_ddr
	.section	.text.cmp_buf_data,"ax",@progbits
	.align	2
	.global	cmp_buf_data
	.type	cmp_buf_data, %function
cmp_buf_data:
.LFB278:
	.loc 3 48 0
	.cfi_startproc
.LVL70:
	stp	x29, x30, [sp, -32]!
	.cfi_def_cfa_offset 32
	.cfi_offset 29, -32
	.cfi_offset 30, -24
	.loc 3 60 0
	lsr	w1, w1, 3
.LVL71:
	.loc 3 48 0
	mov	w10, w4
	.loc 3 60 0
	sub	w1, w1, #1
	.loc 3 48 0
	add	x29, sp, 0
	.cfi_def_cfa_register 29
	.loc 3 62 0
	lsr	x3, x3, 3
.LVL72:
	.loc 3 48 0
	mov	x8, x2
.LVL73:
	.loc 3 62 0
	mov	w6, 0
	.loc 3 56 0
	mov	x2, 0
.LVL74:
	.loc 3 62 0
	mov	w7, 0
	.loc 3 48 0
	str	x19, [sp, 16]
	.cfi_offset 19, -16
.LVL75:
.L38:
	.loc 3 62 0 discriminator 1
	uxtw	x5, w7
	cmp	x5, x3
	bcc	.L41
	.loc 3 61 0
	mov	x19, 0
	.loc 3 54 0
	mov	x3, 0
	.loc 3 55 0
	mov	x4, 0
	b	.L40
.L41:
	.loc 3 63 0
	lsl	x5, x5, 3
	.loc 3 64 0
	ldr	x4, [x0, w6, uxtw 3]
	.loc 3 63 0
	add	x19, x8, x5
	ldr	x2, [x8, x5]
.LVL76:
	.loc 3 64 0
	cmp	x2, x4
	beq	.L39
	.loc 3 65 0
	ldr	x3, [x19]
.LVL77:
.L40:
	.loc 3 73 0
	cmp	x19, 0
	ccmp	w10, 0, 4, ne
	beq	.L37
	.loc 3 74 0
	adrp	x0, .LC12
.LVL78:
	mov	x1, x19
.LVL79:
	add	x0, x0, :lo12:.LC12
	bl	printf
.LVL80:
.L37:
	.loc 3 78 0
	mov	x0, x19
	ldr	x19, [sp, 16]
.LVL81:
	ldp	x29, x30, [sp], 32
	.cfi_remember_state
	.cfi_restore 30
	.cfi_restore 29
	.cfi_restore 19
	.cfi_def_cfa 31, 0
	ret
.LVL82:
.L39:
	.cfi_restore_state
	.loc 3 70 0 discriminator 2
	add	w6, w6, 1
.LVL83:
	.loc 3 62 0 discriminator 2
	add	w7, w7, 1
.LVL84:
	.loc 3 71 0 discriminator 2
	and	w6, w1, w6
.LVL85:
	b	.L38
	.cfi_endproc
.LFE278:
	.size	cmp_buf_data, .-cmp_buf_data
	.section	.text.crosstalk,"ax",@progbits
	.align	2
	.global	crosstalk
	.type	crosstalk, %function
crosstalk:
.LFB201:
	.file 4 "cmd/ddr_tool/crosstalk.c"
	.loc 4 46 0
	.cfi_startproc
.LVL86:
	stp	x29, x30, [sp, -160]!
	.cfi_def_cfa_offset 160
	.cfi_offset 29, -160
	.cfi_offset 30, -152
	add	x29, sp, 0
	.cfi_def_cfa_register 29
	stp	x19, x20, [sp, 16]
	.cfi_offset 19, -144
	.cfi_offset 20, -136
	.loc 4 71 0
	add	x19, x29, 128
	.loc 4 46 0
	stp	x21, x22, [sp, 32]
	.cfi_offset 21, -128
	.cfi_offset 22, -120
	mov	x21, x0
	stp	x23, x24, [sp, 48]
	mov	x22, x1
	stp	x25, x26, [sp, 64]
	.loc 4 63 0
	adrp	x0, .LC13
.LVL87:
	.loc 4 46 0
	stp	x27, x28, [sp, 80]
	.cfi_offset 23, -112
	.cfi_offset 24, -104
	.cfi_offset 25, -96
	.cfi_offset 26, -88
	.cfi_offset 27, -80
	.cfi_offset 28, -72
	.loc 4 63 0
	add	x0, x0, :lo12:.LC13
	bl	printf
.LVL88:
	.loc 4 66 0
	adrp	x23, .LC14
	add	x0, x23, :lo12:.LC14
	.loc 4 64 0
	mov	w20, 0
	.loc 4 66 0
	str	x0, [x29, 112]
	.loc 4 76 0
	add	x0, x19, 16
	str	x0, [x29, 104]
.LVL89:
.L52:
	.loc 4 66 0
	ldr	x0, [x29, 112]
	mov	w1, w20
	.loc 4 68 0
	adrp	x24, .LC15
	add	x28, x24, :lo12:.LC15
	.loc 4 65 0
	mov	w26, -1
	.loc 4 67 0
	mov	w25, 0
	.loc 4 66 0
	bl	printf
.LVL90:
	.loc 4 71 0
	mov	w0, 1
	lsl	w0, w0, w20
	str	w0, [x29, 120]
.LVL91:
.L51:
	.loc 4 69 0
	mvn	w26, w26
.LVL92:
	mov	x27, 0
	.loc 4 68 0
	mov	w1, w25
	mov	x0, x28
	bl	printf
.LVL93:
.L48:
	.loc 4 71 0 discriminator 3
	ldr	w0, [x29, 120]
	eor	w0, w0, w26
	str	w0, [x27, x19]
	add	x27, x27, 4
	.loc 4 72 0 discriminator 3
	mvn	w26, w26
.LVL94:
	.loc 4 70 0 discriminator 3
	cmp	x27, 32
	bne	.L48
.LVL95:
	.loc 4 76 0 discriminator 1
	mov	x0, x19
	bl	cpu_2_io
.LVL96:
	ldr	x0, [x29, 104]
	bl	cpu_2_io
.LVL97:
	.loc 4 77 0 discriminator 1
	mov	x3, x22
	mov	x2, x21
	mov	w1, w27
	mov	x0, x19
	bl	write_buf_to_ddr
.LVL98:
	.loc 4 78 0 discriminator 1
	mov	w4, 1
	mov	x3, x22
	mov	x2, x21
	mov	w1, w27
	mov	x0, x19
	bl	cmp_buf_data
.LVL99:
	cbz	x0, .L49
.LVL100:
.L58:
	.loc 4 80 0
	mov	w0, -1
.L47:
	.loc 4 115 0
	ldp	x19, x20, [sp, 16]
	ldp	x21, x22, [sp, 32]
.LVL101:
	ldp	x23, x24, [sp, 48]
	ldp	x25, x26, [sp, 64]
	ldp	x27, x28, [sp, 80]
	ldp	x29, x30, [sp], 160
	.cfi_remember_state
	.cfi_restore 30
	.cfi_restore 29
	.cfi_restore 27
	.cfi_restore 28
	.cfi_restore 25
	.cfi_restore 26
	.cfi_restore 23
	.cfi_restore 24
	.cfi_restore 21
	.cfi_restore 22
	.cfi_restore 19
	.cfi_restore 20
	.cfi_def_cfa 31, 0
	ret
.LVL102:
.L49:
	.cfi_restore_state
	.loc 4 67 0 discriminator 2
	add	w25, w25, 1
.LVL103:
	cmp	w25, 2
	bne	.L51
	.loc 4 64 0 discriminator 2
	add	w20, w20, 1
.LVL104:
	cmp	w20, 32
	bne	.L52
	.loc 4 87 0
	adrp	x0, .LC16
	add	x0, x0, :lo12:.LC16
	bl	printf
.LVL105:
	.loc 4 88 0
	mov	x0, 128
	bl	malloc
.LVL106:
	mov	x19, x0
.LVL107:
	.loc 4 89 0
	cbnz	x0, .L53
	.loc 4 90 0
	adrp	x0, .LC17
.LVL108:
	mov	x1, 128
	add	x0, x0, :lo12:.LC17
	bl	printf
.LVL109:
.L53:
	adrp	x26, .LANCHOR0
.LVL110:
	.loc 4 93 0
	add	x23, x23, :lo12:.LC14
	.loc 4 95 0
	add	x24, x24, :lo12:.LC15
	.loc 4 100 0
	add	x26, x26, :lo12:.LANCHOR0
	.loc 4 69 0
	mov	w20, 0
.LVL111:
.L61:
	.loc 4 94 0
	mov	w25, 0
	.loc 4 98 0
	mov	w27, 1
	.loc 4 93 0
	mov	w1, w20
	mov	x0, x23
	bl	printf
.LVL112:
.L60:
	.loc 4 95 0
	mov	w1, w25
	mov	x0, x24
	bl	printf
.LVL113:
	.loc 4 98 0
	lsl	w2, w27, w25
	mov	x0, 0
.LVL114:
.L56:
	ldr	w1, [x0, x26]
	.loc 4 97 0
	cbz	w20, .L54
	.loc 4 98 0
	eor	w1, w1, w2
.L54:
	.loc 4 100 0
	str	w1, [x19, x0]
	add	x0, x0, 4
	.loc 4 96 0
	cmp	x0, 128
	bne	.L56
	mov	x28, x19
	add	x1, x19, 128
.L57:
	.loc 4 104 0
	mov	x0, x28
	str	x1, [x29, 120]
	bl	cpu_2_io
.LVL115:
	add	x28, x28, 16
	.loc 4 102 0
	ldr	x1, [x29, 120]
	cmp	x28, x1
	bne	.L57
	.loc 4 105 0
	mov	x3, x22
	mov	x2, x21
	mov	w1, 128
	mov	x0, x19
	bl	write_buf_to_ddr
.LVL116:
	.loc 4 107 0
	mov	w4, 1
	mov	x3, x22
	mov	x2, x21
	mov	w1, 128
	mov	x0, x19
	bl	cmp_buf_data
.LVL117:
	cbnz	x0, .L58
	.loc 4 110 0
	cbz	w20, .L59
	.loc 4 94 0 discriminator 2
	add	w25, w25, 1
.LVL118:
	cmp	w25, 32
	bne	.L60
.L59:
	.loc 4 92 0 discriminator 2
	add	w20, w20, 1
.LVL119:
	cmp	w20, 2
	bne	.L61
	.loc 4 114 0
	mov	w0, 0
	b	.L47
	.cfi_endproc
.LFE201:
	.size	crosstalk, .-crosstalk
	.section	.text.diagonalscan,"ax",@progbits
	.align	2
	.global	diagonalscan
	.type	diagonalscan, %function
diagonalscan:
.LFB272:
	.file 5 "cmd/ddr_tool/diagonalscan.c"
	.loc 5 49 0
	.cfi_startproc
.LVL120:
	stp	x29, x30, [sp, -112]!
	.cfi_def_cfa_offset 112
	.cfi_offset 29, -112
	.cfi_offset 30, -104
	.loc 5 55 0
	mov	x2, 32
	.loc 5 49 0
	add	x29, sp, 0
	.cfi_def_cfa_register 29
	stp	x19, x20, [sp, 16]
	.cfi_offset 19, -96
	.cfi_offset 20, -88
	mov	x19, x1
	.loc 5 55 0
	adrp	x1, .LANCHOR1
.LVL121:
	add	x1, x1, :lo12:.LANCHOR1
	.loc 5 49 0
	stp	x23, x24, [sp, 48]
	.cfi_offset 23, -64
	.cfi_offset 24, -56
	mov	x23, x0
	stp	x21, x22, [sp, 32]
	.loc 5 55 0
	add	x0, x29, 80
.LVL122:
	.loc 5 49 0
	stp	x25, x26, [sp, 64]
	.cfi_offset 21, -80
	.cfi_offset 22, -72
	.cfi_offset 25, -48
	.cfi_offset 26, -40
	.loc 5 55 0
	bl	memcpy
.LVL123:
	.loc 5 60 0
	adrp	x0, .LC18
	add	x0, x0, :lo12:.LC18
	bl	printf
.LVL124:
.LBB35:
.LBB36:
.LBB37:
	.loc 5 35 0
	mov	x0, 520
	movk	x0, 0xfe02, lsl 16
	ldr	w20, [x0]
.LVL125:
#APP
// 35 "cmd/ddr_tool/diagonalscan.c" 1
	dmb sy
// 0 "" 2
.LVL126:
#NO_APP
.LBE37:
.LBE36:
.LBE35:
	.loc 5 73 0
	add	x0, x29, 80
	bl	cpu_2_io
.LVL127:
	.loc 5 75 0
	add	x1, x29, 80
	mov	x2, 32
	mov	x0, x23
	bl	memcpy
.LVL128:
.LBB40:
.LBB38:
	.loc 5 40 0
	ubfx	x0, x20, 9, 2
	.loc 5 41 0
	ubfx	x20, x20, 2, 2
.LVL129:
	.loc 5 40 0
	add	w0, w0, 9
	.loc 5 41 0
	mov	w1, 2
	asr	w20, w1, w20
.LBE38:
.LBE40:
	.loc 5 76 0
	lsr	x24, x19, 1
.LBB41:
.LBB39:
	.loc 5 43 0
	add	w0, w0, w20
	sub	x19, x19, #32
.LVL130:
	mov	w25, 1
	add	x19, x19, x23
.LVL131:
	lsl	w25, w25, w0
.LBE39:
.LBE41:
	.loc 5 76 0
	mov	w21, 0
	mov	x20, 0
.LVL132:
.L74:
	.loc 5 76 0 is_stmt 0 discriminator 1
	cmp	x20, x24
	bcc	.L78
	mov	x0, 0
	b	.L75
.L78:
	.loc 5 77 0 is_stmt 1
	uxtw	x22, w21
	mov	x2, 32
	sub	x26, x19, x22
	add	x1, x29, 80
	mov	x0, x26
	bl	memcpy
.LVL133:
	.loc 5 80 0
	add	x2, x20, x23
	.loc 5 79 0
	mov	x3, 32
	mov	w4, 1
	add	x2, x2, x22
	mov	w1, w3
	add	x0, x29, 80
	bl	cmp_buf_data
.LVL134:
	.loc 5 81 0
	cbnz	x0, .L75
	.loc 5 84 0
	add	x22, x22, 40
	add	x20, x20, x25
.LVL135:
	cmp	x25, x22
	add	w21, w21, 8
.LVL136:
	csel	w21, w21, wzr, cs
.LVL137:
	.loc 5 86 0
	cmp	x24, x20
	bls	.L77
	.loc 5 87 0
	add	x0, x23, x20
.LVL138:
	mov	x2, 32
	add	x1, x29, 80
	add	x0, x0, x21, uxtw
	bl	memcpy
.LVL139:
.L77:
	.loc 5 89 0
	mov	x3, 32
	mov	w4, 1
	mov	x2, x26
	mov	w1, w3
	add	x0, x29, 80
	sub	x19, x19, x25
	bl	cmp_buf_data
.LVL140:
	.loc 5 92 0
	cbz	x0, .L74
.LVL141:
.L75:
	.loc 5 100 0
	ldp	x19, x20, [sp, 16]
	ldp	x21, x22, [sp, 32]
	ldp	x23, x24, [sp, 48]
.LVL142:
	ldp	x25, x26, [sp, 64]
	ldp	x29, x30, [sp], 112
	.cfi_restore 30
	.cfi_restore 29
	.cfi_restore 25
	.cfi_restore 26
	.cfi_restore 23
	.cfi_restore 24
	.cfi_restore 21
	.cfi_restore 22
	.cfi_restore 19
	.cfi_restore 20
	.cfi_def_cfa 31, 0
	ret
	.cfi_endproc
.LFE272:
	.size	diagonalscan, .-diagonalscan
	.section	.text.do_ddr_test,"ax",@progbits
	.align	2
	.type	do_ddr_test, %function
do_ddr_test:
.LFB259:
	.loc 1 190 0
	.cfi_startproc
.LVL143:
	stp	x29, x30, [sp, -224]!
	.cfi_def_cfa_offset 224
	.cfi_offset 29, -224
	.cfi_offset 30, -216
.LBB46:
.LBB47:
	.loc 1 50 0
	mov	x0, 0
.LVL144:
.LBE47:
.LBE46:
	.loc 1 190 0
	add	x29, sp, 0
	.cfi_def_cfa_register 29
	stp	x19, x20, [sp, 16]
	.cfi_offset 19, -208
	.cfi_offset 20, -200
.LBB54:
.LBB48:
	.loc 1 52 0
	add	x20, x29, 120
.LBE48:
.LBE54:
	.loc 1 190 0
	stp	x21, x22, [sp, 32]
	.cfi_offset 21, -192
	.cfi_offset 22, -184
.LBB55:
.LBB49:
	.loc 1 53 0
	add	x21, x29, 152
.LBE49:
.LBE55:
	.loc 1 190 0
	stp	x25, x26, [sp, 64]
	.cfi_offset 25, -160
	.cfi_offset 26, -152
	mov	w26, w2
	stp	x27, x28, [sp, 80]
.LBB56:
.LBB50:
	.loc 1 50 0
	mov	x2, x18
.LVL145:
	.cfi_offset 27, -144
	.cfi_offset 28, -136
.LBE50:
.LBE56:
	.loc 1 190 0
	mov	x27, x3
	stp	x23, x24, [sp, 48]
	.cfi_offset 23, -176
	.cfi_offset 24, -168
	.loc 1 193 0
	stp	xzr, xzr, [x29, 184]
.LBB57:
.LBB51:
	.loc 1 47 0
	mov	w23, 0
.LBE51:
.LBE57:
	.loc 1 193 0
	stp	xzr, xzr, [x29, 200]
	str	xzr, [x29, 216]
.LVL146:
.L83:
.LBB58:
.LBB52:
	.loc 1 50 0
	ldr	x1, [x2]
	ubfiz	x3, x0, 4, 32
	.loc 1 52 0
	str	xzr, [x20, x0, lsl 3]
	.loc 1 50 0
	add	x1, x1, x3
	.loc 1 53 0
	str	xzr, [x21, x0, lsl 3]
	.loc 1 50 0
	ldr	x1, [x1, 136]
	cmp	x1, 0
	csinc	w23, w23, w0, eq
.LVL147:
	add	x0, x0, 1
.LVL148:
	.loc 1 49 0
	cmp	x0, 4
	bne	.L83
	mov	x0, 0
.L84:
.LVL149:
	.loc 1 56 0
	cmp	w0, w23
	bcc	.L85
	.loc 1 61 0
	sub	w1, w23, #1
	ldr	x0, [x2, 128]
.LVL150:
	lsl	x1, x1, 3
	.loc 1 67 0
	adrp	x24, .LC21
	.loc 1 61 0
	sub	x0, x0, #1048576
	.loc 1 64 0
	mov	x22, 0
	.loc 1 67 0
	add	x24, x24, :lo12:.LC21
	.loc 1 61 0
	ldr	x2, [x20, x1]
	sub	x0, x0, x2
	.loc 1 62 0
	and	x0, x0, -4096
	.loc 1 61 0
	str	x0, [x21, x1]
	.loc 1 63 0
	adrp	x0, .LC19
	add	x0, x0, :lo12:.LC19
	bl	printf
.LVL151:
	.loc 1 64 0
	adrp	x0, .LC20
	add	x0, x0, :lo12:.LC20
	bl	printf
.LVL152:
.L86:
	.loc 1 65 0
	cmp	w23, w22
	bhi	.L88
.LVL153:
.LBE52:
.LBE58:
	.loc 1 205 0
	cmp	w26, 1
	ble	.L194
	.loc 1 209 0
	adrp	x24, .LANCHOR2
	add	x28, x24, :lo12:.LANCHOR2
	mov	x25, 0
	str	x24, [x29, 104]
.L91:
	ldr	x1, [x28, x25, lsl 3]
	mov	w22, w25
.LVL154:
	ldr	x0, [x27, 8]
	bl	strcasecmp
.LVL155:
	mov	w23, w0
	cbz	w0, .L90
.LVL156:
	add	x25, x25, 1
	.loc 1 208 0 discriminator 2
	cmp	x25, 7
	bne	.L91
	.loc 1 216 0
	adrp	x0, .LC33
	add	x0, x0, :lo12:.LC33
	b	.L195
.LVL157:
.L85:
.LBB59:
.LBB53:
	.loc 1 57 0
	ubfiz	x1, x0, 4, 32
	ldr	x3, [x2]
	add	x1, x1, 128
	add	x3, x3, x1
	ldr	x3, [x3, 8]
	str	x3, [x20, x0, lsl 3]
	.loc 1 58 0
	ldr	x3, [x2]
	add	x1, x3, x1
	ldr	x1, [x1, 16]
	str	x1, [x21, x0, lsl 3]
.LVL158:
	add	x0, x0, 1
.LVL159:
	b	.L84
.LVL160:
.L88:
	.loc 1 66 0
	ldr	x1, [x20, x22, lsl 3]
	cbz	x1, .L87
	.loc 1 67 0
	ldr	x3, [x21, x22, lsl 3]
	mov	x0, x24
	add	x2, x1, x3
	bl	printf
.LVL161:
.L87:
	add	x22, x22, 1
.LVL162:
	b	.L86
.LVL163:
.L131:
.LBE53:
.LBE59:
	.loc 1 221 0
	adrp	x0, .LC22
	add	x0, x0, :lo12:.LC22
.LVL164:
.L195:
	.loc 1 216 0
	bl	printf
.LVL165:
.L194:
	.loc 1 217 0
	mov	w23, -1
	b	.L81
.LVL166:
.L94:
	.loc 1 226 0
	add	x0, x27, x28
	add	x1, x29, 184
	add	x2, x1, x28
	mov	w1, 0
	add	x28, x28, 8
	ldr	x0, [x0, 16]
	bl	strict_strtoul
.LVL167:
	tbz	w0, #31, .L93
	.loc 1 227 0
	adrp	x0, .LC23
	add	x0, x0, :lo12:.LC23
	b	.L195
.L95:
	.loc 1 252 0
	cmp	w22, 1
	bne	.L98
	.loc 1 254 0
	ldr	x0, [x29, 208]
	b	.L197
.L98:
	.loc 1 257 0
	sub	w25, w25, #5
	cmp	w25, 1
	bls	.L99
.LVL168:
.LBB60:
.LBB61:
	.loc 1 79 0
	ldr	x0, [x29, 128]
	.loc 1 82 0
	ldr	x3, [x29, 208]
	.loc 1 79 0
	cmp	x0, 0
	ldr	x0, [x29, 136]
	ldr	x1, [x29, 144]
	cset	w25, ne
	.loc 1 80 0
	cmp	x0, 0
	mov	w0, 3
	csinc	w0, w0, w25, ne
.LVL169:
	cmp	x1, 0
	mov	w1, 4
	csel	w0, w0, w1, eq
.LVL170:
	.loc 1 82 0
	cbnz	x3, .L187
	.loc 1 83 0
	mov	w25, w0
.LVL171:
.L115:
.LBE61:
.LBE60:
	.loc 1 344 0
	ldr	x0, [x29, 216]
	cbz	x0, .L121
	.loc 1 345 0
	bl	set_vdd_logic
.LVL172:
.L121:
	.loc 1 349 0
	adrp	x27, .LC30
.LVL173:
	mov	w26, 0
	add	x27, x27, :lo12:.LC30
	b	.L129
.LVL174:
.L99:
	.loc 1 259 0
	ldr	x0, [x29, 208]
	cbz	x0, .L105
	.loc 1 260 0
	bl	set_vdd_logic
.LVL175:
.L105:
	.loc 1 261 0
	cmp	w22, 5
	bne	.L106
	.loc 1 262 0
	ldr	x1, [x29, 152]
	mov	x0, 65535
	movk	x0, 0x9f, lsl 16
	cmp	x1, x0
	bhi	.L107
	.loc 1 263 0
	lsr	x2, x1, 20
	adrp	x0, .LC26
	mov	w1, 10
	add	x0, x0, :lo12:.LC26
	bl	printf
.LVL176:
.L106:
	.loc 1 284 0
	adrp	x28, .LC28
	add	x28, x28, :lo12:.LC28
	.loc 1 280 0
	adrp	x27, .LC27
.LVL177:
	.loc 1 288 0
	mov	w26, 0
	.loc 1 280 0
	add	x0, x27, :lo12:.LC27
	str	x0, [x29, 96]
.LVL178:
.L113:
	.loc 1 278 0
	ldr	x0, [x29, 200]
	cbz	x0, .L114
	.loc 1 278 0 is_stmt 0 discriminator 1
	cmp	x0, x26, uxtw
	bls	.L97
.L114:
	.loc 1 280 0 is_stmt 1
	ldr	x0, [x29, 96]
	.loc 1 279 0
	add	w26, w26, 1
.LVL179:
	.loc 1 280 0
	mov	w1, w26
	mov	x25, 0
	bl	printf
.LVL180:
.L111:
	.loc 1 282 0
	ldr	x22, [x20, x25, lsl 3]
	cbz	x22, .L108
	.loc 1 284 0
	ldr	x19, [x21, x25, lsl 3]
	mov	x2, x22
	mov	w1, w25
	mov	x0, x28
	mov	x3, x19
	bl	printf
.LVL181:
	.loc 1 287 0
	mov	x1, x19
	mov	x0, x22
	bl	random_test
.LVL182:
	mov	w24, w0
.LVL183:
	.loc 1 289 0
	cbnz	w0, .L137
	.loc 1 290 0
	mov	x1, x19
	mov	x0, x22
.LVL184:
	bl	crosstalk
.LVL185:
	.loc 1 294 0
	cbnz	w0, .L138
	.loc 1 295 0
	mov	x1, x19
	mov	x0, x22
.LVL186:
	bl	diagonalscan
.LVL187:
	mov	w27, w0
.LVL188:
	.loc 1 299 0
	cbz	w0, .L110
	.loc 1 295 0
	mov	w24, w0
	mov	w27, 0
.LVL189:
.L190:
	.loc 1 319 0
	mov	w19, 4
	b	.L109
.LVL190:
.L107:
	.loc 1 266 0
	mov	x0, 10485760
	.loc 1 268 0
	stp	xzr, xzr, [x29, 128]
	.loc 1 266 0
	stp	xzr, x0, [x29, 144]
.LVL191:
	.loc 1 269 0
	stp	xzr, xzr, [x29, 160]
.LVL192:
	str	xzr, [x29, 176]
.LVL193:
	b	.L106
.LVL194:
.L137:
	mov	w27, 0
.L189:
	.loc 1 309 0
	mov	w19, 2
	b	.L109
.LVL195:
.L138:
	.loc 1 290 0
	mov	w24, w0
	mov	w27, 0
.L191:
	.loc 1 314 0
	mov	w19, 3
	b	.L109
.LVL196:
.L139:
	.loc 1 312 0
	mov	w24, w0
	mov	w27, 0
	b	.L191
.LVL197:
.L141:
	.loc 1 325 0
	mov	w27, -1
	b	.L190
.LVL198:
.L187:
.LBB64:
.LBB62:
	.loc 1 86 0
	ldr	x4, [x29, 200]
	.loc 1 87 0
	mov	x1, 0
	mov	w25, 0
	.loc 1 88 0
	mov	w6, 1
	.loc 1 87 0
	add	x5, x3, x4
.LVL199:
.L117:
	.loc 1 86 0
	ldr	x2, [x20, x1, lsl 3]
	cmp	x4, x2
	bcc	.L116
	.loc 1 87 0
	ldr	x7, [x21, x1, lsl 3]
	add	x2, x2, x7
	.loc 1 88 0
	cmp	x5, x2
	csel	w25, w25, w6, hi
.LVL200:
.L116:
	add	x1, x1, 1
.LVL201:
	.loc 1 85 0
	cmp	w0, w1
	bhi	.L117
	.loc 1 89 0
	cbnz	w25, .L118
	.loc 1 90 0
	adrp	x0, .LC29
	add	x0, x0, :lo12:.LC29
	bl	printf
.LVL202:
.L119:
.LBE62:
.LBE64:
	.loc 1 339 0
	cbnz	w25, .L115
	.loc 1 340 0
	mov	w23, 1
	b	.L81
.LVL203:
.L118:
.LBB65:
.LBB63:
	.loc 1 92 0
	str	x4, [x29, 120]
	.loc 1 94 0
	cmp	w0, 1
	.loc 1 93 0
	str	x3, [x29, 152]
.LVL204:
	.loc 1 94 0
	beq	.L119
	.loc 1 95 0
	str	xzr, [x29, 128]
	.loc 1 94 0
	cmp	w0, 2
	.loc 1 96 0
	str	xzr, [x29, 160]
.LVL205:
	.loc 1 94 0
	beq	.L119
	.loc 1 95 0
	str	xzr, [x29, 136]
	.loc 1 94 0
	cmp	w0, 4
	.loc 1 96 0
	str	xzr, [x29, 168]
.LVL206:
	.loc 1 94 0
	bne	.L119
	.loc 1 95 0
	str	xzr, [x29, 144]
	.loc 1 96 0
	str	xzr, [x29, 176]
.LVL207:
	b	.L119
.LVL208:
.L130:
.LBE63:
.LBE65:
	.loc 1 350 0
	mov	x28, 0
	.loc 1 348 0
	add	w26, w26, 1
.LVL209:
	.loc 1 349 0
	mov	w1, w26
	mov	x0, x27
	bl	printf
.LVL210:
.L122:
	.loc 1 350 0 discriminator 1
	cmp	w25, w28
	bhi	.L128
	mov	w0, 0
	mov	w24, 0
.LVL211:
.L127:
	.loc 1 376 0
	orr	w0, w24, w0
.LVL212:
	cbnz	w0, .L112
.LVL213:
.L129:
	.loc 1 347 0
	ldr	x0, [x29, 192]
	cbz	x0, .L130
	.loc 1 347 0 is_stmt 0 discriminator 1
	cmp	x0, x26, uxtw
	bhi	.L130
	b	.L97
.LVL214:
.L128:
	.loc 1 357 0 is_stmt 1
	ldr	x1, [x21, x28, lsl 3]
	.loc 1 351 0
	cmp	w22, 3
	.loc 1 357 0
	ldr	x0, [x20, x28, lsl 3]
	.loc 1 351 0
	beq	.L124
	cmp	w22, 4
	beq	.L125
	.loc 1 353 0
	bl	random_test
.LVL215:
.L192:
	.loc 1 361 0
	mov	w24, w0
.LVL216:
	.loc 1 369 0
	bl	ctrlc
.LVL217:
	cbnz	w0, .L144
	add	x28, x28, 1
.LVL218:
	mov	w19, w22
	.loc 1 373 0
	cbz	w24, .L122
.LVL219:
	mov	w19, w22
.LVL220:
	b	.L127
.LVL221:
.L124:
	.loc 1 357 0
	bl	crosstalk
.LVL222:
	b	.L192
.L125:
	.loc 1 361 0
	bl	diagonalscan
.LVL223:
	b	.L192
.LVL224:
.L144:
	mov	w19, w22
	.loc 1 370 0
	mov	w0, -1
	b	.L127
.LVL225:
.L90:
	.loc 1 220 0
	adrp	x0, .LANCHOR3
	add	x0, x0, :lo12:.LANCHOR3
	ldrb	w0, [x0, w25, sxtw]
	cmp	w26, w0
	blt	.L131
	sub	w26, w26, #2
.LVL226:
	.loc 1 220 0 is_stmt 0 discriminator 1
	mov	x28, 0
	lsl	x26, x26, 3
.LVL227:
.L93:
	.loc 1 225 0 is_stmt 1 discriminator 1
	cmp	x28, x26
	bne	.L94
	.loc 1 232 0
	ldp	x2, x3, [x29, 184]
	mov	w1, w22
	ldp	x4, x5, [x29, 200]
	adrp	x0, .LC24
	ldr	x6, [x29, 216]
	add	x0, x0, :lo12:.LC24
	bl	printf
.LVL228:
	.loc 1 244 0
	adrp	x0, .LC25
	add	x0, x0, :lo12:.LC25
	bl	printf
.LVL229:
	.loc 1 247 0
	cbnz	w22, .L95
	.loc 1 249 0
	ldr	x0, [x29, 192]
.L197:
	.loc 1 254 0
	cbz	x0, .L97
	.loc 1 255 0
	bl	set_vdd_logic
.LVL230:
.L97:
	.loc 1 384 0
	adrp	x0, .LC32
	add	x0, x0, :lo12:.LC32
	bl	printf
.LVL231:
	b	.L81
.LVL232:
.L110:
	.loc 1 307 0
	mov	x1, x19
	mov	x0, x22
	bl	random_test
.LVL233:
	mov	w24, w0
.LVL234:
	.loc 1 311 0
	cbnz	w0, .L189
	.loc 1 312 0
	mov	x1, x19
	mov	x0, x22
.LVL235:
	bl	crosstalk
.LVL236:
	mov	w27, w0
.LVL237:
	.loc 1 316 0
	cbnz	w0, .L139
	.loc 1 317 0
	mov	x1, x19
	mov	x0, x22
.LVL238:
	bl	diagonalscan
.LVL239:
	mov	w24, w0
.LVL240:
	.loc 1 322 0
	cbnz	w0, .L190
	.loc 1 324 0
	bl	ctrlc
.LVL241:
	cbnz	w0, .L141
	.loc 1 319 0
	mov	w19, 4
.LVL242:
.L108:
	add	x25, x25, 1
.LVL243:
	.loc 1 281 0 discriminator 2
	cmp	x25, 4
	bne	.L111
	mov	w27, 0
	mov	w24, 0
.LVL244:
.L109:
	.loc 1 329 0
	orr	w2, w24, w27
	cbz	w2, .L113
.LVL245:
.L112:
	.loc 1 381 0
	cbz	w24, .L97
	.loc 1 382 0
	ldr	x0, [x29, 104]
	add	x24, x0, :lo12:.LANCHOR2
.LVL246:
	adrp	x0, .LC31
	add	x0, x0, :lo12:.LC31
	ldr	x1, [x24, w19, sxtw 3]
	bl	printf
.LVL247:
.L81:
	.loc 1 387 0
	mov	w0, w23
	ldp	x19, x20, [sp, 16]
	ldp	x21, x22, [sp, 32]
	ldp	x23, x24, [sp, 48]
	ldp	x25, x26, [sp, 64]
	ldp	x27, x28, [sp, 80]
	ldp	x29, x30, [sp], 224
	.cfi_restore 30
	.cfi_restore 29
	.cfi_restore 27
	.cfi_restore 28
	.cfi_restore 25
	.cfi_restore 26
	.cfi_restore 23
	.cfi_restore 24
	.cfi_restore 21
	.cfi_restore 22
	.cfi_restore 19
	.cfi_restore 20
	.cfi_def_cfa 31, 0
	ret
	.cfi_endproc
.LFE259:
	.size	do_ddr_test, .-do_ddr_test
	.section	.text.print_memory,"ax",@progbits
	.align	2
	.global	print_memory
	.type	print_memory, %function
print_memory:
.LFB279:
	.loc 3 81 0
	.cfi_startproc
.LVL248:
	stp	x29, x30, [sp, -48]!
	.cfi_def_cfa_offset 48
	.cfi_offset 29, -48
	.cfi_offset 30, -40
	add	x29, sp, 0
	.cfi_def_cfa_register 29
	stp	x19, x20, [sp, 16]
	.cfi_offset 19, -32
	.cfi_offset 20, -24
	mov	x20, x0
.LVL249:
	stp	x21, x22, [sp, 32]
	.cfi_offset 21, -16
	.cfi_offset 22, -8
	.loc 3 86 0
	adrp	x21, .LC34
	.loc 3 85 0
	lsr	x22, x1, 2
	.loc 3 86 0
	add	x21, x21, :lo12:.LC34
	.loc 3 85 0
	mov	w19, 0
.LVL250:
.L199:
	.loc 3 85 0 is_stmt 0 discriminator 1
	uxtw	x1, w19
	cmp	x1, x22
	bcc	.L200
	.loc 3 89 0 is_stmt 1
	ldp	x19, x20, [sp, 16]
.LVL251:
	ldp	x21, x22, [sp, 32]
	ldp	x29, x30, [sp], 48
	.cfi_remember_state
	.cfi_restore 30
	.cfi_restore 29
	.cfi_restore 21
	.cfi_restore 22
	.cfi_restore 19
	.cfi_restore 20
	.cfi_def_cfa 31, 0
	ret
.LVL252:
.L200:
	.cfi_restore_state
	.loc 3 87 0 discriminator 3
	add	w3, w19, 3
	add	w2, w19, 2
	add	w0, w19, 1
	lsl	x1, x1, 2
	.loc 3 85 0 discriminator 3
	add	w19, w19, 4
.LVL253:
	.loc 3 86 0 discriminator 3
	ldr	w5, [x20, x3, lsl 2]
	ldr	w4, [x20, x2, lsl 2]
	ldr	w3, [x20, x0, lsl 2]
	mov	x0, x21
	ldr	w2, [x20, x1]
	add	x1, x20, x1
	bl	printf
.LVL254:
	b	.L199
	.cfi_endproc
.LFE279:
	.size	print_memory, .-print_memory
	.global	_u_boot_list_2_cmd_2_ddr_test
	.section	.rodata
	.align	3
	.set	.LANCHOR1,. + 0
.LC0:
	.word	1437226410
	.word	-1437226411
	.word	1515890085
	.word	-1515890086
	.word	-267448336
	.word	267448335
	.word	0
	.word	-1
	.section	.rodata.cmp_buf_data.str1.1,"aMS",@progbits,1
.LC12:
	.string	"test fail:address:0x%lx,read:0x%lx,reread:0x%lx,expect:0x%lx\n"
	.section	.rodata.crosstalk.str1.1,"aMS",@progbits,1
.LC13:
	.string	"\nbitflip:   \n"
.LC14:
	.string	"\b\b\b%3u"
.LC15:
	.string	"%3u\b\b\b"
.LC16:
	.string	"\nISI:\n"
.LC17:
	.string	"malloc %lu byte fail\n"
	.section	.rodata.diagonalscan.str1.1,"aMS",@progbits,1
.LC18:
	.string	"\nDiagonalScan\n"
	.section	.rodata.do_ddr_test.str1.1,"aMS",@progbits,1
.LC19:
	.string	"available memory for test:\n"
.LC20:
	.string	"\tstart\t\t end\tlength\n"
.LC21:
	.string	"\t0x%08lx - 0x%08lx 0x%08lx\n"
.LC22:
	.string	"test parameters error\n"
.LC23:
	.string	"test pattern error\n"
.LC24:
	.string	"test pattern:%d, arg:0x%lx,0x%lx,0x%lx,0x%lx,0x%lx\n"
.LC25:
	.string	"rockchip DMC didn't enable, can't change freq and freq scanning\n"
.LC26:
	.string	"fasttest need %uMB, but actually only %luMB\n"
.LC27:
	.string	"\rtimes:%08u:\n"
.LC28:
	.string	"loop:%d, start:0x%lx, len:0x%lx\n"
.LC29:
	.string	"Invalid test address\n"
.LC30:
	.string	"\rtimes:%08u, "
.LC31:
	.string	"\n%s test fail\n"
.LC32:
	.string	"\ntest pass\n"
.LC33:
	.string	"test pattern unsupported\n"
	.section	.rodata.g_isi_pattern,"a",@progbits
	.align	3
	.set	.LANCHOR0,. + 0
	.type	g_isi_pattern, %object
	.size	g_isi_pattern, 128
g_isi_pattern:
	.word	-1
	.word	0
	.word	-1
	.word	0
	.word	-1
	.word	0
	.word	-1
	.word	-1
	.word	-1
	.word	-1
	.word	0
	.word	-1
	.word	-1
	.word	-1
	.word	-1
	.word	0
	.word	-1
	.word	0
	.word	-1
	.word	0
	.word	-1
	.word	0
	.word	0
	.word	0
	.word	0
	.word	-1
	.word	0
	.word	0
	.word	0
	.word	0
	.word	0
	.word	0
	.section	.rodata.print_memory.str1.1,"aMS",@progbits,1
.LC34:
	.string	"0x%08lx: 0x%08x, 0x%08x, 0x%08x, 0x%08x\n"
	.section	.rodata.random_test.str1.1,"aMS",@progbits,1
.LC4:
	.string	"%u"
.LC5:
	.string	"\b"
.LC6:
	.string	" "
.LC7:
	.string	"\nrandom test1 fail:address:0x%lx,read:0x%x,reread:0x%x,expect:0x%x\n"
.LC8:
	.string	"%4lu"
.LC9:
	.string	"\b\b\b\b"
.LC10:
	.string	"    "
.LC11:
	.string	"\nrandom test2 fail:address:0x%lx,read:0x%lx,reread:0x%lx,expect:0x%lx\n"
	.section	.rodata.set_vdd_logic.str1.1,"aMS",@progbits,1
.LC1:
	.string	"vdd_logic"
.LC2:
	.string	"Cannot set regulator name\n"
.LC3:
	.string	"set vdd_logic fail\n"
	.section	.rodata.str1.1,"aMS",@progbits,1
.LC35:
	.string	"ddr_test"
.LC36:
	.string	"for dram simple test\n"
.LC37:
	.ascii	"arg1: test pattern include:\n\tchangefreq\n\tscanfreq\n\tran"
	.ascii	"dom\n\tcrosstalk\n\tdiagonalscan\n\tfast_test\n\tfull_test\n"
	.ascii	"for changereq: arg2:freq(Hz),arg3[option]:volt\nfor scanfreq"
	.ascii	": arg2:minfreq(Hz),arg3:maxfreq(Hz),\n\targ4:scanfreq times,"
	.ascii	" arg5[option]:volt\nfor random, crosstalk and diagonalscan:a"
	.ascii	"rg2:freq(Hz), arg3:test times,\n\targ4: start addr, arg5:len"
	.ascii	"gth, arg6[option]:volt\nfor fast_test and full_test:arg2: mi"
	.ascii	"n_freq(Hz), arg3: max_freq(Hz)\n\targ4: test times, arg5[opt"
	.ascii	"ion]:volt\n\nfreq: means dram's target frequency,unit:Hz, if"
	.ascii	" 0:keep current freq\nminfreq, maxfreq: means min and max fr"
	.ascii	"equency for dram test,unit:Hz\ntest times: test loop, if 0: "
	.ascii	"endless loop\nstart_adr: start address of memory space for t"
	.ascii	"esting,unit:physical address\nlength: length of memory space"
	.ascii	" for testing,unit:Byte, if 0: full memory space test\nvolt: "
	.ascii	"means target voltage of vdd_logic\n\nexample:\nddr freq chan"
	.ascii	"ge to:786MHz, vdd_logic:1.05v:\n\t 'ddr_test changefreq 7860"
	.ascii	"00000 1050000'\nddr freq change to:786MHz, with default vdd_"
	.ascii	"logic:\n\t 'ddr_test changefreq 786000000'\nscanning ddr fre"
	.ascii	"quency between 200 and 786MHz for 10 times:\n\t 'ddr_test sc"
	.ascii	"anfreq 200000000 786000000 100'\ndoing random test 10 times "
	.ascii	"start from"
	.string	" physical address 0x200000 and\nlength is 128MB, freq:786MHz, if freq=0 may keep current freq:\n\t 'ddr_test random 786000000 10 0x200000 0x8000000'\ndoing fast test for dram between 200MHz to 786MHz with 10 times:\n\t 'ddr_test fast_test 200000000 786000000 10'"
.LC38:
	.string	"changefreq"
.LC39:
	.string	"scanfreq"
.LC40:
	.string	"random"
.LC41:
	.string	"crosstalk"
.LC42:
	.string	"diagonalscan"
.LC43:
	.string	"fast_test"
.LC44:
	.string	"full_test"
	.section	.rodata.test_pat_param,"a",@progbits
	.align	3
	.set	.LANCHOR3,. + 0
	.type	test_pat_param, %object
	.size	test_pat_param, 7
test_pat_param:
	.byte	3
	.byte	5
	.byte	6
	.byte	6
	.byte	6
	.byte	5
	.byte	5
	.section	.rodata.test_pattern,"a",@progbits
	.align	3
	.set	.LANCHOR2,. + 0
	.type	test_pattern, %object
	.size	test_pattern, 56
test_pattern:
	.xword	.LC38
	.xword	.LC39
	.xword	.LC40
	.xword	.LC41
	.xword	.LC42
	.xword	.LC43
	.xword	.LC44
	.section	.u_boot_list_2_cmd_2_ddr_test,"aw",@progbits
	.align	2
	.type	_u_boot_list_2_cmd_2_ddr_test, %object
	.size	_u_boot_list_2_cmd_2_ddr_test, 48
_u_boot_list_2_cmd_2_ddr_test:
	.8byte	.LC35
	.word	7
	.word	1
	.8byte	do_ddr_test
	.8byte	.LC36
	.8byte	.LC37
	.8byte	0
	.text
.Letext0:
	.file 6 "include/common.h"
	.file 7 "./arch/arm/include/asm/types.h"
	.file 8 "include/linux/types.h"
	.file 9 "include/errno.h"
	.file 10 "include/linux/string.h"
	.file 11 "include/efi.h"
	.file 12 "include/dm/device.h"
	.file 13 "include/ide.h"
	.file 14 "include/linux/list.h"
	.file 15 "include/part.h"
	.file 16 "include/flash.h"
	.file 17 "include/lmb.h"
	.file 18 "include/asm-generic/u-boot.h"
	.file 19 "./arch/arm/include/asm/u-boot-arm.h"
	.file 20 "include/command.h"
	.file 21 "include/../scripts/dtc/libfdt/fdt.h"
	.file 22 "include/libfdt_env.h"
	.file 23 "include/image.h"
	.file 24 "include/dm/uclass-id.h"
	.file 25 "./arch/arm/include/asm/global_data.h"
	.file 26 "include/asm-generic/global_data.h"
	.file 27 "include/dm/of.h"
	.file 28 "include/net.h"
	.file 29 "include/malloc.h"
	.file 30 "include/dm/ofnode.h"
	.file 31 "include/linux/compat.h"
	.file 32 "include/dm/uclass.h"
	.file 33 "include/console.h"
	.file 34 "include/log.h"
	.file 35 "include/stdio.h"
	.file 36 "include/vsprintf.h"
	.file 37 "include/power/regulator.h"
	.file 38 "include/linux/delay.h"
	.section	.note.GNU-stack,"",@progbits
