	.arch armv8-a+nosimd
	.file	"ddr_test_code.c"
	.text
.Ltext0:
	.cfi_sections	.debug_frame
	.section	.text.set_ddr_freq,"ax",@progbits
	.align	2
	.type	set_ddr_freq, %function
set_ddr_freq:
.LFB256:
	.file 1 "cmd/ddr_tool/ddr_tool.c"
	.loc 1 147 0
	.cfi_startproc
.LVL0:
	stp	x29, x30, [sp, -32]!
	.cfi_def_cfa_offset 32
	.cfi_offset 29, -32
	.cfi_offset 30, -24
	.loc 1 149 0
	mov	x1, 16959
	movk	x1, 0xf, lsl 16
	cmp	x0, x1
	.loc 1 147 0
	add	x29, sp, 0
	.cfi_def_cfa_register 29
	str	x19, [sp, 16]
	.cfi_offset 19, -16
	.loc 1 149 0
	bhi	.L2
	.loc 1 150 0
	add	x1, x1, 1
	mul	x0, x0, x1
.LVL1:
	.loc 1 151 0
	cbz	x0, .L3
.L2:
	.loc 1 152 0
	bl	rockchip_ddrclk_sip_round_rate_v2
.LVL2:
	.loc 1 153 0
	bl	rockchip_ddrclk_sip_set_rate_v2
.LVL3:
.L3:
	.loc 1 155 0
	bl	rockchip_ddrclk_sip_recalc_rate_v2
.LVL4:
	mov	x19, x0
.LVL5:
	.loc 1 156 0
	mov	x1, x0
	adrp	x0, .LC1
.LVL6:
	add	x0, x0, :lo12:.LC1
	bl	printf
.LVL7:
	.loc 1 162 0
	mov	w0, w19
	ldr	x19, [sp, 16]
.LVL8:
	ldp	x29, x30, [sp], 32
	.cfi_restore 30
	.cfi_restore 29
	.cfi_restore 19
	.cfi_def_cfa 31, 0
	ret
	.cfi_endproc
.LFE256:
	.size	set_ddr_freq, .-set_ddr_freq
	.section	.text.set_vdd_logic,"ax",@progbits
	.align	2
	.type	set_vdd_logic, %function
set_vdd_logic:
.LFB257:
	.loc 1 165 0
	.cfi_startproc
.LVL9:
	stp	x29, x30, [sp, -48]!
	.cfi_def_cfa_offset 48
	.cfi_offset 29, -48
	.cfi_offset 30, -40
	add	x29, sp, 0
	.cfi_def_cfa_register 29
	stp	x19, x20, [sp, 16]
	.cfi_offset 19, -32
	.cfi_offset 20, -24
	.loc 1 169 0
	add	x1, x29, 40
	.loc 1 165 0
	mov	w20, w0
	.loc 1 169 0
	adrp	x0, .LC2
.LVL10:
	add	x0, x0, :lo12:.LC2
	bl	regulator_get_by_platname
.LVL11:
	.loc 1 170 0
	cbz	w0, .L9
	mov	w19, w0
	.loc 1 171 0
	adrp	x0, .LC3
.LVL12:
	add	x0, x0, :lo12:.LC3
.LVL13:
.L15:
	.loc 1 179 0
	bl	printf
.LVL14:
.L8:
	.loc 1 181 0
	mov	w0, w19
	ldp	x19, x20, [sp, 16]
.LVL15:
	ldp	x29, x30, [sp], 48
	.cfi_remember_state
	.cfi_restore 30
	.cfi_restore 29
	.cfi_restore 19
	.cfi_restore 20
	.cfi_def_cfa 31, 0
	ret
.LVL16:
.L9:
	.cfi_restore_state
	.loc 1 176 0
	ldr	x0, [x29, 40]
.LVL17:
	mov	w1, w20
	bl	regulator_set_value
.LVL18:
	mov	w19, w0
.LVL19:
	.loc 1 177 0
	mov	x0, 100
.LVL20:
	bl	udelay
.LVL21:
	.loc 1 178 0
	cbz	w19, .L8
	.loc 1 179 0
	adrp	x0, .LC4
	add	x0, x0, :lo12:.LC4
	b	.L15
	.cfi_endproc
.LFE257:
	.size	set_vdd_logic, .-set_vdd_logic
	.section	.text.random_test,"ax",@progbits
	.align	2
	.global	random_test
	.type	random_test, %function
random_test:
.LFB274:
	.file 2 "cmd/ddr_tool/random_test.c"
	.loc 2 88 0
	.cfi_startproc
.LVL22:
	stp	x29, x30, [sp, -112]!
	.cfi_def_cfa_offset 112
	.cfi_offset 29, -112
	.cfi_offset 30, -104
.LBB12:
.LBB13:
	.loc 2 18 0
	mov	x2, x1
.LBE13:
.LBE12:
	.loc 2 88 0
	add	x29, sp, 0
	.cfi_def_cfa_register 29
	stp	x21, x22, [sp, 32]
	.cfi_offset 21, -80
	.cfi_offset 22, -72
	mov	x22, x0
.LVL23:
	stp	x23, x24, [sp, 48]
.LBB18:
.LBB14:
	.loc 2 37 0
	adrp	x21, .LC6
.LBE14:
.LBE18:
	.loc 2 88 0
	stp	x27, x28, [sp, 80]
	.cfi_offset 23, -64
	.cfi_offset 24, -56
	.cfi_offset 27, -32
	.cfi_offset 28, -24
	mov	x23, x1
.LVL24:
	stp	x19, x20, [sp, 16]
.LBB19:
.LBB15:
	.loc 2 18 0
	mov	w1, -2139062144
.LVL25:
.LBE15:
.LBE19:
	.loc 2 88 0
	stp	x25, x26, [sp, 64]
	.cfi_offset 19, -96
	.cfi_offset 20, -88
	.cfi_offset 25, -48
	.cfi_offset 26, -40
.LBB20:
.LBB16:
	.loc 2 23 0
	adrp	x24, .LC5
	.loc 2 18 0
	bl	memset
.LVL26:
	.loc 2 23 0
	add	x24, x24, :lo12:.LC5
	.loc 2 37 0
	add	x21, x21, :lo12:.LC6
	.loc 2 24 0
	lsr	x0, x23, 2
	.loc 2 14 0
	mov	w27, 0
	.loc 2 20 0
	mov	w25, 1077952576
	.loc 2 19 0
	mov	w20, -2139062144
	.loc 2 22 0
	mov	w28, 0
	.loc 2 24 0
	str	x0, [x29, 96]
.LVL27:
.L22:
	.loc 2 23 0
	mov	w1, w28
	mov	x0, x24
	bl	printf
.LVL28:
	.loc 2 24 0
	mov	w1, 0
.LVL29:
.L17:
	ldr	x2, [x29, 96]
	uxtw	x0, w1
	cmp	x0, x2
	bcc	.L21
.LVL30:
.L20:
	.loc 2 37 0
	mov	x0, x21
	.loc 2 22 0
	add	w28, w28, 1
.LVL31:
	.loc 2 37 0
	bl	printf
.LVL32:
	.loc 2 35 0
	lsr	w25, w25, 1
.LVL33:
	.loc 2 36 0
	lsr	w20, w20, 1
.LVL34:
	.loc 2 22 0
	cmp	w28, 8
	bne	.L22
	mov	x19, -1
	b	.L19
.LVL35:
.L21:
	.loc 2 25 0
	lsl	x0, x0, 2
	add	x19, x22, x0
	ldr	w2, [x22, x0]
	str	w2, [x29, 108]
	.loc 2 26 0
	uxtw	x2, w2
	cmp	w2, w20
	beq	.L18
.LVL36:
	.loc 2 28 0
	ldr	w27, [x19]
	.loc 2 33 0
	cmn	x19, #1
	beq	.L20
.LVL37:
.L19:
	.loc 2 39 0
	adrp	x0, .LC7
	add	x0, x0, :lo12:.LC7
	bl	printf
.LVL38:
	.loc 2 40 0
	cmn	x19, #1
	beq	.L23
	.loc 2 41 0
	ldr	w2, [x29, 108]
	adrp	x0, .LC8
	mov	w4, w20
	mov	w3, w27
	mov	x1, x19
	add	x0, x0, :lo12:.LC8
	bl	printf
.LVL39:
.L36:
.LBE16:
.LBE20:
.LBB21:
.LBB22:
	.loc 2 82 0
	mov	w0, -1
.L16:
.LBE22:
.LBE21:
	.loc 2 96 0
	ldp	x19, x20, [sp, 16]
	ldp	x21, x22, [sp, 32]
.LVL40:
	ldp	x23, x24, [sp, 48]
.LVL41:
	ldp	x25, x26, [sp, 64]
	ldp	x27, x28, [sp, 80]
	ldp	x29, x30, [sp], 112
	.cfi_remember_state
	.cfi_restore 30
	.cfi_restore 29
	.cfi_restore 27
	.cfi_restore 28
	.cfi_restore 25
	.cfi_restore 26
	.cfi_restore 23
	.cfi_restore 24
	.cfi_restore 21
	.cfi_restore 22
	.cfi_restore 19
	.cfi_restore 20
	.cfi_def_cfa 31, 0
	ret
.LVL42:
.L18:
	.cfi_restore_state
.LBB24:
.LBB17:
	.loc 2 31 0
	str	w25, [x22, x0]
	.loc 2 24 0
	add	w1, w1, 1
.LVL43:
	b	.L17
.LVL44:
.L23:
.LBE17:
.LBE24:
.LBB25:
.LBB23:
	.loc 2 58 0
	adrp	x25, .LC9
.LVL45:
	.loc 2 76 0
	adrp	x24, .LC10
	.loc 2 66 0
	lsr	x28, x23, 3
.LVL46:
	.loc 2 58 0
	add	x25, x25, :lo12:.LC9
	.loc 2 76 0
	add	x24, x24, :lo12:.LC10
	.loc 2 66 0
	mov	x27, 0
	mov	x19, 0
.LVL47:
.L30:
	.loc 2 58 0
	mov	x1, x19
	mov	x0, x25
	bl	printf
.LVL48:
	.loc 2 60 0
	lsl	x20, x19, 8
	lsl	x0, x19, 24
	orr	x20, x20, x19, lsl 16
	orr	x0, x0, x19, lsl 32
	.loc 2 64 0
	mov	x2, x23
	.loc 2 60 0
	orr	x20, x20, x0
	lsl	x0, x19, 40
	orr	x0, x0, x19, lsl 48
	orr	x20, x20, x0
	orr	x0, x19, x19, lsl 56
	orr	x20, x20, x0
.LVL49:
	.loc 2 64 0
	mov	x0, x22
	mov	w1, w20
	bl	memset
.LVL50:
	.loc 2 66 0
	mov	x0, 0
.LVL51:
.L25:
	cmp	x0, x28
	bne	.L29
.LVL52:
.L28:
	.loc 2 76 0
	mov	x0, x24
.LVL53:
	.loc 2 57 0
	add	x19, x19, 1
.LVL54:
	.loc 2 76 0
	bl	printf
.LVL55:
	.loc 2 57 0
	cmp	x19, 256
	bne	.L30
	mov	x21, -1
	b	.L27
.LVL56:
.L29:
	lsl	x1, x0, 3
	add	x21, x1, x22
	.loc 2 67 0
	ldr	x26, [x1, x22]
.LVL57:
	.loc 2 68 0
	cmp	x20, x26
	beq	.L26
.LVL58:
	.loc 2 70 0
	ldr	x27, [x21]
.LVL59:
	.loc 2 74 0
	cmn	x21, #1
	beq	.L28
.LVL60:
.L27:
	.loc 2 78 0
	adrp	x0, .LC11
	add	x0, x0, :lo12:.LC11
	bl	printf
.LVL61:
	.loc 2 84 0
	mov	w0, 0
	.loc 2 79 0
	cmn	x21, #1
	beq	.L16
	.loc 2 80 0
	mov	x4, x20
	mov	x3, x27
	mov	x2, x26
	mov	x1, x21
	adrp	x0, .LC12
	add	x0, x0, :lo12:.LC12
	bl	printf
.LVL62:
	b	.L36
.LVL63:
.L26:
	.loc 2 66 0
	add	x0, x0, 1
.LVL64:
	b	.L25
.LBE23:
.LBE25:
	.cfi_endproc
.LFE274:
	.size	random_test, .-random_test
	.section	.text.scan_freq,"ax",@progbits
	.align	2
	.type	scan_freq, %function
scan_freq:
.LFB255:
	.loc 1 104 0
	.cfi_startproc
.LVL65:
	stp	x29, x30, [sp, -96]!
	.cfi_def_cfa_offset 96
	.cfi_offset 29, -96
	.cfi_offset 30, -88
	add	x29, sp, 0
	.cfi_def_cfa_register 29
	stp	x19, x20, [sp, 16]
	.cfi_offset 19, -80
	.cfi_offset 20, -72
	mov	w20, w0
	stp	x23, x24, [sp, 48]
	.loc 1 111 0
	mov	w0, 16960
.LVL66:
	.loc 1 104 0
	stp	x21, x22, [sp, 32]
	.loc 1 111 0
	movk	w0, 0xf, lsl 16
	.loc 1 104 0
	stp	x25, x26, [sp, 64]
	.cfi_offset 23, -48
	.cfi_offset 24, -40
	.cfi_offset 21, -64
	.cfi_offset 22, -56
	.cfi_offset 25, -32
	.cfi_offset 26, -24
	mov	x24, x2
	str	x27, [sp, 80]
	.cfi_offset 27, -16
	.loc 1 111 0
	cmp	w20, w0
	bls	.L38
	.loc 1 112 0
	udiv	w20, w20, w0
.LVL67:
.L38:
	.loc 1 113 0
	cmp	w1, w0
	bls	.L39
	.loc 1 114 0
	udiv	w1, w1, w0
.LVL68:
.L39:
	.loc 1 116 0
	cmp	w20, w1
	bls	.L40
	mov	w0, w20
	mov	w20, w1
.LVL69:
	mov	w1, w0
.LVL70:
.L40:
	.loc 1 125 0
	mov	w25, 16960
	.loc 1 126 0
	adrp	x22, .LC13
	.loc 1 129 0
	adrp	x23, .LC14
	.loc 1 121 0
	sub	w19, w1, w20
.LVL71:
	.loc 1 126 0
	add	x22, x22, :lo12:.LC13
	.loc 1 129 0
	add	x23, x23, :lo12:.LC14
	.loc 1 123 0
	mov	w21, 0
	.loc 1 125 0
	movk	w25, 0xf, lsl 16
.LVL72:
.L41:
	.loc 1 123 0 discriminator 1
	cmp	x24, x21, uxtw
	bhi	.L45
	.loc 1 123 0 is_stmt 0 discriminator 3
	cbnz	x24, .L46
.L45:
	.loc 1 124 0 is_stmt 1
	bl	rand
.LVL73:
	udiv	w1, w0, w19
	msub	w0, w1, w19, w0
.LVL74:
	add	w0, w0, w20
	.loc 1 125 0
	mul	w0, w0, w25
	and	x0, x0, 4294967232
	bl	rockchip_ddrclk_sip_round_rate_v2
.LVL75:
	.loc 1 126 0
	mov	w1, w21
	mov	w2, w0
	.loc 1 125 0
	mov	x26, x0
.LVL76:
	.loc 1 126 0
	mov	x0, x22
.LVL77:
	bl	printf
.LVL78:
	.loc 1 127 0
	uxtw	x0, w26
	bl	rockchip_ddrclk_sip_set_rate_v2
.LVL79:
	.loc 1 128 0
	bl	rockchip_ddrclk_sip_recalc_rate_v2
.LVL80:
	.loc 1 129 0
	mov	w1, w0
	.loc 1 128 0
	mov	x27, x0
.LVL81:
	.loc 1 129 0
	mov	x0, x23
.LVL82:
	bl	printf
.LVL83:
	.loc 1 132 0
	ldr	x0, [x18]
	mov	x1, 1048576
	ldr	x0, [x0, 136]
	bl	random_test
.LVL84:
	mov	w26, w0
.LVL85:
	.loc 1 133 0
	cbz	w0, .L42
	.loc 1 134 0
	adrp	x0, .LC15
.LVL86:
	mov	w1, w27
	add	x0, x0, :lo12:.LC15
	bl	printf
.LVL87:
.L37:
	.loc 1 144 0
	mov	w0, w26
	ldr	x27, [sp, 80]
	ldp	x19, x20, [sp, 16]
.LVL88:
	ldp	x21, x22, [sp, 32]
.LVL89:
	ldp	x23, x24, [sp, 48]
.LVL90:
	ldp	x25, x26, [sp, 64]
	ldp	x29, x30, [sp], 96
	.cfi_remember_state
	.cfi_restore 30
	.cfi_restore 29
	.cfi_restore 27
	.cfi_restore 25
	.cfi_restore 26
	.cfi_restore 23
	.cfi_restore 24
	.cfi_restore 21
	.cfi_restore 22
	.cfi_restore 19
	.cfi_restore 20
	.cfi_def_cfa 31, 0
	ret
.LVL91:
.L42:
	.cfi_restore_state
	.loc 1 137 0
	bl	ctrlc
.LVL92:
	cbz	w0, .L44
.LVL93:
.L46:
	.loc 1 123 0
	mov	w26, 0
	b	.L37
.LVL94:
.L44:
	.loc 1 123 0 is_stmt 0 discriminator 2
	add	w21, w21, 1
.LVL95:
	b	.L41
	.cfi_endproc
.LFE255:
	.size	scan_freq, .-scan_freq
	.section	.text.cpu_2_io,"ax",@progbits
	.align	2
	.global	cpu_2_io
	.type	cpu_2_io, %function
cpu_2_io:
.LFB275:
	.file 3 "cmd/ddr_tool/tool_common.c"
	.loc 3 11 0 is_stmt 1
	.cfi_startproc
.LVL96:
	ret
	.cfi_endproc
.LFE275:
	.size	cpu_2_io, .-cpu_2_io
	.section	.text.write_buf_to_ddr,"ax",@progbits
	.align	2
	.global	write_buf_to_ddr
	.type	write_buf_to_ddr, %function
write_buf_to_ddr:
.LFB276:
	.loc 3 29 0
	.cfi_startproc
.LVL97:
	.loc 3 37 0
	lsr	w1, w1, 3
.LVL98:
	.loc 3 39 0
	lsr	x3, x3, 3
.LVL99:
	.loc 3 37 0
	sub	w1, w1, #1
.LVL100:
	.loc 3 39 0
	mov	w4, 0
	mov	w5, 0
.LVL101:
.L53:
	.loc 3 39 0 is_stmt 0 discriminator 1
	uxtw	x6, w5
	cmp	x6, x3
	bcc	.L54
	.loc 3 44 0 is_stmt 1
	ret
.L54:
	.loc 3 40 0 discriminator 3
	ldr	x7, [x0, w4, uxtw 3]
	.loc 3 41 0 discriminator 3
	add	w4, w4, 1
.LVL102:
	.loc 3 40 0 discriminator 3
	str	x7, [x2, x6, lsl 3]
	.loc 3 42 0 discriminator 3
	and	w4, w1, w4
.LVL103:
	.loc 3 39 0 discriminator 3
	add	w5, w5, 1
.LVL104:
	b	.L53
	.cfi_endproc
.LFE276:
	.size	write_buf_to_ddr, .-write_buf_to_ddr
	.section	.text.cmp_buf_data,"ax",@progbits
	.align	2
	.global	cmp_buf_data
	.type	cmp_buf_data, %function
cmp_buf_data:
.LFB277:
	.loc 3 48 0
	.cfi_startproc
.LVL105:
	stp	x29, x30, [sp, -32]!
	.cfi_def_cfa_offset 32
	.cfi_offset 29, -32
	.cfi_offset 30, -24
	.loc 3 60 0
	lsr	w1, w1, 3
.LVL106:
	.loc 3 48 0
	mov	w10, w4
	.loc 3 60 0
	sub	w1, w1, #1
	.loc 3 48 0
	add	x29, sp, 0
	.cfi_def_cfa_register 29
	.loc 3 62 0
	lsr	x3, x3, 3
.LVL107:
	.loc 3 48 0
	mov	x8, x2
.LVL108:
	.loc 3 62 0
	mov	w6, 0
	.loc 3 56 0
	mov	x2, 0
.LVL109:
	.loc 3 62 0
	mov	w7, 0
	.loc 3 48 0
	str	x19, [sp, 16]
	.cfi_offset 19, -16
.LVL110:
.L56:
	.loc 3 62 0 discriminator 1
	uxtw	x5, w7
	cmp	x5, x3
	bcc	.L59
	.loc 3 61 0
	mov	x19, 0
	.loc 3 54 0
	mov	x3, 0
	.loc 3 55 0
	mov	x4, 0
	b	.L58
.L59:
	.loc 3 63 0
	lsl	x5, x5, 3
	.loc 3 64 0
	ldr	x4, [x0, w6, uxtw 3]
	.loc 3 63 0
	add	x19, x8, x5
	ldr	x2, [x8, x5]
.LVL111:
	.loc 3 64 0
	cmp	x2, x4
	beq	.L57
	.loc 3 65 0
	ldr	x3, [x19]
.LVL112:
.L58:
	.loc 3 73 0
	cmp	x19, 0
	ccmp	w10, 0, 4, ne
	beq	.L55
	.loc 3 74 0
	adrp	x0, .LC16
.LVL113:
	mov	x1, x19
.LVL114:
	add	x0, x0, :lo12:.LC16
	bl	printf
.LVL115:
.L55:
	.loc 3 78 0
	mov	x0, x19
	ldr	x19, [sp, 16]
.LVL116:
	ldp	x29, x30, [sp], 32
	.cfi_remember_state
	.cfi_restore 30
	.cfi_restore 29
	.cfi_restore 19
	.cfi_def_cfa 31, 0
	ret
.LVL117:
.L57:
	.cfi_restore_state
	.loc 3 70 0 discriminator 2
	add	w6, w6, 1
.LVL118:
	.loc 3 62 0 discriminator 2
	add	w7, w7, 1
.LVL119:
	.loc 3 71 0 discriminator 2
	and	w6, w1, w6
.LVL120:
	b	.L56
	.cfi_endproc
.LFE277:
	.size	cmp_buf_data, .-cmp_buf_data
	.section	.text.crosstalk,"ax",@progbits
	.align	2
	.global	crosstalk
	.type	crosstalk, %function
crosstalk:
.LFB200:
	.file 4 "cmd/ddr_tool/crosstalk.c"
	.loc 4 46 0
	.cfi_startproc
.LVL121:
	stp	x29, x30, [sp, -144]!
	.cfi_def_cfa_offset 144
	.cfi_offset 29, -144
	.cfi_offset 30, -136
	add	x29, sp, 0
	.cfi_def_cfa_register 29
	stp	x19, x20, [sp, 16]
	.cfi_offset 19, -128
	.cfi_offset 20, -120
	.loc 4 71 0
	add	x20, x29, 112
	.loc 4 46 0
	stp	x21, x22, [sp, 32]
	.cfi_offset 21, -112
	.cfi_offset 22, -104
	mov	x22, x0
	stp	x23, x24, [sp, 48]
	.loc 4 63 0
	adrp	x0, .LC17
.LVL122:
	.loc 4 46 0
	stp	x27, x28, [sp, 80]
	.cfi_offset 23, -96
	.cfi_offset 24, -88
	.cfi_offset 27, -64
	.cfi_offset 28, -56
	mov	x23, x1
	stp	x25, x26, [sp, 64]
	.cfi_offset 25, -80
	.cfi_offset 26, -72
	.loc 4 63 0
	add	x0, x0, :lo12:.LC17
	.loc 4 68 0
	adrp	x24, .LC19
	.loc 4 63 0
	bl	printf
.LVL123:
	.loc 4 68 0
	add	x27, x24, :lo12:.LC19
	.loc 4 66 0
	adrp	x21, .LC18
	.loc 4 64 0
	mov	w19, 0
	.loc 4 66 0
	add	x0, x21, :lo12:.LC18
	str	x0, [x29, 104]
.LVL124:
.L70:
	ldr	x0, [x29, 104]
	.loc 4 71 0
	mov	w25, 1
	.loc 4 66 0
	mov	w1, w19
	.loc 4 71 0
	lsl	w25, w25, w19
	.loc 4 65 0
	mov	w28, -1
	.loc 4 67 0
	mov	w26, 0
	.loc 4 66 0
	bl	printf
.LVL125:
.L69:
	.loc 4 68 0
	mov	w1, w26
	mov	x0, x27
	.loc 4 69 0
	mvn	w28, w28
.LVL126:
	.loc 4 68 0
	bl	printf
.LVL127:
	.loc 4 69 0
	mov	x8, 0
.LVL128:
.L66:
	.loc 4 71 0 discriminator 3
	eor	w0, w25, w28
	str	w0, [x8, x20]
	add	x8, x8, 4
	.loc 4 72 0 discriminator 3
	mvn	w28, w28
.LVL129:
	.loc 4 70 0 discriminator 3
	cmp	x8, 32
	bne	.L66
	.loc 4 77 0
	mov	x3, x23
	mov	x2, x22
	mov	w1, w8
	mov	x0, x20
	bl	write_buf_to_ddr
.LVL130:
	.loc 4 78 0
	mov	w1, w8
	mov	w4, 1
	mov	x3, x23
	mov	x2, x22
	mov	x0, x20
	bl	cmp_buf_data
.LVL131:
	cbz	x0, .L67
.LVL132:
.L75:
	.loc 4 80 0
	mov	w0, -1
.L65:
	.loc 4 115 0
	ldp	x19, x20, [sp, 16]
	ldp	x21, x22, [sp, 32]
.LVL133:
	ldp	x23, x24, [sp, 48]
.LVL134:
	ldp	x25, x26, [sp, 64]
	ldp	x27, x28, [sp, 80]
.LVL135:
	ldp	x29, x30, [sp], 144
	.cfi_remember_state
	.cfi_restore 30
	.cfi_restore 29
	.cfi_restore 27
	.cfi_restore 28
	.cfi_restore 25
	.cfi_restore 26
	.cfi_restore 23
	.cfi_restore 24
	.cfi_restore 21
	.cfi_restore 22
	.cfi_restore 19
	.cfi_restore 20
	.cfi_def_cfa 31, 0
	ret
.LVL136:
.L67:
	.cfi_restore_state
	.loc 4 67 0 discriminator 2
	add	w26, w26, 1
.LVL137:
	cmp	w26, 2
	bne	.L69
	.loc 4 64 0 discriminator 2
	add	w19, w19, 1
.LVL138:
	cmp	w19, 32
	bne	.L70
	.loc 4 87 0
	adrp	x0, .LC20
	add	x0, x0, :lo12:.LC20
	bl	printf
.LVL139:
	.loc 4 88 0
	mov	x0, 128
	bl	malloc
.LVL140:
	mov	x20, x0
.LVL141:
	.loc 4 89 0
	cbnz	x0, .L71
	.loc 4 90 0
	adrp	x0, .LC21
.LVL142:
	mov	x1, 128
	add	x0, x0, :lo12:.LC21
	bl	printf
.LVL143:
.L71:
	adrp	x25, .LANCHOR0
	.loc 4 93 0
	add	x26, x21, :lo12:.LC18
.LVL144:
	.loc 4 95 0
	add	x24, x24, :lo12:.LC19
	.loc 4 100 0
	add	x25, x25, :lo12:.LANCHOR0
	.loc 4 69 0
	mov	w19, 0
.LVL145:
.L78:
	.loc 4 94 0
	mov	w21, 0
	.loc 4 98 0
	mov	w27, 1
	.loc 4 93 0
	mov	w1, w19
	mov	x0, x26
	bl	printf
.LVL146:
.L77:
	.loc 4 95 0
	mov	w1, w21
	mov	x0, x24
	bl	printf
.LVL147:
	.loc 4 98 0
	lsl	w1, w27, w21
	mov	x8, 0
.LVL148:
.L74:
	ldr	w0, [x8, x25]
	.loc 4 97 0
	cbz	w19, .L72
	.loc 4 98 0
	eor	w0, w0, w1
.L72:
	.loc 4 100 0
	str	w0, [x20, x8]
	add	x8, x8, 4
	.loc 4 96 0
	cmp	x8, 128
	bne	.L74
	.loc 4 105 0
	mov	x3, x23
	mov	x2, x22
	mov	w1, w8
	mov	x0, x20
	bl	write_buf_to_ddr
.LVL149:
	.loc 4 107 0
	mov	w1, w8
	mov	w4, 1
	mov	x3, x23
	mov	x2, x22
	mov	x0, x20
	bl	cmp_buf_data
.LVL150:
	cbnz	x0, .L75
	.loc 4 110 0
	cbz	w19, .L76
	.loc 4 94 0 discriminator 2
	add	w21, w21, 1
.LVL151:
	cmp	w21, 32
	bne	.L77
.L76:
	.loc 4 92 0 discriminator 2
	add	w19, w19, 1
.LVL152:
	cmp	w19, 2
	bne	.L78
	.loc 4 114 0
	mov	w0, 0
	b	.L65
	.cfi_endproc
.LFE200:
	.size	crosstalk, .-crosstalk
	.section	.text.diagonalscan,"ax",@progbits
	.align	2
	.global	diagonalscan
	.type	diagonalscan, %function
diagonalscan:
.LFB271:
	.file 5 "cmd/ddr_tool/diagonalscan.c"
	.loc 5 49 0
	.cfi_startproc
.LVL153:
	stp	x29, x30, [sp, -112]!
	.cfi_def_cfa_offset 112
	.cfi_offset 29, -112
	.cfi_offset 30, -104
	.loc 5 55 0
	mov	x2, 32
	.loc 5 49 0
	add	x29, sp, 0
	.cfi_def_cfa_register 29
	stp	x19, x20, [sp, 16]
	.cfi_offset 19, -96
	.cfi_offset 20, -88
	mov	x19, x1
	.loc 5 55 0
	adrp	x1, .LANCHOR1
.LVL154:
	add	x1, x1, :lo12:.LANCHOR1
	.loc 5 49 0
	stp	x23, x24, [sp, 48]
	.cfi_offset 23, -64
	.cfi_offset 24, -56
	mov	x23, x0
	stp	x21, x22, [sp, 32]
	.loc 5 55 0
	add	x0, x29, 80
.LVL155:
	.loc 5 49 0
	stp	x25, x26, [sp, 64]
	.cfi_offset 21, -80
	.cfi_offset 22, -72
	.cfi_offset 25, -48
	.cfi_offset 26, -40
	.loc 5 55 0
	bl	memcpy
.LVL156:
	.loc 5 60 0
	adrp	x0, .LC22
	add	x0, x0, :lo12:.LC22
	bl	printf
.LVL157:
.LBB29:
.LBB30:
.LBB31:
	.loc 5 19 0
	mov	x0, 520
	movk	x0, 0xff01, lsl 16
	ldr	w20, [x0]
.LVL158:
#APP
// 19 "cmd/ddr_tool/diagonalscan.c" 1
	dmb sy
// 0 "" 2
.LVL159:
#NO_APP
.LBE31:
.LBE30:
.LBE29:
	.loc 5 75 0
	mov	x2, 32
	add	x1, x29, 80
	mov	x0, x23
	bl	memcpy
.LVL160:
.LBB34:
.LBB32:
	.loc 5 40 0
	ubfx	x0, x20, 9, 2
	.loc 5 41 0
	ubfx	x20, x20, 2, 2
.LVL161:
	.loc 5 40 0
	add	w0, w0, 9
	.loc 5 41 0
	mov	w1, 2
	asr	w20, w1, w20
.LBE32:
.LBE34:
	.loc 5 76 0
	lsr	x24, x19, 1
.LBB35:
.LBB33:
	.loc 5 43 0
	add	w0, w0, w20
	sub	x19, x19, #32
.LVL162:
	mov	w25, 1
	add	x19, x19, x23
.LVL163:
	lsl	w25, w25, w0
.LBE33:
.LBE35:
	.loc 5 76 0
	mov	w21, 0
	mov	x20, 0
.LVL164:
.L90:
	.loc 5 76 0 is_stmt 0 discriminator 1
	cmp	x20, x24
	bcc	.L94
	mov	x0, 0
	b	.L91
.L94:
	.loc 5 77 0 is_stmt 1
	uxtw	x22, w21
	mov	x2, 32
	sub	x26, x19, x22
	add	x1, x29, 80
	mov	x0, x26
	bl	memcpy
.LVL165:
	.loc 5 80 0
	add	x2, x20, x23
	.loc 5 79 0
	mov	x3, 32
	mov	w4, 1
	add	x2, x2, x22
	mov	w1, w3
	add	x0, x29, 80
	bl	cmp_buf_data
.LVL166:
	.loc 5 81 0
	cbnz	x0, .L91
	.loc 5 84 0
	add	x22, x22, 40
	add	x20, x20, x25
.LVL167:
	cmp	x25, x22
	add	w21, w21, 8
.LVL168:
	csel	w21, w21, wzr, cs
.LVL169:
	.loc 5 86 0
	cmp	x24, x20
	bls	.L93
	.loc 5 87 0
	add	x0, x23, x20
.LVL170:
	mov	x2, 32
	add	x1, x29, 80
	add	x0, x0, x21, uxtw
	bl	memcpy
.LVL171:
.L93:
	.loc 5 89 0
	mov	x3, 32
	mov	w4, 1
	mov	x2, x26
	mov	w1, w3
	add	x0, x29, 80
	sub	x19, x19, x25
	bl	cmp_buf_data
.LVL172:
	.loc 5 92 0
	cbz	x0, .L90
.LVL173:
.L91:
	.loc 5 100 0
	ldp	x19, x20, [sp, 16]
	ldp	x21, x22, [sp, 32]
	ldp	x23, x24, [sp, 48]
.LVL174:
	ldp	x25, x26, [sp, 64]
	ldp	x29, x30, [sp], 112
	.cfi_restore 30
	.cfi_restore 29
	.cfi_restore 25
	.cfi_restore 26
	.cfi_restore 23
	.cfi_restore 24
	.cfi_restore 21
	.cfi_restore 22
	.cfi_restore 19
	.cfi_restore 20
	.cfi_def_cfa 31, 0
	ret
	.cfi_endproc
.LFE271:
	.size	diagonalscan, .-diagonalscan
	.section	.text.do_ddr_test,"ax",@progbits
	.align	2
	.type	do_ddr_test, %function
do_ddr_test:
.LFB258:
	.loc 1 190 0
	.cfi_startproc
.LVL175:
	stp	x29, x30, [sp, -240]!
	.cfi_def_cfa_offset 240
	.cfi_offset 29, -240
	.cfi_offset 30, -232
.LBB40:
.LBB41:
	.loc 1 50 0
	mov	x0, 0
.LVL176:
.LBE41:
.LBE40:
	.loc 1 190 0
	add	x29, sp, 0
	.cfi_def_cfa_register 29
	stp	x21, x22, [sp, 32]
	.cfi_offset 21, -208
	.cfi_offset 22, -200
	mov	w22, w2
	stp	x19, x20, [sp, 16]
.LBB48:
.LBB42:
	.loc 1 50 0
	mov	x2, x18
.LVL177:
.LBE42:
.LBE48:
	.loc 1 190 0
	stp	x25, x26, [sp, 64]
	.cfi_offset 19, -224
	.cfi_offset 20, -216
	.cfi_offset 25, -176
	.cfi_offset 26, -168
.LBB49:
.LBB43:
	.loc 1 52 0
	add	x20, x29, 136
.LBE43:
.LBE49:
	.loc 1 190 0
	mov	x25, x3
.LBB50:
.LBB44:
	.loc 1 53 0
	add	x21, x29, 168
.LBE44:
.LBE50:
	.loc 1 190 0
	stp	x23, x24, [sp, 48]
	.cfi_offset 23, -192
	.cfi_offset 24, -184
.LBB51:
.LBB45:
	.loc 1 47 0
	mov	w24, 0
.LBE45:
.LBE51:
	.loc 1 190 0
	stp	x27, x28, [sp, 80]
	.cfi_offset 27, -160
	.cfi_offset 28, -152
	.loc 1 193 0
	stp	xzr, xzr, [x29, 200]
	stp	xzr, xzr, [x29, 216]
	str	xzr, [x29, 232]
.LVL178:
.L99:
.LBB52:
.LBB46:
	.loc 1 50 0
	ldr	x1, [x2]
	ubfiz	x3, x0, 4, 32
	.loc 1 52 0
	str	xzr, [x20, x0, lsl 3]
	.loc 1 50 0
	add	x1, x1, x3
	.loc 1 53 0
	str	xzr, [x21, x0, lsl 3]
	.loc 1 50 0
	ldr	x1, [x1, 136]
	cmp	x1, 0
	csinc	w24, w24, w0, eq
.LVL179:
	add	x0, x0, 1
.LVL180:
	.loc 1 49 0
	cmp	x0, 4
	bne	.L99
	mov	x0, 0
.L100:
.LVL181:
	.loc 1 56 0
	cmp	w0, w24
	bcc	.L101
	.loc 1 61 0
	sub	w1, w24, #1
	ldr	x0, [x2, 128]
.LVL182:
	lsl	x1, x1, 3
	.loc 1 67 0
	adrp	x26, .LC25
	.loc 1 61 0
	sub	x0, x0, #1048576
	.loc 1 64 0
	mov	x23, 0
	.loc 1 67 0
	add	x26, x26, :lo12:.LC25
	.loc 1 61 0
	ldr	x2, [x20, x1]
	sub	x0, x0, x2
	.loc 1 62 0
	and	x0, x0, -4096
	.loc 1 61 0
	str	x0, [x21, x1]
	.loc 1 63 0
	adrp	x0, .LC23
	add	x0, x0, :lo12:.LC23
	bl	printf
.LVL183:
	.loc 1 64 0
	adrp	x0, .LC24
	add	x0, x0, :lo12:.LC24
	bl	printf
.LVL184:
.L102:
	.loc 1 65 0
	cmp	w24, w23
	bhi	.L104
.LVL185:
.LBE46:
.LBE52:
	.loc 1 205 0
	cmp	w22, 1
	ble	.L214
	.loc 1 209 0
	adrp	x0, .LANCHOR2
	add	x26, x0, :lo12:.LANCHOR2
	mov	x24, 0
	str	x0, [x29, 120]
.L107:
	ldr	x1, [x26, x24, lsl 3]
	mov	w23, w24
.LVL186:
	ldr	x0, [x25, 8]
	bl	strcasecmp
.LVL187:
	cbz	w0, .L106
.LVL188:
	add	x24, x24, 1
	.loc 1 208 0 discriminator 2
	cmp	x24, 7
	bne	.L107
	.loc 1 216 0
	adrp	x0, .LC37
	add	x0, x0, :lo12:.LC37
	b	.L215
.LVL189:
.L101:
.LBB53:
.LBB47:
	.loc 1 57 0
	ubfiz	x1, x0, 4, 32
	ldr	x3, [x2]
	add	x1, x1, 128
	add	x3, x3, x1
	ldr	x3, [x3, 8]
	str	x3, [x20, x0, lsl 3]
	.loc 1 58 0
	ldr	x3, [x2]
	add	x1, x3, x1
	ldr	x1, [x1, 16]
	str	x1, [x21, x0, lsl 3]
.LVL190:
	add	x0, x0, 1
.LVL191:
	b	.L100
.LVL192:
.L104:
	.loc 1 66 0
	ldr	x1, [x20, x23, lsl 3]
	cbz	x1, .L103
	.loc 1 67 0
	ldr	x3, [x21, x23, lsl 3]
	mov	x0, x26
	add	x2, x1, x3
	bl	printf
.LVL193:
.L103:
	add	x23, x23, 1
.LVL194:
	b	.L102
.LVL195:
.L150:
.LBE47:
.LBE53:
	.loc 1 221 0
	adrp	x0, .LC26
	add	x0, x0, :lo12:.LC26
.LVL196:
.L215:
	.loc 1 216 0
	bl	printf
.LVL197:
.L214:
	.loc 1 217 0
	mov	w22, -1
	b	.L97
.LVL198:
.L110:
	.loc 1 226 0
	add	x0, x25, x26
	add	x1, x29, 200
	add	x2, x1, x26
	mov	w1, 0
	add	x26, x26, 8
	ldr	x0, [x0, 16]
	bl	strict_strtoul
.LVL199:
	tbz	w0, #31, .L109
	.loc 1 227 0
	adrp	x0, .LC27
	add	x0, x0, :lo12:.LC27
	b	.L215
.LVL200:
.L111:
	.loc 1 247 0
	cbnz	w23, .L112
	.loc 1 249 0
	ldr	x0, [x29, 208]
.LVL201:
	cbz	x0, .L113
	.loc 1 250 0
	bl	set_vdd_logic
.LVL202:
.L113:
	.loc 1 251 0
	ldr	x0, [x29, 200]
	bl	set_ddr_freq
.LVL203:
.L114:
	.loc 1 384 0
	adrp	x0, .LC36
	add	x0, x0, :lo12:.LC36
	bl	printf
.LVL204:
	b	.L97
.LVL205:
.L112:
	.loc 1 252 0
	cmp	w23, 1
	bne	.L115
	.loc 1 254 0
	ldr	x0, [x29, 224]
.LVL206:
	cbz	x0, .L116
	.loc 1 255 0
	bl	set_vdd_logic
.LVL207:
.L116:
	.loc 1 256 0
	ldr	w0, [x29, 200]
	ldr	w1, [x29, 208]
	ldr	x2, [x29, 216]
	bl	scan_freq
.LVL208:
	b	.L114
.LVL209:
.L115:
	.loc 1 257 0
	sub	w24, w24, #5
	cmp	w24, 1
	bls	.L117
.LVL210:
.LBB54:
.LBB55:
	.loc 1 79 0
	ldr	x0, [x29, 144]
.LVL211:
	.loc 1 82 0
	ldr	x3, [x29, 224]
	.loc 1 79 0
	cmp	x0, 0
	ldr	x0, [x29, 152]
	ldr	x1, [x29, 160]
	cset	w24, ne
	.loc 1 80 0
	cmp	x0, 0
	mov	w0, 3
	csinc	w0, w0, w24, ne
.LVL212:
	cmp	x1, 0
	mov	w1, 4
	csel	w0, w0, w1, eq
.LVL213:
	.loc 1 82 0
	cbnz	x3, .L209
	.loc 1 83 0
	mov	w24, w0
.LVL214:
.L134:
.LBE55:
.LBE54:
	.loc 1 342 0
	ldr	x0, [x29, 200]
	bl	set_ddr_freq
.LVL215:
	.loc 1 344 0
	ldr	x0, [x29, 232]
	cbz	x0, .L140
	.loc 1 345 0
	bl	set_vdd_logic
.LVL216:
.L140:
	.loc 1 349 0
	adrp	x26, .LC34
	mov	w25, 0
.LVL217:
	add	x26, x26, :lo12:.LC34
	b	.L148
.LVL218:
.L117:
	.loc 1 259 0
	ldr	x0, [x29, 224]
.LVL219:
	cbz	x0, .L123
	.loc 1 260 0
	bl	set_vdd_logic
.LVL220:
.L123:
	.loc 1 261 0
	cmp	w23, 5
	bne	.L155
	.loc 1 262 0
	ldr	x1, [x29, 168]
	mov	x0, 65535
	movk	x0, 0x9f, lsl 16
	cmp	x1, x0
	bhi	.L125
	.loc 1 263 0
	lsr	x2, x1, 20
	adrp	x0, .LC30
	mov	w1, 10
	add	x0, x0, :lo12:.LC30
	bl	printf
.LVL221:
.L211:
	.loc 1 272 0
	mov	w27, 60
.LVL222:
.L124:
	.loc 1 280 0
	adrp	x0, .LC31
	add	x0, x0, :lo12:.LC31
	.loc 1 284 0
	adrp	x28, .LC32
	.loc 1 280 0
	str	x0, [x29, 112]
	.loc 1 277 0
	mov	w26, 0
	.loc 1 284 0
	add	x0, x28, :lo12:.LC32
	str	x0, [x29, 104]
.LVL223:
.L126:
	.loc 1 278 0
	ldr	x0, [x29, 216]
	cbz	x0, .L132
	.loc 1 278 0 is_stmt 0 discriminator 1
	cmp	x0, x26, uxtw
	bls	.L114
.L132:
	.loc 1 280 0 is_stmt 1
	ldr	x0, [x29, 112]
	.loc 1 279 0
	add	w26, w26, 1
.LVL224:
	.loc 1 280 0
	mov	w1, w26
	mov	x25, 0
	bl	printf
.LVL225:
.L130:
	.loc 1 282 0
	ldr	x23, [x20, x25, lsl 3]
	cbz	x23, .L127
	.loc 1 284 0
	ldr	x0, [x29, 104]
	mov	x2, x23
	ldr	x24, [x21, x25, lsl 3]
	mov	w1, w25
	mov	x3, x24
	bl	printf
.LVL226:
	.loc 1 286 0
	ldr	x0, [x29, 208]
	bl	set_ddr_freq
.LVL227:
	.loc 1 287 0
	mov	x1, x24
	mov	x0, x23
	bl	random_test
.LVL228:
	mov	w28, w0
.LVL229:
	.loc 1 289 0
	cbnz	w0, .L156
	.loc 1 290 0
	mov	x1, x24
	mov	x0, x23
.LVL230:
	bl	crosstalk
.LVL231:
	mov	w28, w0
.LVL232:
	.loc 1 294 0
	cbnz	w0, .L157
	.loc 1 295 0
	mov	x1, x24
	mov	x0, x23
.LVL233:
	bl	diagonalscan
.LVL234:
	mov	w28, w0
.LVL235:
	.loc 1 299 0
	cbnz	w0, .L158
	.loc 1 300 0
	ldr	w0, [x29, 200]
.LVL236:
	and	x2, x27, 1020
	ldr	w1, [x29, 208]
	.loc 1 303 0
	mov	w19, 1
	.loc 1 300 0
	bl	scan_freq
.LVL237:
	mov	w28, w0
.LVL238:
.L128:
	.loc 1 305 0
	ldr	x0, [x29, 200]
.LVL239:
	bl	set_ddr_freq
.LVL240:
	.loc 1 306 0
	cbnz	w28, .L159
	.loc 1 307 0
	mov	x1, x24
	mov	x0, x23
	bl	random_test
.LVL241:
	mov	w2, w0
.LVL242:
	.loc 1 311 0
	cbnz	w0, .L160
	str	w2, [x29, 100]
	.loc 1 312 0
	mov	x1, x24
	mov	x0, x23
.LVL243:
	bl	crosstalk
.LVL244:
	.loc 1 316 0
	ldr	w2, [x29, 100]
	.loc 1 312 0
	mov	w19, w0
.LVL245:
	.loc 1 316 0
	cbnz	w0, .L161
	.loc 1 317 0
	mov	x1, x24
	mov	x0, x23
.LVL246:
	bl	diagonalscan
.LVL247:
	mov	w28, w0
.LVL248:
	.loc 1 322 0
	cbnz	w0, .L162
	.loc 1 324 0
	bl	ctrlc
.LVL249:
	cbnz	w0, .L163
	.loc 1 319 0
	mov	w19, 4
.LVL250:
.L127:
	add	x25, x25, 1
.LVL251:
	.loc 1 281 0 discriminator 2
	cmp	x25, 4
	bne	.L130
	mov	w2, 0
	mov	w28, 0
.LVL252:
.L129:
	.loc 1 329 0
	orr	w2, w28, w2
.LVL253:
	cbz	w2, .L126
.LVL254:
.L131:
	.loc 1 381 0
	cbz	w28, .L114
	.loc 1 382 0
	ldr	x0, [x29, 120]
	add	x0, x0, :lo12:.LANCHOR2
	ldr	x1, [x0, w19, sxtw 3]
	adrp	x0, .LC35
	add	x0, x0, :lo12:.LC35
	bl	printf
.LVL255:
	b	.L97
.LVL256:
.L125:
	.loc 1 266 0
	mov	x0, 10485760
	.loc 1 268 0
	stp	xzr, xzr, [x29, 144]
	.loc 1 266 0
	stp	xzr, x0, [x29, 160]
.LVL257:
	.loc 1 269 0
	stp	xzr, xzr, [x29, 176]
.LVL258:
	str	xzr, [x29, 192]
	b	.L211
.LVL259:
.L155:
	.loc 1 274 0
	mov	w27, 1000
	b	.L124
.LVL260:
.L156:
	.loc 1 288 0
	mov	w19, 2
	b	.L128
.LVL261:
.L157:
	.loc 1 292 0
	mov	w19, 3
	b	.L128
.LVL262:
.L158:
	.loc 1 297 0
	mov	w19, 4
	b	.L128
.LVL263:
.L159:
	mov	w2, 0
	b	.L129
.LVL264:
.L160:
	.loc 1 307 0
	mov	w28, w0
	mov	w2, 0
	.loc 1 309 0
	mov	w19, 2
	b	.L129
.LVL265:
.L161:
	.loc 1 312 0
	mov	w28, w0
	.loc 1 314 0
	mov	w19, 3
	b	.L129
.LVL266:
.L162:
	mov	w2, w19
.LVL267:
.L212:
	.loc 1 319 0
	mov	w19, 4
	b	.L129
.L163:
	.loc 1 325 0
	mov	w2, -1
	b	.L212
.LVL268:
.L209:
.LBB58:
.LBB56:
	.loc 1 86 0
	ldr	x4, [x29, 216]
	.loc 1 87 0
	mov	x1, 0
	mov	w24, 0
	.loc 1 88 0
	mov	w6, 1
	.loc 1 87 0
	add	x5, x3, x4
.LVL269:
.L136:
	.loc 1 86 0
	ldr	x2, [x20, x1, lsl 3]
	cmp	x4, x2
	bcc	.L135
	.loc 1 87 0
	ldr	x7, [x21, x1, lsl 3]
	add	x2, x2, x7
	.loc 1 88 0
	cmp	x5, x2
	csel	w24, w24, w6, hi
.LVL270:
.L135:
	add	x1, x1, 1
.LVL271:
	.loc 1 85 0
	cmp	w0, w1
	bhi	.L136
	.loc 1 89 0
	cbnz	w24, .L137
	.loc 1 90 0
	adrp	x0, .LC33
	add	x0, x0, :lo12:.LC33
	bl	printf
.LVL272:
.L138:
.LBE56:
.LBE58:
	.loc 1 339 0
	cbnz	w24, .L134
	.loc 1 340 0
	mov	w22, 1
.LVL273:
	b	.L97
.LVL274:
.L137:
.LBB59:
.LBB57:
	.loc 1 92 0
	str	x4, [x29, 136]
	.loc 1 94 0
	cmp	w0, 1
	.loc 1 93 0
	str	x3, [x29, 168]
.LVL275:
	.loc 1 94 0
	beq	.L138
	.loc 1 95 0
	str	xzr, [x29, 144]
	.loc 1 94 0
	cmp	w0, 2
	.loc 1 96 0
	str	xzr, [x29, 176]
.LVL276:
	.loc 1 94 0
	beq	.L138
	.loc 1 95 0
	str	xzr, [x29, 152]
	.loc 1 94 0
	cmp	w0, 4
	.loc 1 96 0
	str	xzr, [x29, 184]
.LVL277:
	.loc 1 94 0
	bne	.L138
	.loc 1 95 0
	str	xzr, [x29, 160]
	.loc 1 96 0
	str	xzr, [x29, 192]
.LVL278:
	b	.L138
.LVL279:
.L149:
.LBE57:
.LBE59:
	.loc 1 350 0
	mov	x27, 0
	.loc 1 348 0
	add	w25, w25, 1
.LVL280:
	.loc 1 349 0
	mov	w1, w25
	mov	x0, x26
	bl	printf
.LVL281:
.L141:
	.loc 1 350 0 discriminator 1
	cmp	w24, w27
	bhi	.L147
	mov	w0, 0
	mov	w28, 0
.LVL282:
.L146:
	.loc 1 376 0
	orr	w0, w28, w0
.LVL283:
	cbnz	w0, .L131
.LVL284:
.L148:
	.loc 1 347 0
	ldr	x0, [x29, 208]
	cbz	x0, .L149
	.loc 1 347 0 is_stmt 0 discriminator 1
	cmp	x0, x25, uxtw
	bhi	.L149
	b	.L114
.LVL285:
.L147:
	.loc 1 357 0 is_stmt 1
	ldr	x1, [x21, x27, lsl 3]
	.loc 1 351 0
	cmp	w23, 3
	.loc 1 357 0
	ldr	x0, [x20, x27, lsl 3]
	.loc 1 351 0
	beq	.L143
	cmp	w23, 4
	beq	.L144
	.loc 1 353 0
	bl	random_test
.LVL286:
.L213:
	.loc 1 361 0
	mov	w28, w0
.LVL287:
	.loc 1 369 0
	bl	ctrlc
.LVL288:
	cbnz	w0, .L166
	add	x27, x27, 1
.LVL289:
	mov	w19, w23
	.loc 1 373 0
	cbz	w28, .L141
.LVL290:
	mov	w19, w23
.LVL291:
	b	.L146
.LVL292:
.L143:
	.loc 1 357 0
	bl	crosstalk
.LVL293:
	b	.L213
.L144:
	.loc 1 361 0
	bl	diagonalscan
.LVL294:
	b	.L213
.LVL295:
.L166:
	mov	w19, w23
	.loc 1 370 0
	mov	w0, -1
	b	.L146
.LVL296:
.L106:
	.loc 1 220 0
	adrp	x0, .LANCHOR3
	add	x0, x0, :lo12:.LANCHOR3
	ldrb	w0, [x0, w24, sxtw]
	cmp	w22, w0
	blt	.L150
	sub	w22, w22, #2
.LVL297:
	.loc 1 220 0 is_stmt 0 discriminator 1
	mov	x26, 0
	lsl	x22, x22, 3
.LVL298:
.L109:
	.loc 1 225 0 is_stmt 1 discriminator 1
	cmp	x26, x22
	bne	.L110
	.loc 1 232 0
	ldp	x2, x3, [x29, 200]
	mov	w1, w23
	ldp	x4, x5, [x29, 216]
	adrp	x0, .LC28
	ldr	x6, [x29, 232]
	add	x0, x0, :lo12:.LC28
	bl	printf
.LVL299:
	.loc 1 238 0
	add	x2, x29, 128
	mov	w1, 0
	mov	w0, 53
	bl	uclass_get_device
.LVL300:
	mov	w22, w0
.LVL301:
	.loc 1 239 0
	cbz	w0, .L111
	.loc 1 240 0
	mov	w1, w0
	adrp	x0, .LC29
.LVL302:
	add	x0, x0, :lo12:.LC29
	bl	printf
.LVL303:
.L97:
	.loc 1 387 0
	mov	w0, w22
	ldp	x19, x20, [sp, 16]
	ldp	x21, x22, [sp, 32]
	ldp	x23, x24, [sp, 48]
	ldp	x25, x26, [sp, 64]
	ldp	x27, x28, [sp, 80]
	ldp	x29, x30, [sp], 240
	.cfi_restore 30
	.cfi_restore 29
	.cfi_restore 27
	.cfi_restore 28
	.cfi_restore 25
	.cfi_restore 26
	.cfi_restore 23
	.cfi_restore 24
	.cfi_restore 21
	.cfi_restore 22
	.cfi_restore 19
	.cfi_restore 20
	.cfi_def_cfa 31, 0
	ret
	.cfi_endproc
.LFE258:
	.size	do_ddr_test, .-do_ddr_test
	.section	.text.print_memory,"ax",@progbits
	.align	2
	.global	print_memory
	.type	print_memory, %function
print_memory:
.LFB278:
	.loc 3 81 0
	.cfi_startproc
.LVL304:
	stp	x29, x30, [sp, -48]!
	.cfi_def_cfa_offset 48
	.cfi_offset 29, -48
	.cfi_offset 30, -40
	add	x29, sp, 0
	.cfi_def_cfa_register 29
	stp	x19, x20, [sp, 16]
	.cfi_offset 19, -32
	.cfi_offset 20, -24
	mov	x20, x0
.LVL305:
	stp	x21, x22, [sp, 32]
	.cfi_offset 21, -16
	.cfi_offset 22, -8
	.loc 3 86 0
	adrp	x21, .LC38
	.loc 3 85 0
	lsr	x22, x1, 2
	.loc 3 86 0
	add	x21, x21, :lo12:.LC38
	.loc 3 85 0
	mov	w19, 0
.LVL306:
.L217:
	.loc 3 85 0 is_stmt 0 discriminator 1
	uxtw	x1, w19
	cmp	x1, x22
	bcc	.L218
	.loc 3 89 0 is_stmt 1
	ldp	x19, x20, [sp, 16]
.LVL307:
	ldp	x21, x22, [sp, 32]
	ldp	x29, x30, [sp], 48
	.cfi_remember_state
	.cfi_restore 30
	.cfi_restore 29
	.cfi_restore 21
	.cfi_restore 22
	.cfi_restore 19
	.cfi_restore 20
	.cfi_def_cfa 31, 0
	ret
.LVL308:
.L218:
	.cfi_restore_state
	.loc 3 87 0 discriminator 3
	add	w3, w19, 3
	add	w2, w19, 2
	add	w0, w19, 1
	lsl	x1, x1, 2
	.loc 3 85 0 discriminator 3
	add	w19, w19, 4
.LVL309:
	.loc 3 86 0 discriminator 3
	ldr	w5, [x20, x3, lsl 2]
	ldr	w4, [x20, x2, lsl 2]
	ldr	w3, [x20, x0, lsl 2]
	mov	x0, x21
	ldr	w2, [x20, x1]
	add	x1, x20, x1
	bl	printf
.LVL310:
	b	.L217
	.cfi_endproc
.LFE278:
	.size	print_memory, .-print_memory
	.global	_u_boot_list_2_cmd_2_ddr_test
	.section	.rodata
	.align	3
	.set	.LANCHOR1,. + 0
.LC0:
	.word	1437226410
	.word	-1437226411
	.word	1515890085
	.word	-1515890086
	.word	-267448336
	.word	267448335
	.word	0
	.word	-1
	.section	.rodata.cmp_buf_data.str1.1,"aMS",@progbits,1
.LC16:
	.string	"test fail:address:0x%lx,read:0x%lx,reread:0x%lx,expect:0x%lx\n"
	.section	.rodata.crosstalk.str1.1,"aMS",@progbits,1
.LC17:
	.string	"\nbitflip:   \n"
.LC18:
	.string	"\b\b\b%3u"
.LC19:
	.string	"%3u\b\b\b"
.LC20:
	.string	"\nISI:\n"
.LC21:
	.string	"malloc %lu byte fail\n"
	.section	.rodata.diagonalscan.str1.1,"aMS",@progbits,1
.LC22:
	.string	"\nDiagonalScan\n"
	.section	.rodata.do_ddr_test.str1.1,"aMS",@progbits,1
.LC23:
	.string	"available memory for test:\n"
.LC24:
	.string	"\tstart\t\t end\tlength\n"
.LC25:
	.string	"\t0x%08lx - 0x%08lx 0x%08lx\n"
.LC26:
	.string	"test parameters error\n"
.LC27:
	.string	"test pattern error\n"
.LC28:
	.string	"test pattern:%d, arg:0x%lx,0x%lx,0x%lx,0x%lx,0x%lx\n"
.LC29:
	.string	"rockchip dmc probe fail: %d\n"
.LC30:
	.string	"fasttest need %uMB, but actually only %luMB\n"
.LC31:
	.string	"\rtimes:%08u:\n"
.LC32:
	.string	"loop:%d, start:0x%lx, len:0x%lx\n"
.LC33:
	.string	"Invalid test address\n"
.LC34:
	.string	"\rtimes:%08u, "
.LC35:
	.string	"\n%s test fail\n"
.LC36:
	.string	"\ntest pass\n"
.LC37:
	.string	"test pattern unsupported\n"
	.section	.rodata.g_isi_pattern,"a",@progbits
	.align	3
	.set	.LANCHOR0,. + 0
	.type	g_isi_pattern, %object
	.size	g_isi_pattern, 128
g_isi_pattern:
	.word	-1
	.word	0
	.word	-1
	.word	0
	.word	-1
	.word	0
	.word	-1
	.word	-1
	.word	-1
	.word	-1
	.word	0
	.word	-1
	.word	-1
	.word	-1
	.word	-1
	.word	0
	.word	-1
	.word	0
	.word	-1
	.word	0
	.word	-1
	.word	0
	.word	0
	.word	0
	.word	0
	.word	-1
	.word	0
	.word	0
	.word	0
	.word	0
	.word	0
	.word	0
	.section	.rodata.print_memory.str1.1,"aMS",@progbits,1
.LC38:
	.string	"0x%08lx: 0x%08x, 0x%08x, 0x%08x, 0x%08x\n"
	.section	.rodata.random_test.str1.1,"aMS",@progbits,1
.LC5:
	.string	"%u"
.LC6:
	.string	"\b"
.LC7:
	.string	" "
.LC8:
	.string	"\nrandom test1 fail:address:0x%lx,read:0x%x,reread:0x%x,expect:0x%x\n"
.LC9:
	.string	"%4lu"
.LC10:
	.string	"\b\b\b\b"
.LC11:
	.string	"    "
.LC12:
	.string	"\nrandom test2 fail:address:0x%lx,read:0x%lx,reread:0x%lx,expect:0x%lx\n"
	.section	.rodata.scan_freq.str1.1,"aMS",@progbits,1
.LC13:
	.string	"% d:change freq to %d Hz\n"
.LC14:
	.string	"\tchange freq success: %d Hz\n"
.LC15:
	.string	"check data fail at %d Hz\n"
	.section	.rodata.set_ddr_freq.str1.1,"aMS",@progbits,1
.LC1:
	.string	"current freq:%lu Hz\n"
	.section	.rodata.set_vdd_logic.str1.1,"aMS",@progbits,1
.LC2:
	.string	"vdd_logic"
.LC3:
	.string	"Cannot set regulator name\n"
.LC4:
	.string	"set vdd_logic fail\n"
	.section	.rodata.str1.1,"aMS",@progbits,1
.LC39:
	.string	"ddr_test"
.LC40:
	.string	"for dram simple test\n"
.LC41:
	.ascii	"arg1: test pattern include:\n\tchangefreq\n\tscanfreq\n\tran"
	.ascii	"dom\n\tcrosstalk\n\tdiagonalscan\n\tfast_test\n\tfull_test\n"
	.ascii	"for changereq: arg2:freq(Hz),arg3[option]:volt\nfor scanfreq"
	.ascii	": arg2:minfreq(Hz),arg3:maxfreq(Hz),\n\targ4:scanfreq times,"
	.ascii	" arg5[option]:volt\nfor random, crosstalk and diagonalscan:a"
	.ascii	"rg2:freq(Hz), arg3:test times,\n\targ4: start addr, arg5:len"
	.ascii	"gth, arg6[option]:volt\nfor fast_test and full_test:arg2: mi"
	.ascii	"n_freq(Hz), arg3: max_freq(Hz)\n\targ4: test times, arg5[opt"
	.ascii	"ion]:volt\n\nfreq: means dram's target frequency,unit:Hz, if"
	.ascii	" 0:keep current freq\nminfreq, maxfreq: means min and max fr"
	.ascii	"equency for dram test,unit:Hz\ntest times: test loop, if 0: "
	.ascii	"endless loop\nstart_adr: start address of memory space for t"
	.ascii	"esting,unit:physical address\nlength: length of memory space"
	.ascii	" for testing,unit:Byte, if 0: full memory space test\nvolt: "
	.ascii	"means target voltage of vdd_logic\n\nexample:\nddr freq chan"
	.ascii	"ge to:786MHz, vdd_logic:1.05v:\n\t 'ddr_test changefreq 7860"
	.ascii	"00000 1050000'\nddr freq change to:786MHz, with default vdd_"
	.ascii	"logic:\n\t 'ddr_test changefreq 786000000'\nscanning ddr fre"
	.ascii	"quency between 200 and 786MHz for 10 times:\n\t 'ddr_test sc"
	.ascii	"anfreq 200000000 786000000 100'\ndoing random test 10 times "
	.ascii	"start from"
	.string	" physical address 0x200000 and\nlength is 128MB, freq:786MHz, if freq=0 may keep current freq:\n\t 'ddr_test random 786000000 10 0x200000 0x8000000'\ndoing fast test for dram between 200MHz to 786MHz with 10 times:\n\t 'ddr_test fast_test 200000000 786000000 10'"
.LC42:
	.string	"changefreq"
.LC43:
	.string	"scanfreq"
.LC44:
	.string	"random"
.LC45:
	.string	"crosstalk"
.LC46:
	.string	"diagonalscan"
.LC47:
	.string	"fast_test"
.LC48:
	.string	"full_test"
	.section	.rodata.test_pat_param,"a",@progbits
	.align	3
	.set	.LANCHOR3,. + 0
	.type	test_pat_param, %object
	.size	test_pat_param, 7
test_pat_param:
	.byte	3
	.byte	5
	.byte	6
	.byte	6
	.byte	6
	.byte	5
	.byte	5
	.section	.rodata.test_pattern,"a",@progbits
	.align	3
	.set	.LANCHOR2,. + 0
	.type	test_pattern, %object
	.size	test_pattern, 56
test_pattern:
	.xword	.LC42
	.xword	.LC43
	.xword	.LC44
	.xword	.LC45
	.xword	.LC46
	.xword	.LC47
	.xword	.LC48
	.section	.u_boot_list_2_cmd_2_ddr_test,"aw",@progbits
	.align	2
	.type	_u_boot_list_2_cmd_2_ddr_test, %object
	.size	_u_boot_list_2_cmd_2_ddr_test, 48
_u_boot_list_2_cmd_2_ddr_test:
	.8byte	.LC39
	.word	7
	.word	1
	.8byte	do_ddr_test
	.8byte	.LC40
	.8byte	.LC41
	.8byte	0
	.text
.Letext0:
	.file 6 "include/common.h"
	.file 7 "./arch/arm/include/asm/types.h"
	.file 8 "include/linux/types.h"
	.file 9 "include/errno.h"
	.file 10 "include/linux/string.h"
	.file 11 "include/efi.h"
	.file 12 "include/dm/device.h"
	.file 13 "include/ide.h"
	.file 14 "include/linux/list.h"
	.file 15 "include/part.h"
	.file 16 "include/flash.h"
	.file 17 "include/lmb.h"
	.file 18 "include/asm-generic/u-boot.h"
	.file 19 "./arch/arm/include/asm/u-boot-arm.h"
	.file 20 "include/command.h"
	.file 21 "include/../scripts/dtc/libfdt/fdt.h"
	.file 22 "include/libfdt_env.h"
	.file 23 "include/image.h"
	.file 24 "include/dm/uclass-id.h"
	.file 25 "./arch/arm/include/asm/global_data.h"
	.file 26 "include/asm-generic/global_data.h"
	.file 27 "include/dm/of.h"
	.file 28 "include/net.h"
	.file 29 "include/malloc.h"
	.file 30 "include/dm/ofnode.h"
	.file 31 "include/linux/compat.h"
	.file 32 "include/dm/uclass.h"
	.file 33 "include/console.h"
	.file 34 "include/stdio_dev.h"
	.file 35 "include/iomux.h"
	.file 36 "include/log.h"
	.file 37 "include/stdio.h"
	.file 38 "include/vsprintf.h"
	.file 39 "include/power/regulator.h"
	.file 40 "include/linux/delay.h"
	.file 41 "./arch/arm/include/asm/arch/rockchip_dmc.h"
	.section	.note.GNU-stack,"",@progbits
