/*
 * (C) Copyright 2020 Rockchip Electronics Co., Ltd
 *
 * SPDX-License-Identifier:     GPL-2.0+
 */
	.arch armv8-a+nosimd
	.file	"pvi_waveform.c"
	.text
.Ltext0:
	.cfi_sections	.debug_frame
	.section	.text.get_wf_mode_index,"ax",@progbits
	.align	2
	.type	get_wf_mode_index, %function
get_wf_mode_index:
.LFB213:
	.file 1 "drivers/video/rk_eink/epdlut/pvi_waveform.c"
	.loc 1 263 0
	.cfi_startproc
.LVL0:
	stp	x29, x30, [sp, -32]!
	.cfi_def_cfa_offset 32
	.cfi_offset 29, -32
	.cfi_offset 30, -24
	add	x29, sp, 0
	.cfi_def_cfa_register 29
	stp	x19, x20, [sp, 16]
	.cfi_offset 19, -16
	.cfi_offset 20, -8
	.loc 1 263 0
	mov	w20, w0
	.loc 1 264 0
	adrp	x0, .LANCHOR0
.LVL1:
	adrp	x19, .LANCHOR1
	ldr	x2, [x0, #:lo12:.LANCHOR0]
.LVL2:
.LBB42:
.LBB43:
	.loc 1 164 0
	ldrb	w1, [x2, 16]
	cmp	w1, 25
	beq	.L3
	bhi	.L4
	cmp	w1, 18
	beq	.L5
	bhi	.L6
	cmp	w1, 9
	beq	.L7
.L2:
	.loc 1 245 0
	add	x0, x19, :lo12:.LANCHOR1
	.loc 1 246 0
	mov	w3, 1
	.loc 1 251 0
	mov	w4, 5
	.loc 1 245 0
	str	wzr, [x19, #:lo12:.LANCHOR1]
	.loc 1 247 0
	stp	w3, w3, [x0, 4]
	.loc 1 248 0
	mov	w3, 2
	str	w3, [x0, 12]
	.loc 1 249 0
	mov	w3, 3
	.loc 1 251 0
	str	w4, [x0, 24]
	.loc 1 252 0
	mov	w4, 6
	.loc 1 249 0
	str	w3, [x0, 16]
	.loc 1 250 0
	mov	w3, 4
	.loc 1 252 0
	str	w4, [x0, 28]
	.loc 1 250 0
	str	w3, [x0, 20]
	.loc 1 253 0
	str	w3, [x0, 32]
	.loc 1 254 0
	adrp	x0, .LC0
	add	x0, x0, :lo12:.LC0
	ldrb	w2, [x2, 22]
.LVL3:
	bl	printf
.LVL4:
	b	.L13
.LVL5:
.L6:
	.loc 1 164 0
	cmp	w1, 22
	beq	.L8
	cmp	w1, 24
.L41:
	bne	.L2
	.loc 1 189 0
	add	x0, x19, :lo12:.LANCHOR1
	.loc 1 190 0
	mov	w1, 1
	.loc 1 189 0
	str	wzr, [x19, #:lo12:.LANCHOR1]
	.loc 1 190 0
	str	w1, [x0, 4]
.L45:
	.loc 1 214 0
	str	w1, [x0, 8]
	.loc 1 215 0
	mov	w1, 2
	.loc 1 218 0
	mov	w2, 5
.LVL6:
	.loc 1 215 0
	str	w1, [x0, 12]
	.loc 1 216 0
	mov	w1, 3
	.loc 1 218 0
	str	w2, [x0, 24]
	.loc 1 216 0
	str	w1, [x0, 16]
	.loc 1 219 0
	mov	w2, 6
	.loc 1 217 0
	mov	w1, 4
	str	w1, [x0, 20]
	b	.L43
.LVL7:
.L4:
	.loc 1 164 0
	cmp	w1, 35
	beq	.L10
	bhi	.L11
	cmp	w1, 32
	b	.L41
.L11:
	cmp	w1, 67
	beq	.L3
	cmp	w1, 84
	bne	.L2
	.loc 1 200 0
	add	x0, x19, :lo12:.LANCHOR1
	.loc 1 201 0
	mov	w1, 1
	.loc 1 200 0
	str	wzr, [x19, #:lo12:.LANCHOR1]
	.loc 1 207 0
	mov	w2, 5
.LVL8:
	.loc 1 202 0
	stp	w1, w1, [x0, 4]
	.loc 1 203 0
	mov	w1, 2
	str	w1, [x0, 12]
	.loc 1 204 0
	mov	w1, 3
	str	w1, [x0, 16]
	.loc 1 205 0
	mov	w1, 4
	.loc 1 206 0
	stp	w1, w1, [x0, 20]
.L43:
	.loc 1 242 0
	stp	w2, w1, [x0, 28]
	b	.L13
.LVL9:
.L7:
	.loc 1 166 0
	add	x0, x19, :lo12:.LANCHOR1
	.loc 1 167 0
	mov	w1, 1
	.loc 1 166 0
	str	wzr, [x19, #:lo12:.LANCHOR1]
	.loc 1 168 0
	stp	w1, w1, [x0, 4]
	.loc 1 169 0
	mov	w1, 2
	str	w1, [x0, 12]
	.loc 1 170 0
	mov	w1, 3
	.loc 1 171 0
	stp	w1, w1, [x0, 16]
	.loc 1 172 0
	str	w1, [x0, 24]
	.loc 1 173 0
	str	w1, [x0, 32]
	.loc 1 174 0
	mov	w1, 4
.L42:
	.loc 1 185 0
	str	w1, [x0, 28]
.LVL10:
.L13:
.LBE43:
.LBE42:
	.loc 1 270 0
	cmp	w20, 5
	beq	.L27
	.loc 1 273 0
	cmp	w20, 2
	beq	.L27
	.loc 1 276 0
	sub	w20, w20, #1
.LVL11:
	cmp	w20, 9
	bhi	.L15
	adrp	x0, .L17
	add	x0, x0, :lo12:.L17
	ldrb	w0, [x0,w20,uxtw]
	adr	x1, .Lrtx17
	add	x0, x1, w0, sxtb #2
	br	x0
.Lrtx17:
	.section	.rodata.get_wf_mode_index,"a",@progbits
	.align	0
	.align	2
.L17:
	.byte	(.L16 - .Lrtx17) / 4
	.byte	(.L15 - .Lrtx17) / 4
	.byte	(.L18 - .Lrtx17) / 4
	.byte	(.L19 - .Lrtx17) / 4
	.byte	(.L15 - .Lrtx17) / 4
	.byte	(.L20 - .Lrtx17) / 4
	.byte	(.L27 - .Lrtx17) / 4
	.byte	(.L21 - .Lrtx17) / 4
	.byte	(.L22 - .Lrtx17) / 4
	.byte	(.L23 - .Lrtx17) / 4
	.section	.text.get_wf_mode_index
.LVL12:
.L8:
.LBB45:
.LBB44:
	.loc 1 177 0
	add	x0, x19, :lo12:.LANCHOR1
	.loc 1 178 0
	mov	w1, 1
	.loc 1 177 0
	str	wzr, [x19, #:lo12:.LANCHOR1]
	.loc 1 179 0
	stp	w1, w1, [x0, 4]
	.loc 1 180 0
	mov	w1, 2
	str	w1, [x0, 12]
	.loc 1 181 0
	mov	w1, 3
	str	w1, [x0, 16]
	.loc 1 182 0
	mov	w1, 4
	.loc 1 183 0
	stp	w1, w1, [x0, 20]
	.loc 1 184 0
	mov	w1, 5
	str	w1, [x0, 32]
	.loc 1 185 0
	mov	w1, 6
	b	.L42
.L3:
	.loc 1 212 0
	add	x0, x19, :lo12:.LANCHOR1
	.loc 1 213 0
	mov	w1, 1
	.loc 1 212 0
	str	wzr, [x19, #:lo12:.LANCHOR1]
	.loc 1 213 0
	str	w1, [x0, 4]
	.loc 1 214 0
	mov	w1, 7
	b	.L45
.L5:
	.loc 1 223 0
	add	x0, x19, :lo12:.LANCHOR1
	.loc 1 224 0
	mov	w1, 1
	.loc 1 229 0
	mov	w2, 6
.LVL13:
	.loc 1 223 0
	str	wzr, [x19, #:lo12:.LANCHOR1]
	.loc 1 224 0
	str	w1, [x0, 4]
	.loc 1 225 0
	mov	w1, 7
	str	w1, [x0, 8]
	.loc 1 226 0
	mov	w1, 3
	.loc 1 229 0
	str	w2, [x0, 24]
	.loc 1 227 0
	stp	w1, w1, [x0, 12]
	.loc 1 228 0
	mov	w1, 5
	str	w1, [x0, 20]
.L44:
	.loc 1 241 0
	mov	w2, 4
	b	.L43
.LVL14:
.L10:
	.loc 1 234 0
	add	x0, x19, :lo12:.LANCHOR1
	.loc 1 235 0
	mov	w1, 1
	.loc 1 234 0
	str	wzr, [x19, #:lo12:.LANCHOR1]
	.loc 1 235 0
	str	w1, [x0, 4]
	.loc 1 236 0
	mov	w1, 5
	str	w1, [x0, 8]
	.loc 1 237 0
	mov	w1, 2
	str	w1, [x0, 12]
	.loc 1 238 0
	mov	w1, 3
	.loc 1 239 0
	stp	w1, w1, [x0, 16]
	.loc 1 240 0
	str	w1, [x0, 24]
	b	.L44
.LVL15:
.L16:
.LBE44:
.LBE45:
	.loc 1 281 0
	mov	w0, 0
.LVL16:
.L14:
	.loc 1 306 0
	add	x19, x19, :lo12:.LANCHOR1
	ldr	w0, [x19, w0, sxtw 2]
.LVL17:
	b	.L1
.LVL18:
.L21:
	.loc 1 287 0
	mov	w0, 4
	.loc 1 288 0
	b	.L14
.LVL19:
.L22:
	.loc 1 290 0
	mov	w0, 5
	.loc 1 291 0
	b	.L14
.LVL20:
.L23:
	.loc 1 293 0
	mov	w0, 6
	.loc 1 294 0
	b	.L14
.LVL21:
.L18:
	.loc 1 296 0
	mov	w0, 2
	.loc 1 297 0
	b	.L14
.LVL22:
.L19:
	.loc 1 299 0
	mov	w0, 1
	.loc 1 300 0
	b	.L14
.LVL23:
.L15:
	.loc 1 302 0
	adrp	x0, .LC1
	add	x0, x0, :lo12:.LC1
	bl	printf
.LVL24:
	.loc 1 303 0
	mov	w0, -1
.L1:
	.loc 1 307 0
	ldp	x19, x20, [sp, 16]
	ldp	x29, x30, [sp], 32
	.cfi_remember_state
	.cfi_restore 30
	.cfi_restore 29
	.cfi_restore 19
	.cfi_restore 20
	.cfi_def_cfa 31, 0
	ret
.LVL25:
.L20:
	.cfi_restore_state
	.loc 1 278 0
	mov	w0, 7
	b	.L14
.LVL26:
.L27:
	.loc 1 284 0
	mov	w0, 3
	b	.L14
	.cfi_endproc
.LFE213:
	.size	get_wf_mode_index, .-get_wf_mode_index
	.section	.text.get_lut_gray16_data,"ax",@progbits
	.align	2
	.type	get_lut_gray16_data, %function
get_lut_gray16_data:
.LFB222:
	.loc 1 530 0
	.cfi_startproc
.LVL27:
	stp	x29, x30, [sp, -48]!
	.cfi_def_cfa_offset 48
	.cfi_offset 29, -48
	.cfi_offset 30, -40
	.loc 1 536 0
	mov	x2, 19200
	.loc 1 530 0
	add	x29, sp, 0
	.cfi_def_cfa_register 29
	stp	x19, x20, [sp, 16]
	.cfi_offset 19, -32
	.cfi_offset 20, -24
	.loc 1 536 0
	adrp	x19, gray_data
	.loc 1 530 0
	stp	x21, x22, [sp, 32]
	.cfi_offset 21, -16
	.cfi_offset 22, -8
	.loc 1 536 0
	add	x21, x19, :lo12:gray_data
	.loc 1 530 0
	mov	x22, x0
	mov	w20, w1
	.loc 1 536 0
	mov	x0, x21
.LVL28:
	mov	w1, 0
.LVL29:
	bl	memset
.LVL30:
	adrp	x0, waveformdata
	add	x0, x0, :lo12:waveformdata
	mov	x4, 0
.LVL31:
.L47:
	lsl	w8, w4, 1
	.loc 1 530 0
	mov	x3, 0
	b	.L52
.LVL32:
.L48:
.LBB46:
.LBB47:
	.loc 1 157 0
	lsl	x2, x5, 10
	add	x7, x21, x5, lsl 6
	add	x5, x5, 1
.LVL33:
.LBE47:
.LBE46:
	.loc 1 541 0
	ldrb	w2, [x1, x2]
	lsl	w6, w2, w8
	ldr	w2, [x7, x3]
	orr	w2, w2, w6
	str	w2, [x7, x3]
.L50:
.LVL34:
	.loc 1 539 0 discriminator 1
	cmp	w20, w5
	bgt	.L48
	add	x3, x3, 4
	.loc 1 538 0 discriminator 2
	cmp	x3, 64
	beq	.L49
.LVL35:
.L52:
	add	x1, x4, x3, lsl 3
	.loc 1 530 0
	mov	x5, 0
	add	x1, x1, x0
	b	.L50
.LVL36:
.L49:
	add	x4, x4, 1
.LVL37:
	.loc 1 537 0 discriminator 2
	cmp	x4, 16
	bne	.L47
	.loc 1 546 0
	lsl	w2, w20, 6
	add	x1, x19, :lo12:gray_data
	mov	x0, x22
	sxtw	x2, w2
	.loc 1 547 0
	ldp	x19, x20, [sp, 16]
.LVL38:
	ldp	x21, x22, [sp, 32]
.LVL39:
	ldp	x29, x30, [sp], 48
	.cfi_restore 30
	.cfi_restore 29
	.cfi_restore 21
	.cfi_restore 22
	.cfi_restore 19
	.cfi_restore 20
	.cfi_def_cfa 31, 0
	.loc 1 546 0
	b	memcpy
.LVL40:
	.cfi_endproc
.LFE222:
	.size	get_lut_gray16_data, .-get_lut_gray16_data
	.section	.text.get_lut_gray2_data,"ax",@progbits
	.align	2
	.type	get_lut_gray2_data, %function
get_lut_gray2_data:
.LFB220:
	.loc 1 485 0
	.cfi_startproc
.LVL41:
	stp	x29, x30, [sp, -48]!
	.cfi_def_cfa_offset 48
	.cfi_offset 29, -48
	.cfi_offset 30, -40
	.loc 1 490 0
	mov	x2, 2400
	.loc 1 485 0
	add	x29, sp, 0
	.cfi_def_cfa_register 29
	stp	x19, x20, [sp, 16]
	.cfi_offset 19, -32
	.cfi_offset 20, -24
	.loc 1 490 0
	adrp	x20, .LANCHOR2
	add	x19, x20, :lo12:.LANCHOR2
	.loc 1 485 0
	stp	x21, x22, [sp, 32]
	.cfi_offset 21, -16
	.cfi_offset 22, -8
	.loc 1 485 0
	mov	x22, x0
	mov	w21, w1
	.loc 1 490 0
	mov	x0, x19
.LVL42:
	mov	w1, 0
.LVL43:
	bl	memset
.LVL44:
	adrp	x3, waveformdata+15
	add	x0, x19, 4
	add	x3, x3, :lo12:waveformdata+15
	.loc 1 491 0
	mov	w2, 0
.LVL45:
.L55:
	.loc 1 491 0 is_stmt 0 discriminator 1
	cmp	w2, w21
	bge	.L56
	ldr	w1, [x0, -4]
.LBB48:
.LBB49:
.LBB50:
	.loc 1 157 0 is_stmt 1
	sub	x7, x3, #15
.LBE50:
.LBE49:
.LBE48:
	.loc 1 491 0
	mov	x4, 0
.L57:
.LVL46:
.LBB53:
.LBB52:
.LBB51:
	.loc 1 157 0
	lsl	x5, x4, 5
.LBE51:
.LBE52:
	.loc 1 496 0
	lsl	w6, w4, 1
	add	x4, x4, 1
.LVL47:
.LBE53:
	.loc 1 493 0
	cmp	x4, 16
.LBB54:
	.loc 1 496 0
	ldrb	w5, [x7, x5]
	lsl	w5, w5, w6
	orr	w1, w1, w5
.LBE54:
	.loc 1 493 0
	bne	.L57
	ldr	w4, [x0]
	mov	x6, x3
	str	w1, [x0, -4]
	mov	w1, 0
.L58:
.LBB55:
	.loc 1 496 0
	ldrb	w5, [x6], 32
	lsl	w5, w5, w1
	add	w1, w1, 2
	orr	w4, w4, w5
.LBE55:
	.loc 1 493 0
	cmp	w1, 32
	bne	.L58
	str	w4, [x0], 8
.LVL48:
	.loc 1 491 0 discriminator 1
	add	w2, w2, 1
.LVL49:
	add	x3, x3, 1024
	b	.L55
.LVL50:
.L56:
	.loc 1 501 0
	lsl	w2, w21, 3
.LVL51:
	add	x1, x20, :lo12:.LANCHOR2
	mov	x0, x22
	sxtw	x2, w2
	.loc 1 502 0
	ldp	x19, x20, [sp, 16]
	ldp	x21, x22, [sp, 32]
.LVL52:
	ldp	x29, x30, [sp], 48
	.cfi_restore 30
	.cfi_restore 29
	.cfi_restore 21
	.cfi_restore 22
	.cfi_restore 19
	.cfi_restore 20
	.cfi_def_cfa 31, 0
	.loc 1 501 0
	b	memcpy
.LVL53:
	.cfi_endproc
.LFE220:
	.size	get_lut_gray2_data, .-get_lut_gray2_data
	.section	.text.decodewaveform,"ax",@progbits
	.align	2
	.global	decodewaveform
	.type	decodewaveform, %function
decodewaveform:
.LFB210:
	.loc 1 50 0
	.cfi_startproc
.LVL54:
	.loc 1 58 0
	cmp	w1, 32
	ccmp	w1, 16, 4, ne
	beq	.L65
	.loc 1 58 0 is_stmt 0 discriminator 1
	cmp	w2, 32
	ccmp	w2, 16, 4, ne
	bne	.L81
.L65:
	.loc 1 50 0 is_stmt 1
	stp	x29, x30, [sp, -64]!
	.cfi_def_cfa_offset 64
	.cfi_offset 29, -64
	.cfi_offset 30, -56
	add	x29, sp, 0
	.cfi_def_cfa_register 29
	stp	x21, x22, [sp, 32]
	.cfi_offset 21, -32
	.cfi_offset 22, -24
	.loc 1 61 0
	adrp	x22, waveformdata
	.loc 1 50 0
	stp	x23, x24, [sp, 48]
	.cfi_offset 23, -16
	.cfi_offset 24, -8
	.loc 1 61 0
	add	x24, x22, :lo12:waveformdata
	.loc 1 50 0
	stp	x19, x20, [sp, 16]
	.cfi_offset 19, -48
	.cfi_offset 20, -40
	mov	w21, w1
	mov	w20, w2
	mov	x23, x0
	.loc 1 61 0
	mov	x2, 524288
.LVL55:
	mov	w1, 0
.LVL56:
	mov	x0, x24
.LVL57:
	bl	memset
.LVL58:
	.loc 1 118 0
	mov	x5, x24
	.loc 1 56 0
	mov	w10, 1
	.loc 1 53 0
	mov	w0, 0
	.loc 1 52 0
	mov	w19, 0
	.loc 1 51 0
	mov	w3, 0
	mov	w6, 0
.LVL59:
.L67:
	.loc 1 69 0
	ldrb	w1, [x23, w0, uxtw]
	cmp	w1, 255
	beq	.L68
	.loc 1 74 0
	cmp	w1, 252
	bne	.L69
	.loc 1 75 0
	eor	w10, w10, 1
.LVL60:
	.loc 1 76 0
	add	w0, w0, 1
.LVL61:
.L69:
	uxtw	x7, w3
	add	w2, w3, 1
	add	w12, w3, 3
	add	w1, w3, 2
	uxtw	x13, w0
	add	w11, w0, 1
	uxtw	x8, w6
	uxtw	x4, w19
	add	w3, w3, 4
	.loc 1 79 0
	cbz	w10, .L70
	.loc 1 82 0
	lsl	x4, x4, 5
	.loc 1 80 0
	ldrb	w16, [x23, x13]
.LVL62:
	.loc 1 82 0
	add	x7, x4, x7
	.loc 1 83 0
	add	x2, x4, x2, uxtw
	.loc 1 82 0
	add	x7, x5, x7, lsl 5
	.loc 1 83 0
	add	x2, x5, x2, lsl 5
	.loc 1 82 0
	and	w13, w16, 3
	.loc 1 83 0
	ubfx	x14, x16, 2, 2
	.loc 1 84 0
	ubfx	x15, x16, 4, 2
	.loc 1 89 0
	cmp	w3, w21
	.loc 1 82 0
	strb	w13, [x7, x8]
	.loc 1 83 0
	strb	w14, [x2, x8]
.LVL63:
	.loc 1 84 0
	add	x2, x4, x1, uxtw
	add	x2, x5, x2, lsl 5
	.loc 1 85 0
	add	x4, x4, x12, uxtw
	add	x4, x5, x4, lsl 5
	lsr	w1, w16, 6
	.loc 1 84 0
	strb	w15, [x2, x8]
.LVL64:
	.loc 1 85 0
	strb	w1, [x4, x8]
.LVL65:
	.loc 1 89 0
	bcc	.L71
.LVL66:
	.loc 1 91 0
	add	w6, w6, 1
.LVL67:
	cmp	w21, w6
	bhi	.L82
.LVL68:
	.loc 1 93 0
	add	w19, w19, 1
.LVL69:
	.loc 1 90 0
	mov	w3, 0
	.loc 1 92 0
	mov	w6, 0
.LVL70:
.L71:
	.loc 1 97 0
	ldrb	w4, [x23, w11, uxtw]
.LVL71:
.L72:
	.loc 1 98 0 discriminator 1
	cbnz	w4, .L74
	.loc 1 113 0
	add	w0, w0, 2
.LVL72:
	b	.L75
.LVL73:
.L84:
	.loc 1 126 0
	mov	w3, 0
.LVL74:
.L75:
	.loc 1 64 0
	cmp	w19, 511
	bls	.L67
	.loc 1 65 0
	adrp	x0, .LC2
.LVL75:
	add	x0, x0, :lo12:.LC2
	bl	printf
.LVL76:
.L68:
	.loc 1 135 0
	cmp	w21, 32
	ccmp	w20, 16, 0, eq
	bne	.L76
	add	x22, x22, :lo12:waveformdata
	mov	w0, 0
.L77:
.LVL77:
	.loc 1 137 0 discriminator 1
	cmp	w0, w19
	bcc	.L85
.LVL78:
.L76:
	.loc 1 152 0
	mov	w0, w19
	.loc 1 153 0
	ldp	x19, x20, [sp, 16]
.LVL79:
	ldp	x21, x22, [sp, 32]
.LVL80:
	ldp	x23, x24, [sp, 48]
.LVL81:
	ldp	x29, x30, [sp], 64
	.cfi_remember_state
	.cfi_restore 30
	.cfi_restore 29
	.cfi_restore 23
	.cfi_restore 24
	.cfi_restore 21
	.cfi_restore 22
	.cfi_restore 19
	.cfi_restore 20
	.cfi_def_cfa 31, 0
	ret
.LVL82:
.L82:
	.cfi_restore_state
	.loc 1 90 0
	mov	w3, 0
	b	.L71
.LVL83:
.L74:
	.loc 1 99 0
	ubfiz	x11, x19, 5, 32
	.loc 1 100 0
	add	w8, w3, 1
	.loc 1 99 0
	add	x7, x11, x3, uxtw
	uxtw	x2, w6
	add	x7, x5, x7, lsl 5
	.loc 1 100 0
	add	x8, x11, x8
	add	x8, x5, x8, lsl 5
	.loc 1 99 0
	strb	w13, [x7, x2]
	.loc 1 101 0
	add	w7, w3, 3
.LVL84:
	.loc 1 100 0
	strb	w14, [x8, x2]
	.loc 1 101 0
	add	w8, w3, 2
	add	x8, x11, x8
	.loc 1 102 0
	add	x7, x11, x7, uxtw
.LVL85:
	.loc 1 101 0
	add	x8, x5, x8, lsl 5
	.loc 1 102 0
	add	x7, x5, x7, lsl 5
	add	w3, w3, 4
.LVL86:
	.loc 1 104 0
	cmp	w21, w3
	.loc 1 101 0
	strb	w15, [x8, x2]
.LVL87:
	.loc 1 102 0
	strb	w1, [x7, x2]
	.loc 1 104 0
	bhi	.L73
.LVL88:
	.loc 1 106 0
	add	w6, w6, 1
.LVL89:
	cmp	w21, w6
	bhi	.L83
.LVL90:
	.loc 1 108 0
	add	w19, w19, 1
.LVL91:
	.loc 1 105 0
	mov	w3, 0
	.loc 1 107 0
	mov	w6, 0
.LVL92:
.L73:
	.loc 1 98 0
	sub	w4, w4, #1
.LVL93:
	and	w4, w4, 255
.LVL94:
	b	.L72
.LVL95:
.L83:
	.loc 1 105 0
	mov	w3, 0
	b	.L73
.LVL96:
.L70:
	.loc 1 118 0
	lsl	x4, x4, 5
	.loc 1 116 0
	ldrb	w0, [x23, x13]
.LVL97:
	.loc 1 118 0
	add	x7, x4, x7
	.loc 1 119 0
	add	x2, x4, x2, uxtw
	.loc 1 118 0
	add	x7, x5, x7, lsl 5
	.loc 1 119 0
	add	x2, x5, x2, lsl 5
	.loc 1 120 0
	add	x1, x4, x1, uxtw
	.loc 1 121 0
	add	x4, x4, x12, uxtw
	.loc 1 120 0
	add	x1, x5, x1, lsl 5
	.loc 1 118 0
	and	w13, w0, 3
	.loc 1 121 0
	add	x4, x5, x4, lsl 5
	.loc 1 118 0
	strb	w13, [x7, x8]
	.loc 1 119 0
	ubfx	x7, x0, 2, 2
	strb	w7, [x2, x8]
.LVL98:
	.loc 1 120 0
	ubfx	x2, x0, 4, 2
	strb	w2, [x1, x8]
.LVL99:
	.loc 1 121 0
	lsr	w0, w0, 6
.LVL100:
	strb	w0, [x4, x8]
	.loc 1 125 0
	cmp	w3, w21
	.loc 1 123 0
	mov	w0, w11
.LVL101:
	.loc 1 125 0
	bcc	.L75
.LVL102:
	.loc 1 127 0
	add	w6, w6, 1
.LVL103:
	cmp	w21, w6
	bhi	.L84
.LVL104:
	.loc 1 129 0
	add	w19, w19, 1
.LVL105:
	.loc 1 126 0
	mov	w3, 0
	.loc 1 128 0
	mov	w6, 0
	b	.L75
.LVL106:
.L85:
	.loc 1 145 0
	sbfiz	x5, x0, 5, 32
	mov	x2, 0
.L80:
.LVL107:
	and	x1, x2, 2147483647
	add	x4, x2, x0, uxtw 4
	add	x1, x5, x1
	add	x4, x22, x4, lsl 6
	add	x1, x22, x1, lsl 5
	mov	x3, 0
.LVL108:
.L78:
	.loc 1 144 0 discriminator 3
	lsl	x6, x3, 1
	ldrb	w7, [x4, x6]
.LVL109:
	.loc 1 145 0 discriminator 3
	and	x6, x3, 2147483647
	add	x3, x3, 1
.LVL110:
	.loc 1 139 0 discriminator 3
	cmp	x3, 16
	.loc 1 145 0 discriminator 3
	strb	w7, [x1, x6]
	.loc 1 139 0 discriminator 3
	bne	.L78
.LVL111:
	add	x2, x2, 1
.LVL112:
	.loc 1 138 0 discriminator 2
	cmp	x2, 16
	bne	.L80
	.loc 1 137 0 discriminator 2
	add	w0, w0, 1
.LVL113:
	and	w0, w0, 255
.LVL114:
	b	.L77
.LVL115:
.L81:
	.cfi_def_cfa 31, 0
	.cfi_restore 19
	.cfi_restore 20
	.cfi_restore 21
	.cfi_restore 22
	.cfi_restore 23
	.cfi_restore 24
	.cfi_restore 29
	.cfi_restore 30
	.loc 1 59 0
	mov	w0, -22
.LVL116:
	ret
	.cfi_endproc
.LFE210:
	.size	decodewaveform, .-decodewaveform
	.section	.text.get_wf_frm_num,"ax",@progbits
	.align	2
	.type	get_wf_frm_num, %function
get_wf_frm_num:
.LFB215:
	.loc 1 330 0
	.cfi_startproc
.LVL117:
	stp	x29, x30, [sp, -16]!
	.cfi_def_cfa_offset 16
	.cfi_offset 29, -16
	.cfi_offset 30, -8
	.loc 1 331 0
	adrp	x3, .LANCHOR0
	.loc 1 330 0
	add	x29, sp, 0
	.cfi_def_cfa_register 29
	.loc 1 331 0
	ldr	x4, [x3, #:lo12:.LANCHOR0]
.LVL118:
	.loc 1 336 0
	ldrb	w3, [x4, 32]
	add	w0, w3, w0, lsl 2
.LVL119:
	.loc 1 338 0
	sxtw	x0, w0
	ldrb	w8, [x4, x0]
.LVL120:
	.loc 1 339 0
	add	x0, x4, x0
.LVL121:
	ldrb	w5, [x0, 1]
.LVL122:
	.loc 1 340 0
	ldrb	w6, [x0, 2]
.LVL123:
	.loc 1 341 0
	ldrb	w3, [x0, 3]
	.loc 1 342 0
	add	w0, w5, w6
	add	w0, w0, w8
	cmp	w3, w0, uxtb
	beq	.L101
	.loc 1 343 0
	mov	w2, 343
.LVL124:
.L111:
	.loc 1 357 0
	adrp	x1, .LANCHOR3
	adrp	x0, .LC3
	add	x1, x1, :lo12:.LANCHOR3
	add	x0, x0, :lo12:.LC3
	bl	printf
.LVL125:
.L100:
	.loc 1 379 0
	mov	w0, -22
	ldp	x29, x30, [sp], 16
	.cfi_remember_state
	.cfi_restore 30
	.cfi_restore 29
	.cfi_def_cfa 31, 0
	ret
.LVL126:
.L101:
	.cfi_restore_state
	.loc 1 347 0
	lsl	w3, w6, 16
	orr	w3, w3, w5, lsl 8
	orr	w3, w3, w8
.LVL127:
	.loc 1 349 0
	add	w3, w3, w1, lsl 2
.LVL128:
	.loc 1 351 0
	sxtw	x3, w3
	ldrb	w6, [x4, x3]
.LVL129:
	.loc 1 352 0
	add	x3, x4, x3
.LVL130:
	ldrb	w1, [x3, 1]
.LVL131:
	.loc 1 353 0
	ldrb	w5, [x3, 2]
.LVL132:
	.loc 1 354 0
	ldrb	w0, [x3, 3]
	.loc 1 356 0
	add	w3, w1, w5
	add	w3, w3, w6
	cmp	w0, w3, uxtb
	beq	.L103
	.loc 1 357 0
	mov	w2, 357
.LVL133:
	b	.L111
.LVL134:
.L103:
	.loc 1 361 0
	lsl	w0, w5, 16
	mov	w7, w2
	orr	w0, w0, w1, lsl 8
	ldrb	w1, [x4, 16]
.LVL135:
	orr	w0, w0, w6
.LVL136:
	sub	w1, w1, #22
	and	w1, w1, 255
	cmp	w1, 45
	bhi	.L104
	mov	x3, 1
	lsl	x1, x3, x1
	mov	x3, 1037
	movk	x3, 0x2000, lsl 32
	tst	x1, x3
	beq	.L104
	.loc 1 369 0
	mov	w1, 32
.LVL137:
.L112:
	.loc 1 379 0
	ldp	x29, x30, [sp], 16
	.cfi_remember_state
	.cfi_restore 30
	.cfi_restore 29
	.cfi_def_cfa 31, 0
	.loc 1 374 0
	add	x0, x4, x0
.LVL138:
	b	decodewaveform
.LVL139:
.L104:
	.cfi_restore_state
	.loc 1 372 0
	cmp	w7, 32
	beq	.L100
	.loc 1 374 0
	mov	w2, 16
.LVL140:
	mov	w1, w2
	b	.L112
	.cfi_endproc
.LFE215:
	.size	get_wf_frm_num, .-get_wf_frm_num
	.section	.text.parse_wf_gray16_with_lut_type,"ax",@progbits
	.align	2
	.type	parse_wf_gray16_with_lut_type, %function
parse_wf_gray16_with_lut_type:
.LFB227:
	.loc 1 638 0
	.cfi_startproc
.LVL141:
	stp	x29, x30, [sp, -32]!
	.cfi_def_cfa_offset 32
	.cfi_offset 29, -32
	.cfi_offset 30, -24
	add	x29, sp, 0
	.cfi_def_cfa_register 29
	stp	x19, x20, [sp, 16]
	.cfi_offset 19, -16
	.cfi_offset 20, -8
	.loc 1 638 0
	mov	x20, x0
	mov	w19, w1
	.loc 1 642 0
	mov	w0, w2
.LVL142:
	bl	get_wf_mode_index
.LVL143:
	.loc 1 643 0
	mov	w1, w19
	mov	w2, 16
	bl	get_wf_frm_num
.LVL144:
	.loc 1 645 0
	str	w0, [x20]
	.loc 1 643 0
	mov	w19, w0
.LVL145:
	.loc 1 646 0
	lsl	w0, w0, 6
.LVL146:
.LBB56:
.LBB57:
	.file 2 "include/linux/compat.h"
	.loc 2 58 0
	mov	w1, 32768
	sxtw	x0, w0
.LVL147:
	bl	kmalloc
.LVL148:
.LBE57:
.LBE56:
	.loc 1 646 0
	str	x0, [x20, 8]
	.loc 1 647 0
	cbz	x0, .L115
	.loc 1 650 0
	mov	w1, w19
	bl	get_lut_gray16_data
.LVL149:
	.loc 1 652 0
	mov	w0, 0
.L113:
	.loc 1 653 0
	ldp	x19, x20, [sp, 16]
.LVL150:
	ldp	x29, x30, [sp], 32
	.cfi_remember_state
	.cfi_restore 30
	.cfi_restore 29
	.cfi_restore 19
	.cfi_restore 20
	.cfi_def_cfa 31, 0
	ret
.LVL151:
.L115:
	.cfi_restore_state
	.loc 1 648 0
	mov	w0, -12
	b	.L113
	.cfi_endproc
.LFE227:
	.size	parse_wf_gray16_with_lut_type, .-parse_wf_gray16_with_lut_type
	.section	.text.parse_wf_gray2,"ax",@progbits
	.align	2
	.type	parse_wf_gray2, %function
parse_wf_gray2:
.LFB224:
	.loc 1 576 0
	.cfi_startproc
.LVL152:
	stp	x29, x30, [sp, -48]!
	.cfi_def_cfa_offset 48
	.cfi_offset 29, -48
	.cfi_offset 30, -40
	add	x29, sp, 0
	.cfi_def_cfa_register 29
	str	x21, [sp, 32]
	.cfi_offset 21, -16
	mov	x21, x0
	stp	x19, x20, [sp, 16]
	.cfi_offset 19, -32
	.cfi_offset 20, -24
	.loc 1 581 0
	mov	w0, 4
.LVL153:
	.loc 1 576 0
	mov	w19, w1
	.loc 1 581 0
	bl	get_wf_mode_index
.LVL154:
	.loc 1 582 0
	mov	w1, w19
	mov	w2, 16
	bl	get_wf_frm_num
.LVL155:
	.loc 1 584 0
	str	w0, [x21]
	.loc 1 582 0
	mov	w19, w0
.LVL156:
	.loc 1 585 0
	lsl	w0, w0, 3
.LVL157:
.LBB66:
.LBB67:
	.loc 2 58 0
	mov	w1, 32768
	sxtw	x0, w0
.LVL158:
	bl	kmalloc
.LVL159:
.LBE67:
.LBE66:
	.loc 1 586 0
	cbz	x0, .L123
	mov	x20, x0
	.loc 1 589 0
	mov	w1, w19
	bl	get_lut_gray2_data
.LVL160:
	.loc 1 593 0
	str	w19, [x21]
.LVL161:
.LBB68:
.LBB69:
.LBB70:
.LBB71:
	.loc 2 58 0
	mov	w1, 32768
	lsl	w0, w19, 6
.LVL162:
	bl	kmalloc
.LVL163:
.LBE71:
.LBE70:
	.loc 1 426 0
	cbz	x0, .L124
	mov	x5, x0
	mov	x4, x20
	mov	w3, 0
.LVL164:
.L120:
	.loc 1 429 0
	cmp	w19, w3
	bgt	.L122
.LVL165:
.L119:
.LBE69:
.LBE68:
	.loc 1 594 0
	str	x0, [x21, 8]
.LVL166:
.LBB73:
.LBB74:
	.loc 2 81 0
	mov	x0, x20
	bl	free
.LVL167:
.LBE74:
.LBE73:
	.loc 1 598 0
	mov	w0, 0
.L117:
	.loc 1 599 0
	ldp	x19, x20, [sp, 16]
.LVL168:
	ldr	x21, [sp, 32]
.LVL169:
	ldp	x29, x30, [sp], 48
	.cfi_remember_state
	.cfi_restore 30
	.cfi_restore 29
	.cfi_restore 21
	.cfi_restore 19
	.cfi_restore 20
	.cfi_def_cfa 31, 0
	ret
.LVL170:
.L122:
	.cfi_restore_state
.LBB75:
.LBB72:
	.loc 1 430 0
	ldr	w8, [x4], 8
.LVL171:
	.loc 1 431 0
	mov	x2, 0
	ldr	w7, [x4, -4]
.LVL172:
.L121:
	lsl	w1, w2, 1
.LVL173:
	.loc 1 434 0
	asr	w6, w8, w1
	and	w6, w6, 3
	.loc 1 435 0
	asr	w1, w7, w1
.LVL174:
	.loc 1 436 0
	orr	w1, w6, w1, lsl 30
	.loc 1 437 0
	str	w1, [x5, x2, lsl 2]
.LVL175:
	add	x2, x2, 1
.LVL176:
	.loc 1 433 0
	cmp	x2, 16
	bne	.L121
	.loc 1 429 0
	add	w3, w3, 1
.LVL177:
	add	x5, x5, 64
	b	.L120
.LVL178:
.L124:
	.loc 1 427 0
	mov	x0, 0
	b	.L119
.LVL179:
.L123:
.LBE72:
.LBE75:
	.loc 1 587 0
	mov	w0, -12
	b	.L117
	.cfi_endproc
.LFE224:
	.size	parse_wf_gray2, .-parse_wf_gray2
	.section	.text.pvi_wf_get_lut,"ax",@progbits
	.align	2
	.global	pvi_wf_get_lut
	.type	pvi_wf_get_lut, %function
pvi_wf_get_lut:
.LFB230:
	.loc 1 715 0
	.cfi_startproc
.LVL180:
	.loc 1 721 0
	adrp	x3, .LANCHOR0
	ldr	x4, [x3, #:lo12:.LANCHOR0]
	cbz	x4, .L171
	.loc 1 724 0
	cbz	x0, .L172
	.loc 1 728 0
	adrp	x3, .LANCHOR4
	ldr	w5, [x3, #:lo12:.LANCHOR4]
	cmp	w5, w2
	adrp	x5, .LANCHOR5
	bne	.L129
	.loc 1 728 0 is_stmt 0 discriminator 1
	ldr	w6, [x5, #:lo12:.LANCHOR5]
	cmp	w6, w1
	beq	.L173
.L129:
	.loc 1 715 0 is_stmt 1
	stp	x29, x30, [sp, -80]!
	.cfi_def_cfa_offset 80
	.cfi_offset 29, -80
	.cfi_offset 30, -72
	add	x29, sp, 0
	.cfi_def_cfa_register 29
	stp	x19, x20, [sp, 16]
	stp	x21, x22, [sp, 32]
	stp	x23, x24, [sp, 48]
	str	x25, [sp, 64]
	.cfi_offset 19, -64
	.cfi_offset 20, -56
	.cfi_offset 21, -48
	.cfi_offset 22, -40
	.cfi_offset 23, -32
	.cfi_offset 24, -24
	.cfi_offset 25, -16
	.loc 1 731 0
	str	w2, [x3, #:lo12:.LANCHOR4]
.LBB121:
.LBB122:
	.loc 1 312 0
	mov	x3, 0
	ldrb	w20, [x4, 38]
.LBE122:
.LBE121:
	.loc 1 732 0
	str	w1, [x5, #:lo12:.LANCHOR5]
.LVL181:
.L130:
	mov	w5, w3
.LVL182:
.LBB125:
.LBB123:
	.loc 1 316 0
	cmp	w20, w3
	bgt	.L132
	.loc 1 323 0
	cmp	w20, w3
	bne	.L174
	.loc 1 324 0
	sub	w20, w20, #1
.LVL183:
	b	.L131
.LVL184:
.L132:
	.loc 1 317 0
	add	x6, x4, x3
	add	x3, x3, 1
.LVL185:
	ldrb	w6, [x6, 48]
	cmp	w2, w6
	bge	.L130
	.loc 1 318 0
	sub	w20, w5, #1
.LVL186:
.L131:
	mov	x19, x0
.LVL187:
.LBE123:
.LBE125:
	.loc 1 737 0
	ldr	x0, [x0, 8]
.LVL188:
	mov	w21, w1
	cbz	x0, .L133
.LVL189:
.LBB126:
.LBB127:
	.loc 2 81 0
	bl	free
.LVL190:
.LBE127:
.LBE126:
	.loc 1 739 0
	str	xzr, [x19, 8]
.L133:
	.loc 1 743 0
	sub	w1, w21, #1
	cmp	w1, 11
	bhi	.L157
	adrp	x0, .L135
	add	x0, x0, :lo12:.L135
	ldrh	w0, [x0,w1,uxtw #1]
	adr	x1, .Lrtx135
	add	x0, x1, w0, sxth #2
	br	x0
.Lrtx135:
	.section	.rodata.pvi_wf_get_lut,"a",@progbits
	.align	0
	.align	2
.L135:
	.2byte	(.L134 - .Lrtx135) / 4
	.2byte	(.L136 - .Lrtx135) / 4
	.2byte	(.L137 - .Lrtx135) / 4
	.2byte	(.L201 - .Lrtx135) / 4
	.2byte	(.L139 - .Lrtx135) / 4
	.2byte	(.L140 - .Lrtx135) / 4
	.2byte	(.L141 - .Lrtx135) / 4
	.2byte	(.L142 - .Lrtx135) / 4
	.2byte	(.L143 - .Lrtx135) / 4
	.2byte	(.L144 - .Lrtx135) / 4
	.2byte	(.L145 - .Lrtx135) / 4
	.2byte	(.L146 - .Lrtx135) / 4
	.section	.text.pvi_wf_get_lut
.LVL191:
.L174:
.LBB128:
.LBB124:
	.loc 1 313 0
	mov	w20, -1
.LVL192:
	b	.L131
.LVL193:
.L134:
.LBE124:
.LBE128:
.LBB129:
.LBB130:
	.loc 1 555 0
	mov	w0, 1
	bl	get_wf_mode_index
.LVL194:
	.loc 1 556 0
	mov	w1, w20
	mov	w2, 16
	bl	get_wf_frm_num
.LVL195:
	.loc 1 558 0
	add	w21, w0, 3
.LVL196:
	mov	w20, 4
.LVL197:
	.loc 1 556 0
	mov	w22, w0
.LVL198:
.LBB131:
.LBB132:
	.loc 2 58 0
	mov	w1, 32768
.LBE132:
.LBE131:
	.loc 1 558 0
	sdiv	w20, w21, w20
	sxtw	x20, w20
.LVL199:
.LBB134:
.LBB133:
	.loc 2 58 0
	mov	x0, x20
.LVL200:
	bl	kmalloc
.LVL201:
	mov	x24, x0
.LVL202:
.LBE133:
.LBE134:
	.loc 1 559 0
	cbz	x0, .L157
.LVL203:
.LBB135:
.LBB136:
	.loc 1 475 0
	adrp	x25, .LANCHOR6
	add	x23, x25, :lo12:.LANCHOR6
	mov	x2, 1200
	mov	w1, 0
	mov	x0, x23
.LVL204:
	bl	memset
.LVL205:
.LBB137:
.LBB138:
	.loc 1 157 0
	adrp	x4, waveformdata
	add	x4, x4, :lo12:waveformdata
.LBE138:
.LBE137:
	.loc 1 475 0
	mov	x3, 0
	.loc 1 478 0
	mov	w5, 16
.LVL206:
.L148:
	mov	w2, w3
.LVL207:
	.loc 1 476 0
	cmp	w22, w3
	bgt	.L149
	.loc 1 481 0
	mov	x2, x20
.LVL208:
	add	x1, x25, :lo12:.LANCHOR6
	mov	x0, x24
	bl	memcpy
.LVL209:
.LBE136:
.LBE135:
	.loc 1 566 0
	str	w22, [x19]
.LVL210:
.LBB142:
.LBB143:
	.loc 1 389 0
	lsr	w21, w21, 2
.LVL211:
.LBB144:
.LBB145:
	.loc 2 58 0
	mov	w1, 32768
	lsl	w0, w22, 10
	bl	kmalloc
.LVL212:
.LBE145:
.LBE144:
	.loc 1 393 0
	cbz	x0, .L176
	mov	x2, 0
.LVL213:
.L151:
	.loc 1 396 0
	cmp	w21, w2
	bgt	.L155
.LVL214:
.L150:
.LBE143:
.LBE142:
	.loc 1 568 0
	str	x0, [x19, 8]
.LVL215:
.LBB148:
.LBB149:
	.loc 2 81 0
	mov	x0, x24
.LVL216:
.L204:
.LBE149:
.LBE148:
.LBE130:
.LBE129:
.LBB153:
.LBB154:
.LBB155:
.LBB156:
	bl	free
.LVL217:
	b	.L200
.LVL218:
.L149:
.LBE156:
.LBE155:
.LBE154:
.LBE153:
.LBB176:
.LBB152:
.LBB150:
.LBB141:
	.loc 1 478 0
	sdiv	w1, w3, w5
.LBB140:
.LBB139:
	.loc 1 157 0
	lsl	x0, x3, 10
.LBE139:
.LBE140:
	.loc 1 478 0
	negs	w2, w2
.LVL219:
	and	w6, w3, 15
	and	w2, w2, 15
	add	x3, x3, 1
.LVL220:
	ldrb	w0, [x0, x4]
	csneg	w2, w6, w2, mi
	sxtw	x1, w1
	lsl	w2, w2, 1
	lsl	w2, w0, w2
	ldr	w0, [x23, x1, lsl 2]
	orr	w2, w2, w0
	str	w2, [x23, x1, lsl 2]
	b	.L148
.LVL221:
.L155:
.LBE141:
.LBE150:
.LBB151:
.LBB147:
	.loc 1 397 0
	ldr	w6, [x24, x2, lsl 2]
.LVL222:
	lsl	x7, x2, 8
	mov	x3, 0
.LVL223:
.L154:
.LBB146:
	.loc 1 399 0
	lsl	w1, w3, 1
	mov	w4, 0
	asr	w1, w6, w1
	and	w1, w1, 3
.LVL224:
	.loc 1 400 0
	mov	w5, w1
.LVL225:
.L152:
	.loc 1 403 0
	lsl	w8, w1, w4
	add	w4, w4, 2
	orr	w5, w5, w8
.LVL226:
	.loc 1 402 0
	cmp	w4, 32
	bne	.L152
	add	x4, x7, x3, lsl 4
	mov	x1, 0
.LVL227:
	add	x4, x0, x4, lsl 2
.LVL228:
.L153:
	.loc 1 406 0
	str	w5, [x4, x1, lsl 2]
.LVL229:
	add	x1, x1, 1
.LVL230:
	.loc 1 405 0
	cmp	x1, 16
	bne	.L153
.LVL231:
	add	x3, x3, 1
.LVL232:
.LBE146:
	.loc 1 398 0
	cmp	x3, 16
	bne	.L154
.LVL233:
	add	x2, x2, 1
.LVL234:
	b	.L151
.LVL235:
.L176:
	.loc 1 394 0
	mov	x0, 0
	b	.L150
.LVL236:
.L136:
.LBE147:
.LBE151:
.LBE152:
.LBE176:
.LBB177:
.LBB178:
	.loc 1 624 0
	mov	w0, 2
	bl	get_wf_mode_index
.LVL237:
	.loc 1 625 0
	mov	w1, w20
	mov	w2, 16
	bl	get_wf_frm_num
.LVL238:
	mov	w20, w0
.LVL239:
	.loc 1 627 0
	str	w20, [x19]
.LVL240:
	.loc 1 628 0
	lsl	w0, w0, 6
.LVL241:
.LBB179:
.LBB180:
	.loc 2 58 0
	mov	w1, 32768
	sxtw	x0, w0
.LVL242:
	bl	kmalloc
.LVL243:
.LBE180:
.LBE179:
	.loc 1 628 0
	str	x0, [x19, 8]
	.loc 1 629 0
	cbnz	x0, .L156
.LVL244:
.L157:
.LBE178:
.LBE177:
	.loc 1 799 0
	mov	w0, -1
	b	.L127
.LVL245:
.L156:
.LBB182:
.LBB181:
	.loc 1 632 0
	mov	w1, w20
.LVL246:
.L205:
.LBE181:
.LBE182:
.LBB183:
.LBB184:
	.loc 1 671 0
	bl	get_lut_gray16_data
.LVL247:
	b	.L200
.LVL248:
.L141:
.LBE184:
.LBE183:
	.loc 1 757 0
	mov	w2, 7
.L203:
	.loc 1 781 0
	mov	w1, w20
	mov	x0, x19
	bl	parse_wf_gray16_with_lut_type
.LVL249:
.L202:
	.loc 1 804 0
	cmp	w0, 0
	csetm	w0, ne
.LVL250:
.L127:
	.loc 1 817 0
	ldp	x19, x20, [sp, 16]
	ldp	x21, x22, [sp, 32]
	ldp	x23, x24, [sp, 48]
	ldr	x25, [sp, 64]
	ldp	x29, x30, [sp], 80
	.cfi_remember_state
	.cfi_restore 30
	.cfi_restore 29
	.cfi_restore 25
	.cfi_restore 23
	.cfi_restore 24
	.cfi_restore 21
	.cfi_restore 22
	.cfi_restore 19
	.cfi_restore 20
	.cfi_def_cfa 31, 0
	ret
.LVL251:
.L142:
	.cfi_restore_state
	.loc 1 763 0
	mov	w2, 8
	b	.L203
.L143:
	.loc 1 769 0
	mov	w2, 9
	b	.L203
.L144:
	.loc 1 775 0
	mov	w2, 10
	b	.L203
.L145:
	.loc 1 781 0
	mov	w2, 11
	b	.L203
.L137:
	.loc 1 787 0
	adrp	x0, .LC4
	add	x0, x0, :lo12:.LC4
	bl	printf
.LVL252:
.L200:
	.loc 1 816 0
	mov	w0, 0
	b	.L127
.LVL253:
.L139:
.LBB188:
.LBB173:
	.loc 1 683 0
	mov	w0, 5
	bl	get_wf_mode_index
.LVL254:
	.loc 1 684 0
	mov	w2, 16
	mov	w1, w20
	bl	get_wf_frm_num
.LVL255:
	mov	w21, w0
.LVL256:
	.loc 1 686 0
	str	w21, [x19]
.LVL257:
	.loc 1 687 0
	lsl	w0, w0, 6
.LVL258:
.LBB158:
.LBB159:
	.loc 2 58 0
	mov	w1, 32768
	sxtw	x0, w0
.LVL259:
	bl	kmalloc
.LVL260:
.LBE159:
.LBE158:
	.loc 1 687 0
	str	x0, [x19, 8]
	.loc 1 688 0
	cbz	x0, .L157
	.loc 1 691 0
	mov	w1, w21
	bl	get_lut_gray16_data
.LVL261:
	.loc 1 694 0
	mov	w0, 4
	bl	get_wf_mode_index
.LVL262:
	.loc 1 695 0
	mov	w1, w20
	mov	w2, 16
	bl	get_wf_frm_num
.LVL263:
	mov	w20, w0
.LVL264:
	.loc 1 698 0
	ldr	w0, [x19]
.LVL265:
.LBB160:
.LBB161:
	.loc 2 58 0
	mov	w1, 32768
.LBE161:
.LBE160:
	.loc 1 698 0
	orr	w0, w0, w20, lsl 8
	str	w0, [x19]
.LVL266:
	.loc 1 700 0
	lsl	w0, w20, 3
.LBB163:
.LBB162:
	.loc 2 58 0
	sxtw	x0, w0
.LVL267:
	bl	kmalloc
.LVL268:
	mov	x21, x0
.LVL269:
.LBE162:
.LBE163:
	.loc 1 701 0
	cbz	x0, .L157
	.loc 1 704 0
	mov	w1, w20
	bl	get_lut_gray2_data
.LVL270:
	mov	x0, 4
	ldr	x3, [x19, 8]
.LVL271:
	add	x20, x0, x20, uxtw 3
.LVL272:
	add	x2, x21, 4
	add	x20, x21, x20
.LVL273:
.L158:
.LBB164:
.LBB165:
	.loc 1 456 0
	cmp	x2, x20
	bne	.L160
.LVL274:
.LBE165:
.LBE164:
.LBB169:
.LBB157:
	.loc 2 81 0
	mov	x0, x21
	b	.L204
.LVL275:
.L160:
.LBE157:
.LBE169:
.LBB170:
.LBB166:
	.loc 1 458 0
	ldp	w7, w6, [x2, -4]
.LVL276:
	mov	x1, 0
.LVL277:
.L159:
	.loc 1 460 0
	ldr	w0, [x3, x1, lsl 2]
.LVL278:
	.loc 1 461 0
	and	w4, w0, 1073741820
.LVL279:
	lsl	w0, w1, 1
.LVL280:
	.loc 1 462 0
	asr	w5, w7, w0
	and	w5, w5, 3
	.loc 1 463 0
	asr	w0, w6, w0
.LVL281:
	.loc 1 462 0
	orr	w0, w5, w0, lsl 30
	orr	w0, w0, w4
	.loc 1 464 0
	str	w0, [x3, x1, lsl 2]
.LVL282:
	add	x1, x1, 1
.LVL283:
	.loc 1 459 0
	cmp	x1, 16
	bne	.L159
	add	x3, x3, 64
.LVL284:
	add	x2, x2, 8
.LVL285:
	b	.L158
.LVL286:
.L140:
.LBE166:
.LBE170:
.LBE173:
.LBE188:
.LBB189:
.LBB187:
	.loc 1 660 0
	mov	w0, 6
	bl	get_wf_mode_index
.LVL287:
	.loc 1 661 0
	mov	w2, 16
	mov	w1, w20
	bl	get_wf_frm_num
.LVL288:
	mov	w21, w0
.LVL289:
	.loc 1 663 0
	cmp	w0, 0
	bgt	.L161
.LVL290:
.L201:
	.loc 1 664 0
	mov	w1, w20
	mov	x0, x19
	bl	parse_wf_gray2
.LVL291:
	b	.L202
.LVL292:
.L161:
	.loc 1 666 0
	str	w21, [x19]
.LVL293:
	.loc 1 667 0
	lsl	w0, w0, 6
.LVL294:
.LBB185:
.LBB186:
	.loc 2 58 0
	mov	w1, 32768
	sxtw	x0, w0
	bl	kmalloc
.LVL295:
.LBE186:
.LBE185:
	.loc 1 667 0
	str	x0, [x19, 8]
	.loc 1 668 0
	cbz	x0, .L157
	.loc 1 671 0
	mov	w1, w21
	b	.L205
.LVL296:
.L146:
.LBE187:
.LBE189:
.LBB190:
.LBB191:
	.loc 1 606 0
	mov	w0, 7
	bl	get_wf_mode_index
.LVL297:
	.loc 1 607 0
	mov	w1, w20
	mov	w2, 32
	bl	get_wf_frm_num
.LVL298:
	mov	w23, w0
.LVL299:
	.loc 1 610 0
	lsl	w20, w0, 8
.LVL300:
	.loc 1 609 0
	str	w23, [x19]
	.loc 1 610 0
	sxtw	x20, w20
.LVL301:
.LBB192:
.LBB193:
	.loc 2 58 0
	mov	w1, 32768
	mov	x0, x20
.LVL302:
	bl	kmalloc
.LVL303:
.LBE193:
.LBE192:
	.loc 1 610 0
	str	x0, [x19, 8]
.LBB195:
.LBB194:
	.loc 2 58 0
	mov	x22, x0
.LVL304:
.LBE194:
.LBE195:
	.loc 1 611 0
	cbz	x0, .L157
.LVL305:
.LBB196:
.LBB197:
	.loc 1 511 0
	adrp	x21, gray32_data
.LVL306:
	mov	x2, 11264
	add	x19, x21, :lo12:gray32_data
.LVL307:
	mov	w1, 0
	movk	x2, 0x1, lsl 16
	mov	x0, x19
.LVL308:
	bl	memset
.LVL309:
	adrp	x5, waveformdata
	add	x5, x5, :lo12:waveformdata
	mov	w1, -32
	mov	x3, 0
.LVL310:
.L163:
	lsl	w12, w3, 1
.LBE197:
.LBE196:
.LBE191:
.LBE190:
.LBB208:
.LBB174:
.LBB171:
.LBB167:
	.loc 1 458 0
	mov	x2, 0
	b	.L170
.LVL311:
.L166:
.LBE167:
.LBE171:
.LBE174:
.LBE208:
.LBB209:
.LBB206:
.LBB204:
.LBB202:
.LBB198:
.LBB199:
	.loc 1 157 0
	lsl	x4, x0, 2
	add	x11, x0, x19
.LBE199:
.LBE198:
	.loc 1 516 0
	cmp	x3, 15
.LBB201:
.LBB200:
	.loc 1 157 0
	ldrb	w4, [x7, x4]
.LVL312:
.LBE200:
.LBE201:
	.loc 1 516 0
	bhi	.L164
	.loc 1 517 0
	ldr	w8, [x11, x2]
	lsl	w4, w4, w12
	orr	w4, w8, w4
	str	w4, [x11, x2]
.L165:
	.loc 1 514 0
	add	w6, w6, 1
.LVL313:
	add	x0, x0, 256
.LVL314:
.L168:
	cmp	w23, w6
	bgt	.L166
	add	x2, x2, 8
	.loc 1 513 0
	cmp	x2, 256
	beq	.L167
.LVL315:
.L170:
	add	x7, x3, x2, lsl 2
.LBE202:
.LBE204:
.LBE206:
.LBE209:
.LBB210:
.LBB175:
.LBB172:
.LBB168:
	.loc 1 458 0
	mov	x0, 0
	add	x7, x7, x5
	mov	w6, 0
	add	x10, x2, 4
	b	.L168
.LVL316:
.L164:
.LBE168:
.LBE172:
.LBE175:
.LBE210:
.LBB211:
.LBB207:
.LBB205:
.LBB203:
	.loc 1 520 0
	ldr	w8, [x11, x10]
	lsl	w4, w4, w1
	orr	w4, w8, w4
	str	w4, [x11, x10]
	b	.L165
.L167:
.LVL317:
	add	x3, x3, 1
.LVL318:
	add	w1, w1, 2
	.loc 1 512 0
	cmp	x3, 32
	bne	.L163
	.loc 1 526 0
	mov	x2, x20
	add	x1, x21, :lo12:gray32_data
	mov	x0, x22
	bl	memcpy
.LVL319:
	b	.L200
.LVL320:
.L171:
	.cfi_def_cfa 31, 0
	.cfi_restore 19
	.cfi_restore 20
	.cfi_restore 21
	.cfi_restore 22
	.cfi_restore 23
	.cfi_restore 24
	.cfi_restore 25
	.cfi_restore 29
	.cfi_restore 30
.LBE203:
.LBE205:
.LBE207:
.LBE211:
	.loc 1 722 0
	mov	w0, -19
.LVL321:
	ret
.LVL322:
.L172:
	.loc 1 725 0
	mov	w0, -22
.LVL323:
	ret
.LVL324:
.L173:
	.loc 1 729 0
	mov	w0, 0
.LVL325:
	ret
	.cfi_endproc
.LFE230:
	.size	pvi_wf_get_lut, .-pvi_wf_get_lut
	.section	.text.pvi_wf_input,"ax",@progbits
	.align	2
	.global	pvi_wf_input
	.type	pvi_wf_input, %function
pvi_wf_input:
.LFB231:
	.loc 1 827 0
	.cfi_startproc
.LVL326:
	.loc 1 830 0
	adrp	x1, .LANCHOR0
	ldr	x3, [x1, #:lo12:.LANCHOR0]
	cbnz	x3, .L212
	mov	x2, x1
	.loc 1 834 0
	ldrb	w1, [x0, 16]
	cmp	w1, 25
	bhi	.L209
	cmp	w1, 24
	bcs	.L210
	cmp	w1, 18
	beq	.L210
	cmp	w1, 22
	beq	.L210
	cmp	w1, 9
.L237:
	beq	.L210
	.loc 1 827 0
	stp	x29, x30, [sp, -16]!
	.cfi_def_cfa_offset 16
	.cfi_offset 29, -16
	.cfi_offset 30, -8
	add	x29, sp, 0
	.cfi_def_cfa_register 29
	.loc 1 846 0
	ldrb	w2, [x0, 22]
	adrp	x0, .LC5
.LVL327:
	add	x0, x0, :lo12:.LC5
	bl	printf
.LVL328:
	.loc 1 848 0
	mov	w0, -8
	.loc 1 854 0
	ldp	x29, x30, [sp], 16
	.cfi_restore 30
	.cfi_restore 29
	.cfi_def_cfa 31, 0
	ret
.LVL329:
.L209:
	.loc 1 834 0
	cmp	w1, 35
	beq	.L210
	bhi	.L211
	cmp	w1, 32
	b	.L237
.L211:
	cmp	w1, 67
	beq	.L210
	cmp	w1, 84
	b	.L237
.L210:
	.loc 1 851 0
	str	x0, [x2, #:lo12:.LANCHOR0]
	.loc 1 853 0
	mov	w0, 0
.LVL330:
	ret
.LVL331:
.L212:
	.loc 1 831 0
	mov	w0, -16
.LVL332:
	ret
	.cfi_endproc
.LFE231:
	.size	pvi_wf_input, .-pvi_wf_input
	.section	.text.pvi_wf_get_version,"ax",@progbits
	.align	2
	.global	pvi_wf_get_version
	.type	pvi_wf_get_version, %function
pvi_wf_get_version:
.LFB232:
	.loc 1 864 0
	.cfi_startproc
	.loc 1 865 0
	adrp	x0, .LANCHOR0
	ldr	x2, [x0, #:lo12:.LANCHOR0]
.LVL333:
	.loc 1 869 0
	cbz	x2, .L242
	.loc 1 873 0 discriminator 3
	adrp	x0, .LANCHOR7
	add	x0, x0, :lo12:.LANCHOR7
	mov	x1, 0
.L241:
.LVL334:
	add	x3, x2, x1
	ldrb	w3, [x3, 65]
	strb	w3, [x1, x0]
.LVL335:
	add	x1, x1, 1
.LVL336:
	.loc 1 872 0 discriminator 3
	cmp	x1, 31
	bne	.L241
	.loc 1 875 0
	strb	wzr, [x0, 31]
	.loc 1 877 0
	ret
.L242:
	.loc 1 870 0
	mov	x0, 0
	.loc 1 878 0
	ret
	.cfi_endproc
.LFE232:
	.size	pvi_wf_get_version, .-pvi_wf_get_version
	.section	.bss.global_waveform,"aw",@nobits
	.align	3
	.set	.LANCHOR0,. + 0
	.type	global_waveform, %object
	.size	global_waveform, 8
global_waveform:
	.zero	8
	.section	.bss.gray32_data,"aw",@nobits
	.align	3
	.type	gray32_data, %object
	.size	gray32_data, 76800
gray32_data:
	.zero	76800
	.section	.bss.gray_2_data,"aw",@nobits
	.align	3
	.set	.LANCHOR2,. + 0
	.type	gray_2_data, %object
	.size	gray_2_data, 2400
gray_2_data:
	.zero	2400
	.section	.bss.gray_data,"aw",@nobits
	.align	3
	.type	gray_data, %object
	.size	gray_data, 19200
gray_data:
	.zero	19200
	.section	.bss.pvi_modes.5991,"aw",@nobits
	.align	3
	.set	.LANCHOR1,. + 0
	.type	pvi_modes.5991, %object
	.size	pvi_modes.5991, 36
pvi_modes.5991:
	.zero	36
	.section	.bss.reset_data,"aw",@nobits
	.align	3
	.set	.LANCHOR6,. + 0
	.type	reset_data, %object
	.size	reset_data, 1200
reset_data:
	.zero	1200
	.section	.bss.spi_id_buffer.6260,"aw",@nobits
	.align	3
	.set	.LANCHOR7,. + 0
	.type	spi_id_buffer.6260, %object
	.size	spi_id_buffer.6260, 32
spi_id_buffer.6260:
	.zero	32
	.section	.bss.waveformdata,"aw",@nobits
	.align	3
	.type	waveformdata, %object
	.size	waveformdata, 524288
waveformdata:
	.zero	524288
	.section	.data.sftemp.6224,"aw",@progbits
	.align	2
	.set	.LANCHOR4,. + 0
	.type	sftemp.6224, %object
	.size	sftemp.6224, 4
sftemp.6224:
	.word	-1
	.section	.data.stype.6223,"aw",@progbits
	.align	2
	.set	.LANCHOR5,. + 0
	.type	stype.6223, %object
	.size	stype.6223, 4
stype.6223:
	.word	13
	.section	.rodata.__func__.6041,"a",@progbits
	.align	3
	.set	.LANCHOR3,. + 0
	.type	__func__.6041, %object
	.size	__func__.6041, 15
__func__.6041:
	.string	"get_wf_frm_num"
	.section	.rodata.decodewaveform.str1.1,"aMS",@progbits,1
.LC2:
	.string	"pvi: decodec waveform 19 error\n"
	.section	.rodata.get_wf_frm_num.str1.1,"aMS",@progbits,1
.LC3:
	.string	"pvi: %s %d check error\n"
	.section	.rodata.get_wf_mode_index.str1.1,"aMS",@progbits,1
.LC0:
	.string	"pvi : Unknow waveform version %x,%x\n"
.LC1:
	.string	"pvi: unspport PVI waveform type"
	.section	.rodata.pvi_wf_get_lut.str1.1,"aMS",@progbits,1
.LC4:
	.string	"pvi: unsupport WF GRAY4n"
	.section	.rodata.pvi_wf_input.str1.1,"aMS",@progbits,1
.LC5:
	.string	"pvi : Unknow waveform version %x,%x, may be wrong waveform file\n"
	.text
.Letext0:
	.file 3 "include/common.h"
	.file 4 "./arch/arm/include/asm/types.h"
	.file 5 "./arch/arm/include/asm/posix_types.h"
	.file 6 "include/linux/types.h"
	.file 7 "include/errno.h"
	.file 8 "include/linux/string.h"
	.file 9 "include/efi.h"
	.file 10 "include/ide.h"
	.file 11 "include/part.h"
	.file 12 "include/flash.h"
	.file 13 "include/lmb.h"
	.file 14 "include/asm-generic/u-boot.h"
	.file 15 "./arch/arm/include/asm/u-boot-arm.h"
	.file 16 "include/linux/libfdt_env.h"
	.file 17 "include/linux/../../scripts/dtc/libfdt/fdt.h"
	.file 18 "include/linux/libfdt.h"
	.file 19 "include/image.h"
	.file 20 "include/net.h"
	.file 21 "include/dm/uclass-id.h"
	.file 22 "include/malloc.h"
	.file 23 "drivers/video/rk_eink/epdlut/epd_lut.h"
	.file 24 "include/stdio.h"
	.file 25 "include/log.h"
	.section	.note.GNU-stack,"",@progbits
